
20150708.001_H1_HeadCtrl.elf:     file format elf32-littlearm

Sections:
Idx Name          Size      VMA       LMA       File off  Algn
  0 .text         0000c69c  00000000  00000000  00010000  2**2
                  CONTENTS, ALLOC, LOAD, READONLY, CODE
  1 .ARM.exidx    00000008  0000c69c  0000c69c  0001c69c  2**2
                  CONTENTS, ALLOC, LOAD, READONLY, DATA
  2 .configuration 0000002c  0003ff00  0003ff00  0002ff00  2**2
                  CONTENTS, ALLOC, LOAD, DATA
  3 .relocate     00000170  20000000  0000c6a4  00020000  2**2
                  CONTENTS, ALLOC, LOAD, DATA
  4 .bss          00002870  20000170  0000c820  00020170  2**4
                  ALLOC
  5 .stack        00002000  200029e0  0000f090  00020170  2**0
                  ALLOC
  6 .ARM.attributes 00000028  00000000  00000000  0002ff2c  2**0
                  CONTENTS, READONLY
  7 .comment      00000059  00000000  00000000  0002ff54  2**0
                  CONTENTS, READONLY
  8 .debug_frame  00000588  00000000  00000000  0002ffb0  2**2
                  CONTENTS, READONLY, DEBUGGING

Disassembly of section .text:

00000000 <exception_table>:
       0:	e0 49 00 20 31 8b 00 00 2d 8b 00 00 2d 8b 00 00     .I. 1...-...-...
	...
      2c:	2d 8b 00 00 00 00 00 00 00 00 00 00 2d 8b 00 00     -...........-...
      3c:	2d 8b 00 00 2d 8b 00 00 2d 8b 00 00 39 58 00 00     -...-...-...9X..
      4c:	f5 3e 00 00 75 73 00 00 2d 8b 00 00 89 11 00 00     .>..us..-.......
      5c:	ed 5e 00 00 2d 8b 00 00 19 71 00 00 29 71 00 00     .^..-....q..)q..
      6c:	39 71 00 00 49 71 00 00 59 71 00 00 69 71 00 00     9q..Iq..Yq..iq..
      7c:	f1 15 00 00 01 16 00 00 11 16 00 00 c5 48 00 00     .............H..
      8c:	d5 48 00 00 e5 48 00 00 00 00 00 00 00 00 00 00     .H...H..........
      9c:	c5 0e 00 00 31 74 00 00 e1 10 00 00 2d 8b 00 00     ....1t......-...
      ac:	79 71 00 00 00 00 00 00                             yq......

000000b4 <__do_global_dtors_aux>:
      b4:	b510      	push	{r4, lr}
      b6:	4c06      	ldr	r4, [pc, #24]	; (d0 <__do_global_dtors_aux+0x1c>)
      b8:	7823      	ldrb	r3, [r4, #0]
      ba:	2b00      	cmp	r3, #0
      bc:	d107      	bne.n	ce <__do_global_dtors_aux+0x1a>
      be:	4b05      	ldr	r3, [pc, #20]	; (d4 <__do_global_dtors_aux+0x20>)
      c0:	2b00      	cmp	r3, #0
      c2:	d002      	beq.n	ca <__do_global_dtors_aux+0x16>
      c4:	4804      	ldr	r0, [pc, #16]	; (d8 <__do_global_dtors_aux+0x24>)
      c6:	e000      	b.n	ca <__do_global_dtors_aux+0x16>
      c8:	bf00      	nop
      ca:	2301      	movs	r3, #1
      cc:	7023      	strb	r3, [r4, #0]
      ce:	bd10      	pop	{r4, pc}
      d0:	20000170 	.word	0x20000170
      d4:	00000000 	.word	0x00000000
      d8:	0000c6a4 	.word	0x0000c6a4

000000dc <frame_dummy>:
      dc:	4b08      	ldr	r3, [pc, #32]	; (100 <frame_dummy+0x24>)
      de:	b510      	push	{r4, lr}
      e0:	2b00      	cmp	r3, #0
      e2:	d003      	beq.n	ec <frame_dummy+0x10>
      e4:	4907      	ldr	r1, [pc, #28]	; (104 <frame_dummy+0x28>)
      e6:	4808      	ldr	r0, [pc, #32]	; (108 <frame_dummy+0x2c>)
      e8:	e000      	b.n	ec <frame_dummy+0x10>
      ea:	bf00      	nop
      ec:	4807      	ldr	r0, [pc, #28]	; (10c <frame_dummy+0x30>)
      ee:	6803      	ldr	r3, [r0, #0]
      f0:	2b00      	cmp	r3, #0
      f2:	d100      	bne.n	f6 <frame_dummy+0x1a>
      f4:	bd10      	pop	{r4, pc}
      f6:	4b06      	ldr	r3, [pc, #24]	; (110 <frame_dummy+0x34>)
      f8:	2b00      	cmp	r3, #0
      fa:	d0fb      	beq.n	f4 <frame_dummy+0x18>
      fc:	4798      	blx	r3
      fe:	e7f9      	b.n	f4 <frame_dummy+0x18>
     100:	00000000 	.word	0x00000000
     104:	20000174 	.word	0x20000174
     108:	0000c6a4 	.word	0x0000c6a4
     10c:	0003ff2c 	.word	0x0003ff2c
     110:	00000000 	.word	0x00000000

00000114 <callback_function_ac>:
     114:	b510      	push	{r4, lr}
     116:	2240      	movs	r2, #64	; 0x40
     118:	4b04      	ldr	r3, [pc, #16]	; (12c <callback_function_ac+0x18>)
     11a:	615a      	str	r2, [r3, #20]
     11c:	4b04      	ldr	r3, [pc, #16]	; (130 <callback_function_ac+0x1c>)
     11e:	4798      	blx	r3
     120:	4b04      	ldr	r3, [pc, #16]	; (134 <callback_function_ac+0x20>)
     122:	6018      	str	r0, [r3, #0]
     124:	2201      	movs	r2, #1
     126:	4b04      	ldr	r3, [pc, #16]	; (138 <callback_function_ac+0x24>)
     128:	601a      	str	r2, [r3, #0]
     12a:	bd10      	pop	{r4, pc}
     12c:	41004400 	.word	0x41004400
     130:	00002bf5 	.word	0x00002bf5
     134:	20000dcc 	.word	0x20000dcc
     138:	20000dc8 	.word	0x20000dc8

0000013c <dma_ADC_tranfer_done>:
     13c:	b570      	push	{r4, r5, r6, lr}
     13e:	4b31      	ldr	r3, [pc, #196]	; (204 <dma_ADC_tranfer_done+0xc8>)
     140:	681a      	ldr	r2, [r3, #0]
     142:	2401      	movs	r4, #1
     144:	4022      	ands	r2, r4
     146:	4930      	ldr	r1, [pc, #192]	; (208 <dma_ADC_tranfer_done+0xcc>)
     148:	600a      	str	r2, [r1, #0]
     14a:	6980      	ldr	r0, [r0, #24]
     14c:	6819      	ldr	r1, [r3, #0]
     14e:	1c4a      	adds	r2, r1, #1
     150:	601a      	str	r2, [r3, #0]
     152:	004a      	lsls	r2, r1, #1
     154:	1851      	adds	r1, r2, r1
     156:	0249      	lsls	r1, r1, #9
     158:	4a2c      	ldr	r2, [pc, #176]	; (20c <dma_ADC_tranfer_done+0xd0>)
     15a:	1852      	adds	r2, r2, r1
     15c:	21c0      	movs	r1, #192	; 0xc0
     15e:	00c9      	lsls	r1, r1, #3
     160:	468c      	mov	ip, r1
     162:	4462      	add	r2, ip
     164:	6082      	str	r2, [r0, #8]
     166:	681a      	ldr	r2, [r3, #0]
     168:	4014      	ands	r4, r2
     16a:	601c      	str	r4, [r3, #0]
     16c:	4b28      	ldr	r3, [pc, #160]	; (210 <dma_ADC_tranfer_done+0xd4>)
     16e:	7e1b      	ldrb	r3, [r3, #24]
     170:	079b      	lsls	r3, r3, #30
     172:	d511      	bpl.n	198 <dma_ADC_tranfer_done+0x5c>
     174:	4b26      	ldr	r3, [pc, #152]	; (210 <dma_ADC_tranfer_done+0xd4>)
     176:	7e5b      	ldrb	r3, [r3, #25]
     178:	b25b      	sxtb	r3, r3
     17a:	2b00      	cmp	r3, #0
     17c:	db0c      	blt.n	198 <dma_ADC_tranfer_done+0x5c>
     17e:	4b24      	ldr	r3, [pc, #144]	; (210 <dma_ADC_tranfer_done+0xd4>)
     180:	691a      	ldr	r2, [r3, #16]
     182:	4924      	ldr	r1, [pc, #144]	; (214 <dma_ADC_tranfer_done+0xd8>)
     184:	400a      	ands	r2, r1
     186:	611a      	str	r2, [r3, #16]
     188:	7e1a      	ldrb	r2, [r3, #24]
     18a:	2102      	movs	r1, #2
     18c:	430a      	orrs	r2, r1
     18e:	761a      	strb	r2, [r3, #24]
     190:	7b1a      	ldrb	r2, [r3, #12]
     192:	2101      	movs	r1, #1
     194:	430a      	orrs	r2, r1
     196:	731a      	strb	r2, [r3, #12]
     198:	481f      	ldr	r0, [pc, #124]	; (218 <dma_ADC_tranfer_done+0xdc>)
     19a:	4b20      	ldr	r3, [pc, #128]	; (21c <dma_ADC_tranfer_done+0xe0>)
     19c:	4798      	blx	r3
     19e:	2805      	cmp	r0, #5
     1a0:	d028      	beq.n	1f4 <dma_ADC_tranfer_done+0xb8>
     1a2:	4b1f      	ldr	r3, [pc, #124]	; (220 <dma_ADC_tranfer_done+0xe4>)
     1a4:	4798      	blx	r3
     1a6:	4b1f      	ldr	r3, [pc, #124]	; (224 <dma_ADC_tranfer_done+0xe8>)
     1a8:	6018      	str	r0, [r3, #0]
     1aa:	4b17      	ldr	r3, [pc, #92]	; (208 <dma_ADC_tranfer_done+0xcc>)
     1ac:	681c      	ldr	r4, [r3, #0]
     1ae:	6818      	ldr	r0, [r3, #0]
     1b0:	4b1d      	ldr	r3, [pc, #116]	; (228 <dma_ADC_tranfer_done+0xec>)
     1b2:	4798      	blx	r3
     1b4:	0062      	lsls	r2, r4, #1
     1b6:	1912      	adds	r2, r2, r4
     1b8:	0252      	lsls	r2, r2, #9
     1ba:	4b14      	ldr	r3, [pc, #80]	; (20c <dma_ADC_tranfer_done+0xd0>)
     1bc:	189a      	adds	r2, r3, r2
     1be:	23c0      	movs	r3, #192	; 0xc0
     1c0:	00db      	lsls	r3, r3, #3
     1c2:	18d6      	adds	r6, r2, r3
     1c4:	4c19      	ldr	r4, [pc, #100]	; (22c <dma_ADC_tranfer_done+0xf0>)
     1c6:	4d1a      	ldr	r5, [pc, #104]	; (230 <dma_ADC_tranfer_done+0xf4>)
     1c8:	6823      	ldr	r3, [r4, #0]
     1ca:	6821      	ldr	r1, [r4, #0]
     1cc:	005b      	lsls	r3, r3, #1
     1ce:	0049      	lsls	r1, r1, #1
     1d0:	5a9b      	ldrh	r3, [r3, r2]
     1d2:	5b49      	ldrh	r1, [r1, r5]
     1d4:	1a5b      	subs	r3, r3, r1
     1d6:	b21b      	sxth	r3, r3
     1d8:	8003      	strh	r3, [r0, #0]
     1da:	8043      	strh	r3, [r0, #2]
     1dc:	3206      	adds	r2, #6
     1de:	3004      	adds	r0, #4
     1e0:	4296      	cmp	r6, r2
     1e2:	d1f1      	bne.n	1c8 <dma_ADC_tranfer_done+0x8c>
     1e4:	4b08      	ldr	r3, [pc, #32]	; (208 <dma_ADC_tranfer_done+0xcc>)
     1e6:	6818      	ldr	r0, [r3, #0]
     1e8:	4b12      	ldr	r3, [pc, #72]	; (234 <dma_ADC_tranfer_done+0xf8>)
     1ea:	4798      	blx	r3
     1ec:	2201      	movs	r2, #1
     1ee:	4b12      	ldr	r3, [pc, #72]	; (238 <dma_ADC_tranfer_done+0xfc>)
     1f0:	601a      	str	r2, [r3, #0]
     1f2:	bd70      	pop	{r4, r5, r6, pc}
     1f4:	4c08      	ldr	r4, [pc, #32]	; (218 <dma_ADC_tranfer_done+0xdc>)
     1f6:	0020      	movs	r0, r4
     1f8:	4b10      	ldr	r3, [pc, #64]	; (23c <dma_ADC_tranfer_done+0x100>)
     1fa:	4798      	blx	r3
     1fc:	0020      	movs	r0, r4
     1fe:	4b07      	ldr	r3, [pc, #28]	; (21c <dma_ADC_tranfer_done+0xe0>)
     200:	4798      	blx	r3
     202:	e7ce      	b.n	1a2 <dma_ADC_tranfer_done+0x66>
     204:	20000dbc 	.word	0x20000dbc
     208:	20000dc0 	.word	0x20000dc0
     20c:	200001b0 	.word	0x200001b0
     210:	42004000 	.word	0x42004000
     214:	ff0fffff 	.word	0xff0fffff
     218:	20001118 	.word	0x20001118
     21c:	00001395 	.word	0x00001395
     220:	00002bf5 	.word	0x00002bf5
     224:	20000db4 	.word	0x20000db4
     228:	00002a89 	.word	0x00002a89
     22c:	20000dc4 	.word	0x20000dc4
     230:	20000000 	.word	0x20000000
     234:	00002a95 	.word	0x00002a95
     238:	20000dd0 	.word	0x20000dd0
     23c:	0000141d 	.word	0x0000141d

00000240 <Compute_ADC_RMS>:
     240:	b5f0      	push	{r4, r5, r6, r7, lr}
     242:	46de      	mov	lr, fp
     244:	4657      	mov	r7, sl
     246:	464e      	mov	r6, r9
     248:	4645      	mov	r5, r8
     24a:	b5e0      	push	{r5, r6, r7, lr}
     24c:	b08b      	sub	sp, #44	; 0x2c
     24e:	9103      	str	r1, [sp, #12]
     250:	4694      	mov	ip, r2
     252:	2800      	cmp	r0, #0
     254:	d057      	beq.n	306 <Compute_ADC_RMS+0xc6>
     256:	2a00      	cmp	r2, #0
     258:	d057      	beq.n	30a <Compute_ADC_RMS+0xca>
     25a:	2600      	movs	r6, #0
     25c:	2700      	movs	r7, #0
     25e:	9604      	str	r6, [sp, #16]
     260:	9705      	str	r7, [sp, #20]
     262:	9606      	str	r6, [sp, #24]
     264:	9707      	str	r7, [sp, #28]
     266:	9608      	str	r6, [sp, #32]
     268:	9709      	str	r7, [sp, #36]	; 0x24
     26a:	000f      	movs	r7, r1
     26c:	3f01      	subs	r7, #1
     26e:	d30f      	bcc.n	290 <Compute_ADC_RMS+0x50>
     270:	a904      	add	r1, sp, #16
     272:	1d86      	adds	r6, r0, #6
     274:	2200      	movs	r2, #0
     276:	5e83      	ldrsh	r3, [r0, r2]
     278:	435b      	muls	r3, r3
     27a:	001c      	movs	r4, r3
     27c:	17dd      	asrs	r5, r3, #31
     27e:	680a      	ldr	r2, [r1, #0]
     280:	684b      	ldr	r3, [r1, #4]
     282:	1912      	adds	r2, r2, r4
     284:	416b      	adcs	r3, r5
     286:	c10c      	stmia	r1!, {r2, r3}
     288:	3002      	adds	r0, #2
     28a:	42b0      	cmp	r0, r6
     28c:	d1f2      	bne.n	274 <Compute_ADC_RMS+0x34>
     28e:	e7ed      	b.n	26c <Compute_ADC_RMS+0x2c>
     290:	ab04      	add	r3, sp, #16
     292:	4698      	mov	r8, r3
     294:	4666      	mov	r6, ip
     296:	230c      	movs	r3, #12
     298:	4463      	add	r3, ip
     29a:	469a      	mov	sl, r3
     29c:	4b1c      	ldr	r3, [pc, #112]	; (310 <Compute_ADC_RMS+0xd0>)
     29e:	469b      	mov	fp, r3
     2a0:	4b1c      	ldr	r3, [pc, #112]	; (314 <Compute_ADC_RMS+0xd4>)
     2a2:	4699      	mov	r9, r3
     2a4:	4644      	mov	r4, r8
     2a6:	9a03      	ldr	r2, [sp, #12]
     2a8:	2300      	movs	r3, #0
     2aa:	6820      	ldr	r0, [r4, #0]
     2ac:	6861      	ldr	r1, [r4, #4]
     2ae:	47d8      	blx	fp
     2b0:	c403      	stmia	r4!, {r0, r1}
     2b2:	4b19      	ldr	r3, [pc, #100]	; (318 <Compute_ADC_RMS+0xd8>)
     2b4:	4798      	blx	r3
     2b6:	4b19      	ldr	r3, [pc, #100]	; (31c <Compute_ADC_RMS+0xdc>)
     2b8:	4798      	blx	r3
     2ba:	1c07      	adds	r7, r0, #0
     2bc:	4918      	ldr	r1, [pc, #96]	; (320 <Compute_ADC_RMS+0xe0>)
     2be:	6830      	ldr	r0, [r6, #0]
     2c0:	47c8      	blx	r9
     2c2:	4b18      	ldr	r3, [pc, #96]	; (324 <Compute_ADC_RMS+0xe4>)
     2c4:	4798      	blx	r3
     2c6:	9000      	str	r0, [sp, #0]
     2c8:	9101      	str	r1, [sp, #4]
     2ca:	1c38      	adds	r0, r7, #0
     2cc:	4b15      	ldr	r3, [pc, #84]	; (324 <Compute_ADC_RMS+0xe4>)
     2ce:	4798      	blx	r3
     2d0:	4f15      	ldr	r7, [pc, #84]	; (328 <Compute_ADC_RMS+0xe8>)
     2d2:	4a16      	ldr	r2, [pc, #88]	; (32c <Compute_ADC_RMS+0xec>)
     2d4:	4b16      	ldr	r3, [pc, #88]	; (330 <Compute_ADC_RMS+0xf0>)
     2d6:	47b8      	blx	r7
     2d8:	0002      	movs	r2, r0
     2da:	000b      	movs	r3, r1
     2dc:	9800      	ldr	r0, [sp, #0]
     2de:	9901      	ldr	r1, [sp, #4]
     2e0:	4d14      	ldr	r5, [pc, #80]	; (334 <Compute_ADC_RMS+0xf4>)
     2e2:	47a8      	blx	r5
     2e4:	2200      	movs	r2, #0
     2e6:	23ff      	movs	r3, #255	; 0xff
     2e8:	059b      	lsls	r3, r3, #22
     2ea:	47b8      	blx	r7
     2ec:	4b12      	ldr	r3, [pc, #72]	; (338 <Compute_ADC_RMS+0xf8>)
     2ee:	4798      	blx	r3
     2f0:	c601      	stmia	r6!, {r0}
     2f2:	45b2      	cmp	sl, r6
     2f4:	d1d7      	bne.n	2a6 <Compute_ADC_RMS+0x66>
     2f6:	2000      	movs	r0, #0
     2f8:	b00b      	add	sp, #44	; 0x2c
     2fa:	bc3c      	pop	{r2, r3, r4, r5}
     2fc:	4690      	mov	r8, r2
     2fe:	4699      	mov	r9, r3
     300:	46a2      	mov	sl, r4
     302:	46ab      	mov	fp, r5
     304:	bdf0      	pop	{r4, r5, r6, r7, pc}
     306:	2002      	movs	r0, #2
     308:	e7f6      	b.n	2f8 <Compute_ADC_RMS+0xb8>
     30a:	2002      	movs	r0, #2
     30c:	e7f4      	b.n	2f8 <Compute_ADC_RMS+0xb8>
     30e:	46c0      	nop			; (mov r8, r8)
     310:	00009339 	.word	0x00009339
     314:	00009cc9 	.word	0x00009cc9
     318:	000093fd 	.word	0x000093fd
     31c:	00008dfd 	.word	0x00008dfd
     320:	40e00000 	.word	0x40e00000
     324:	0000bbc9 	.word	0x0000bbc9
     328:	0000afc5 	.word	0x0000afc5
     32c:	00400080 	.word	0x00400080
     330:	3f000020 	.word	0x3f000020
     334:	0000a33d 	.word	0x0000a33d
     338:	0000bc6d 	.word	0x0000bc6d

0000033c <fGetADCtransfertBUffer>:
     33c:	4b08      	ldr	r3, [pc, #32]	; (360 <fGetADCtransfertBUffer+0x24>)
     33e:	681b      	ldr	r3, [r3, #0]
     340:	2b00      	cmp	r3, #0
     342:	d00a      	beq.n	35a <fGetADCtransfertBUffer+0x1e>
     344:	2200      	movs	r2, #0
     346:	4b06      	ldr	r3, [pc, #24]	; (360 <fGetADCtransfertBUffer+0x24>)
     348:	601a      	str	r2, [r3, #0]
     34a:	4b06      	ldr	r3, [pc, #24]	; (364 <fGetADCtransfertBUffer+0x28>)
     34c:	681b      	ldr	r3, [r3, #0]
     34e:	0058      	lsls	r0, r3, #1
     350:	18c0      	adds	r0, r0, r3
     352:	0240      	lsls	r0, r0, #9
     354:	4b04      	ldr	r3, [pc, #16]	; (368 <fGetADCtransfertBUffer+0x2c>)
     356:	1818      	adds	r0, r3, r0
     358:	4770      	bx	lr
     35a:	2000      	movs	r0, #0
     35c:	e7fc      	b.n	358 <fGetADCtransfertBUffer+0x1c>
     35e:	46c0      	nop			; (mov r8, r8)
     360:	20000dd0 	.word	0x20000dd0
     364:	20000dc0 	.word	0x20000dc0
     368:	200001b0 	.word	0x200001b0

0000036c <Compute_ADC_Offset>:
     36c:	b5f0      	push	{r4, r5, r6, r7, lr}
     36e:	46c6      	mov	lr, r8
     370:	b500      	push	{lr}
     372:	b084      	sub	sp, #16
     374:	4b1f      	ldr	r3, [pc, #124]	; (3f4 <Compute_ADC_Offset+0x88>)
     376:	4798      	blx	r3
     378:	2800      	cmp	r0, #0
     37a:	d039      	beq.n	3f0 <Compute_ADC_Offset+0x84>
     37c:	2300      	movs	r3, #0
     37e:	9301      	str	r3, [sp, #4]
     380:	9302      	str	r3, [sp, #8]
     382:	9303      	str	r3, [sp, #12]
     384:	23c0      	movs	r3, #192	; 0xc0
     386:	00db      	lsls	r3, r3, #3
     388:	18c5      	adds	r5, r0, r3
     38a:	ac01      	add	r4, sp, #4
     38c:	e002      	b.n	394 <Compute_ADC_Offset+0x28>
     38e:	3006      	adds	r0, #6
     390:	4285      	cmp	r5, r0
     392:	d00c      	beq.n	3ae <Compute_ADC_Offset+0x42>
     394:	0001      	movs	r1, r0
     396:	2300      	movs	r3, #0
     398:	2600      	movs	r6, #0
     39a:	5f8a      	ldrsh	r2, [r1, r6]
     39c:	591e      	ldr	r6, [r3, r4]
     39e:	46b4      	mov	ip, r6
     3a0:	4462      	add	r2, ip
     3a2:	511a      	str	r2, [r3, r4]
     3a4:	3102      	adds	r1, #2
     3a6:	3304      	adds	r3, #4
     3a8:	2b0c      	cmp	r3, #12
     3aa:	d1f5      	bne.n	398 <Compute_ADC_Offset+0x2c>
     3ac:	e7ef      	b.n	38e <Compute_ADC_Offset+0x22>
     3ae:	2100      	movs	r1, #0
     3b0:	4c11      	ldr	r4, [pc, #68]	; (3f8 <Compute_ADC_Offset+0x8c>)
     3b2:	aa01      	add	r2, sp, #4
     3b4:	26ff      	movs	r6, #255	; 0xff
     3b6:	230f      	movs	r3, #15
     3b8:	4698      	mov	r8, r3
     3ba:	0048      	lsls	r0, r1, #1
     3bc:	5b07      	ldrh	r7, [r0, r4]
     3be:	b23f      	sxth	r7, r7
     3c0:	008b      	lsls	r3, r1, #2
     3c2:	589d      	ldr	r5, [r3, r2]
     3c4:	17eb      	asrs	r3, r5, #31
     3c6:	4033      	ands	r3, r6
     3c8:	195b      	adds	r3, r3, r5
     3ca:	121b      	asrs	r3, r3, #8
     3cc:	013d      	lsls	r5, r7, #4
     3ce:	1bef      	subs	r7, r5, r7
     3d0:	19db      	adds	r3, r3, r7
     3d2:	17df      	asrs	r7, r3, #31
     3d4:	4645      	mov	r5, r8
     3d6:	402f      	ands	r7, r5
     3d8:	18fb      	adds	r3, r7, r3
     3da:	111b      	asrs	r3, r3, #4
     3dc:	b21b      	sxth	r3, r3
     3de:	5303      	strh	r3, [r0, r4]
     3e0:	3101      	adds	r1, #1
     3e2:	2903      	cmp	r1, #3
     3e4:	d1e9      	bne.n	3ba <Compute_ADC_Offset+0x4e>
     3e6:	2000      	movs	r0, #0
     3e8:	b004      	add	sp, #16
     3ea:	bc04      	pop	{r2}
     3ec:	4690      	mov	r8, r2
     3ee:	bdf0      	pop	{r4, r5, r6, r7, pc}
     3f0:	2005      	movs	r0, #5
     3f2:	e7f9      	b.n	3e8 <Compute_ADC_Offset+0x7c>
     3f4:	0000033d 	.word	0x0000033d
     3f8:	200010c0 	.word	0x200010c0

000003fc <GetRMSdata>:
     3fc:	4800      	ldr	r0, [pc, #0]	; (400 <GetRMSdata+0x4>)
     3fe:	4770      	bx	lr
     400:	2000110c 	.word	0x2000110c

00000404 <SetMicIndex>:
     404:	2802      	cmp	r0, #2
     406:	d801      	bhi.n	40c <SetMicIndex+0x8>
     408:	4b02      	ldr	r3, [pc, #8]	; (414 <SetMicIndex+0x10>)
     40a:	6018      	str	r0, [r3, #0]
     40c:	4b01      	ldr	r3, [pc, #4]	; (414 <SetMicIndex+0x10>)
     40e:	6818      	ldr	r0, [r3, #0]
     410:	4770      	bx	lr
     412:	46c0      	nop			; (mov r8, r8)
     414:	20000dc4 	.word	0x20000dc4

00000418 <configure_ADC_trigger>:
     418:	b510      	push	{r4, lr}
     41a:	b090      	sub	sp, #64	; 0x40
     41c:	aa03      	add	r2, sp, #12
     41e:	2300      	movs	r3, #0
     420:	7013      	strb	r3, [r2, #0]
     422:	7093      	strb	r3, [r2, #2]
     424:	2100      	movs	r1, #0
     426:	8093      	strh	r3, [r2, #4]
     428:	8113      	strh	r3, [r2, #8]
     42a:	7051      	strb	r1, [r2, #1]
     42c:	7291      	strb	r1, [r2, #10]
     42e:	72d1      	strb	r1, [r2, #11]
     430:	7311      	strb	r1, [r2, #12]
     432:	7391      	strb	r1, [r2, #14]
     434:	7351      	strb	r1, [r2, #13]
     436:	7411      	strb	r1, [r2, #16]
     438:	6153      	str	r3, [r2, #20]
     43a:	6193      	str	r3, [r2, #24]
     43c:	7711      	strb	r1, [r2, #28]
     43e:	6213      	str	r3, [r2, #32]
     440:	6253      	str	r3, [r2, #36]	; 0x24
     442:	8513      	strh	r3, [r2, #40]	; 0x28
     444:	8593      	strh	r3, [r2, #44]	; 0x2c
     446:	3320      	adds	r3, #32
     448:	7193      	strb	r3, [r2, #6]
     44a:	4b22      	ldr	r3, [pc, #136]	; (4d4 <configure_ADC_trigger+0xbc>)
     44c:	8553      	strh	r3, [r2, #42]	; 0x2a
     44e:	4c22      	ldr	r4, [pc, #136]	; (4d8 <configure_ADC_trigger+0xc0>)
     450:	4922      	ldr	r1, [pc, #136]	; (4dc <configure_ADC_trigger+0xc4>)
     452:	0020      	movs	r0, r4
     454:	4b22      	ldr	r3, [pc, #136]	; (4e0 <configure_ADC_trigger+0xc8>)
     456:	4798      	blx	r3
     458:	6822      	ldr	r2, [r4, #0]
     45a:	ab01      	add	r3, sp, #4
     45c:	7919      	ldrb	r1, [r3, #4]
     45e:	1e4b      	subs	r3, r1, #1
     460:	4199      	sbcs	r1, r3
     462:	0109      	lsls	r1, r1, #4
     464:	ab01      	add	r3, sp, #4
     466:	78db      	ldrb	r3, [r3, #3]
     468:	2b00      	cmp	r3, #0
     46a:	d001      	beq.n	470 <configure_ADC_trigger+0x58>
     46c:	2320      	movs	r3, #32
     46e:	4319      	orrs	r1, r3
     470:	2080      	movs	r0, #128	; 0x80
     472:	0040      	lsls	r0, r0, #1
     474:	4308      	orrs	r0, r1
     476:	ab01      	add	r3, sp, #4
     478:	781b      	ldrb	r3, [r3, #0]
     47a:	2b00      	cmp	r3, #0
     47c:	d002      	beq.n	484 <configure_ADC_trigger+0x6c>
     47e:	2088      	movs	r0, #136	; 0x88
     480:	0140      	lsls	r0, r0, #5
     482:	4308      	orrs	r0, r1
     484:	ab01      	add	r3, sp, #4
     486:	785b      	ldrb	r3, [r3, #1]
     488:	2b00      	cmp	r3, #0
     48a:	d002      	beq.n	492 <configure_ADC_trigger+0x7a>
     48c:	2380      	movs	r3, #128	; 0x80
     48e:	019b      	lsls	r3, r3, #6
     490:	4318      	orrs	r0, r3
     492:	8953      	ldrh	r3, [r2, #10]
     494:	a901      	add	r1, sp, #4
     496:	7949      	ldrb	r1, [r1, #5]
     498:	430b      	orrs	r3, r1
     49a:	4303      	orrs	r3, r0
     49c:	b29b      	uxth	r3, r3
     49e:	8153      	strh	r3, [r2, #10]
     4a0:	7bd3      	ldrb	r3, [r2, #15]
     4a2:	b25b      	sxtb	r3, r3
     4a4:	2b00      	cmp	r3, #0
     4a6:	dbfb      	blt.n	4a0 <configure_ADC_trigger+0x88>
     4a8:	8813      	ldrh	r3, [r2, #0]
     4aa:	2102      	movs	r1, #2
     4ac:	430b      	orrs	r3, r1
     4ae:	8013      	strh	r3, [r2, #0]
     4b0:	ab03      	add	r3, sp, #12
     4b2:	8d58      	ldrh	r0, [r3, #42]	; 0x2a
     4b4:	4b0b      	ldr	r3, [pc, #44]	; (4e4 <configure_ADC_trigger+0xcc>)
     4b6:	4798      	blx	r3
     4b8:	490b      	ldr	r1, [pc, #44]	; (4e8 <configure_ADC_trigger+0xd0>)
     4ba:	4b0c      	ldr	r3, [pc, #48]	; (4ec <configure_ADC_trigger+0xd4>)
     4bc:	4798      	blx	r3
     4be:	4b0c      	ldr	r3, [pc, #48]	; (4f0 <configure_ADC_trigger+0xd8>)
     4c0:	4798      	blx	r3
     4c2:	4b0c      	ldr	r3, [pc, #48]	; (4f4 <configure_ADC_trigger+0xdc>)
     4c4:	6018      	str	r0, [r3, #0]
     4c6:	4b0c      	ldr	r3, [pc, #48]	; (4f8 <configure_ADC_trigger+0xe0>)
     4c8:	4798      	blx	r3
     4ca:	4b0c      	ldr	r3, [pc, #48]	; (4fc <configure_ADC_trigger+0xe4>)
     4cc:	6018      	str	r0, [r3, #0]
     4ce:	b010      	add	sp, #64	; 0x40
     4d0:	bd10      	pop	{r4, pc}
     4d2:	46c0      	nop			; (mov r8, r8)
     4d4:	000003e7 	.word	0x000003e7
     4d8:	20001134 	.word	0x20001134
     4dc:	42002c00 	.word	0x42002c00
     4e0:	0000492d 	.word	0x0000492d
     4e4:	0000a2b1 	.word	0x0000a2b1
     4e8:	3ca3d70a 	.word	0x3ca3d70a
     4ec:	00009cc9 	.word	0x00009cc9
     4f0:	000093cd 	.word	0x000093cd
     4f4:	20000db0 	.word	0x20000db0
     4f8:	00002bf5 	.word	0x00002bf5
     4fc:	20000db4 	.word	0x20000db4

00000500 <configure_ADC_dma_resource>:
     500:	b510      	push	{r4, lr}
     502:	b082      	sub	sp, #8
     504:	0004      	movs	r4, r0
     506:	4668      	mov	r0, sp
     508:	4b07      	ldr	r3, [pc, #28]	; (528 <configure_ADC_dma_resource+0x28>)
     50a:	4798      	blx	r3
     50c:	2327      	movs	r3, #39	; 0x27
     50e:	466a      	mov	r2, sp
     510:	7053      	strb	r3, [r2, #1]
     512:	3b25      	subs	r3, #37	; 0x25
     514:	7093      	strb	r3, [r2, #2]
     516:	2300      	movs	r3, #0
     518:	7013      	strb	r3, [r2, #0]
     51a:	4669      	mov	r1, sp
     51c:	0020      	movs	r0, r4
     51e:	4b03      	ldr	r3, [pc, #12]	; (52c <configure_ADC_dma_resource+0x2c>)
     520:	4798      	blx	r3
     522:	b002      	add	sp, #8
     524:	bd10      	pop	{r4, pc}
     526:	46c0      	nop			; (mov r8, r8)
     528:	0000123d 	.word	0x0000123d
     52c:	0000124d 	.word	0x0000124d

00000530 <setup_ADC_DMA_transfer_descriptor>:
     530:	b500      	push	{lr}
     532:	b087      	sub	sp, #28
     534:	2201      	movs	r2, #1
     536:	466b      	mov	r3, sp
     538:	701a      	strb	r2, [r3, #0]
     53a:	2300      	movs	r3, #0
     53c:	4669      	mov	r1, sp
     53e:	704b      	strb	r3, [r1, #1]
     540:	708b      	strb	r3, [r1, #2]
     542:	714a      	strb	r2, [r1, #5]
     544:	718b      	strb	r3, [r1, #6]
     546:	71cb      	strb	r3, [r1, #7]
     548:	9305      	str	r3, [sp, #20]
     54a:	70ca      	strb	r2, [r1, #3]
     54c:	710b      	strb	r3, [r1, #4]
     54e:	23c0      	movs	r3, #192	; 0xc0
     550:	009b      	lsls	r3, r3, #2
     552:	810b      	strh	r3, [r1, #8]
     554:	4b06      	ldr	r3, [pc, #24]	; (570 <setup_ADC_DMA_transfer_descriptor+0x40>)
     556:	681b      	ldr	r3, [r3, #0]
     558:	331a      	adds	r3, #26
     55a:	9303      	str	r3, [sp, #12]
     55c:	4b05      	ldr	r3, [pc, #20]	; (574 <setup_ADC_DMA_transfer_descriptor+0x44>)
     55e:	22c0      	movs	r2, #192	; 0xc0
     560:	00d2      	lsls	r2, r2, #3
     562:	4694      	mov	ip, r2
     564:	4463      	add	r3, ip
     566:	9304      	str	r3, [sp, #16]
     568:	4b03      	ldr	r3, [pc, #12]	; (578 <setup_ADC_DMA_transfer_descriptor+0x48>)
     56a:	4798      	blx	r3
     56c:	b007      	add	sp, #28
     56e:	bd00      	pop	{pc}
     570:	20001150 	.word	0x20001150
     574:	200001b0 	.word	0x200001b0
     578:	000014d1 	.word	0x000014d1

0000057c <configure_ADC_dma>:
     57c:	b570      	push	{r4, r5, r6, lr}
     57e:	4c0f      	ldr	r4, [pc, #60]	; (5bc <configure_ADC_dma+0x40>)
     580:	0020      	movs	r0, r4
     582:	4b0f      	ldr	r3, [pc, #60]	; (5c0 <configure_ADC_dma+0x44>)
     584:	4798      	blx	r3
     586:	4d0f      	ldr	r5, [pc, #60]	; (5c4 <configure_ADC_dma+0x48>)
     588:	0028      	movs	r0, r5
     58a:	4b0f      	ldr	r3, [pc, #60]	; (5c8 <configure_ADC_dma+0x4c>)
     58c:	4798      	blx	r3
     58e:	0029      	movs	r1, r5
     590:	0020      	movs	r0, r4
     592:	4b0e      	ldr	r3, [pc, #56]	; (5cc <configure_ADC_dma+0x50>)
     594:	4798      	blx	r3
     596:	4b0e      	ldr	r3, [pc, #56]	; (5d0 <configure_ADC_dma+0x54>)
     598:	60a3      	str	r3, [r4, #8]
     59a:	2002      	movs	r0, #2
     59c:	7c22      	ldrb	r2, [r4, #16]
     59e:	4302      	orrs	r2, r0
     5a0:	7422      	strb	r2, [r4, #16]
     5a2:	7822      	ldrb	r2, [r4, #0]
     5a4:	490b      	ldr	r1, [pc, #44]	; (5d4 <configure_ADC_dma+0x58>)
     5a6:	5c8b      	ldrb	r3, [r1, r2]
     5a8:	4303      	orrs	r3, r0
     5aa:	548b      	strb	r3, [r1, r2]
     5ac:	0020      	movs	r0, r4
     5ae:	4b0a      	ldr	r3, [pc, #40]	; (5d8 <configure_ADC_dma+0x5c>)
     5b0:	4798      	blx	r3
     5b2:	4b0a      	ldr	r3, [pc, #40]	; (5dc <configure_ADC_dma+0x60>)
     5b4:	4798      	blx	r3
     5b6:	4b0a      	ldr	r3, [pc, #40]	; (5e0 <configure_ADC_dma+0x64>)
     5b8:	6018      	str	r0, [r3, #0]
     5ba:	bd70      	pop	{r4, r5, r6, pc}
     5bc:	20001118 	.word	0x20001118
     5c0:	00000501 	.word	0x00000501
     5c4:	200010d0 	.word	0x200010d0
     5c8:	00000531 	.word	0x00000531
     5cc:	00001579 	.word	0x00001579
     5d0:	0000013d 	.word	0x0000013d
     5d4:	20000e40 	.word	0x20000e40
     5d8:	00001395 	.word	0x00001395
     5dc:	00002bf5 	.word	0x00002bf5
     5e0:	20000db0 	.word	0x20000db0

000005e4 <configure_adc>:
     5e4:	b510      	push	{r4, lr}
     5e6:	b08c      	sub	sp, #48	; 0x30
     5e8:	4668      	mov	r0, sp
     5ea:	4b30      	ldr	r3, [pc, #192]	; (6ac <configure_adc+0xc8>)
     5ec:	4798      	blx	r3
     5ee:	2103      	movs	r1, #3
     5f0:	466b      	mov	r3, sp
     5f2:	7019      	strb	r1, [r3, #0]
     5f4:	2300      	movs	r3, #0
     5f6:	466a      	mov	r2, sp
     5f8:	7053      	strb	r3, [r2, #1]
     5fa:	2201      	movs	r2, #1
     5fc:	4668      	mov	r0, sp
     5fe:	74c2      	strb	r2, [r0, #19]
     600:	9302      	str	r3, [sp, #8]
     602:	8043      	strh	r3, [r0, #2]
     604:	3302      	adds	r3, #2
     606:	75c3      	strb	r3, [r0, #23]
     608:	7303      	strb	r3, [r0, #12]
     60a:	2080      	movs	r0, #128	; 0x80
     60c:	0040      	lsls	r0, r0, #1
     60e:	466c      	mov	r4, sp
     610:	81e0      	strh	r0, [r4, #14]
     612:	2000      	movs	r0, #0
     614:	7120      	strb	r0, [r4, #4]
     616:	7423      	strb	r3, [r4, #16]
     618:	7463      	strb	r3, [r4, #17]
     61a:	332a      	adds	r3, #42	; 0x2a
     61c:	54e1      	strb	r1, [r4, r3]
     61e:	3b01      	subs	r3, #1
     620:	2100      	movs	r1, #0
     622:	54e1      	strb	r1, [r4, r3]
     624:	74a2      	strb	r2, [r4, #18]
     626:	232a      	movs	r3, #42	; 0x2a
     628:	54e2      	strb	r2, [r4, r3]
     62a:	4c21      	ldr	r4, [pc, #132]	; (6b0 <configure_adc+0xcc>)
     62c:	466a      	mov	r2, sp
     62e:	0021      	movs	r1, r4
     630:	4820      	ldr	r0, [pc, #128]	; (6b4 <configure_adc+0xd0>)
     632:	4b21      	ldr	r3, [pc, #132]	; (6b8 <configure_adc+0xd4>)
     634:	4798      	blx	r3
     636:	78a3      	ldrb	r3, [r4, #2]
     638:	2270      	movs	r2, #112	; 0x70
     63a:	4393      	bics	r3, r2
     63c:	2220      	movs	r2, #32
     63e:	4313      	orrs	r3, r2
     640:	70a3      	strb	r3, [r4, #2]
     642:	78a3      	ldrb	r3, [r4, #2]
     644:	220f      	movs	r2, #15
     646:	4393      	bics	r3, r2
     648:	2202      	movs	r2, #2
     64a:	4313      	orrs	r3, r2
     64c:	70a3      	strb	r3, [r4, #2]
     64e:	4b1b      	ldr	r3, [pc, #108]	; (6bc <configure_adc+0xd8>)
     650:	785b      	ldrb	r3, [r3, #1]
     652:	071b      	lsls	r3, r3, #28
     654:	0f1b      	lsrs	r3, r3, #28
     656:	2b03      	cmp	r3, #3
     658:	dd05      	ble.n	666 <configure_adc+0x82>
     65a:	4b16      	ldr	r3, [pc, #88]	; (6b4 <configure_adc+0xd0>)
     65c:	681a      	ldr	r2, [r3, #0]
     65e:	7893      	ldrb	r3, [r2, #2]
     660:	2170      	movs	r1, #112	; 0x70
     662:	438b      	bics	r3, r1
     664:	7093      	strb	r3, [r2, #2]
     666:	4b13      	ldr	r3, [pc, #76]	; (6b4 <configure_adc+0xd0>)
     668:	681a      	ldr	r2, [r3, #0]
     66a:	7e53      	ldrb	r3, [r2, #25]
     66c:	b25b      	sxtb	r3, r3
     66e:	2b00      	cmp	r3, #0
     670:	dbfb      	blt.n	66a <configure_adc+0x86>
     672:	2180      	movs	r1, #128	; 0x80
     674:	0409      	lsls	r1, r1, #16
     676:	4b12      	ldr	r3, [pc, #72]	; (6c0 <configure_adc+0xdc>)
     678:	6019      	str	r1, [r3, #0]
     67a:	230f      	movs	r3, #15
     67c:	7593      	strb	r3, [r2, #22]
     67e:	7613      	strb	r3, [r2, #24]
     680:	7813      	ldrb	r3, [r2, #0]
     682:	2102      	movs	r1, #2
     684:	430b      	orrs	r3, r1
     686:	7013      	strb	r3, [r2, #0]
     688:	4b0a      	ldr	r3, [pc, #40]	; (6b4 <configure_adc+0xd0>)
     68a:	681a      	ldr	r2, [r3, #0]
     68c:	7e53      	ldrb	r3, [r2, #25]
     68e:	b25b      	sxtb	r3, r3
     690:	2b00      	cmp	r3, #0
     692:	dbfb      	blt.n	68c <configure_adc+0xa8>
     694:	2206      	movs	r2, #6
     696:	2100      	movs	r1, #0
     698:	480a      	ldr	r0, [pc, #40]	; (6c4 <configure_adc+0xe0>)
     69a:	4c0b      	ldr	r4, [pc, #44]	; (6c8 <configure_adc+0xe4>)
     69c:	47a0      	blx	r4
     69e:	220c      	movs	r2, #12
     6a0:	2100      	movs	r1, #0
     6a2:	480a      	ldr	r0, [pc, #40]	; (6cc <configure_adc+0xe8>)
     6a4:	47a0      	blx	r4
     6a6:	b00c      	add	sp, #48	; 0x30
     6a8:	bd10      	pop	{r4, pc}
     6aa:	46c0      	nop			; (mov r8, r8)
     6ac:	00000a57 	.word	0x00000a57
     6b0:	42004000 	.word	0x42004000
     6b4:	20001150 	.word	0x20001150
     6b8:	00000a9d 	.word	0x00000a9d
     6bc:	41002018 	.word	0x41002018
     6c0:	e000e100 	.word	0xe000e100
     6c4:	200010c0 	.word	0x200010c0
     6c8:	0000bdff 	.word	0x0000bdff
     6cc:	2000110c 	.word	0x2000110c

000006d0 <configure_adc_trigger_event>:
     6d0:	b530      	push	{r4, r5, lr}
     6d2:	b083      	sub	sp, #12
     6d4:	ac01      	add	r4, sp, #4
     6d6:	0020      	movs	r0, r4
     6d8:	4b09      	ldr	r3, [pc, #36]	; (700 <configure_adc_trigger_event+0x30>)
     6da:	4798      	blx	r3
     6dc:	2334      	movs	r3, #52	; 0x34
     6de:	70a3      	strb	r3, [r4, #2]
     6e0:	2300      	movs	r3, #0
     6e2:	7023      	strb	r3, [r4, #0]
     6e4:	2202      	movs	r2, #2
     6e6:	7062      	strb	r2, [r4, #1]
     6e8:	70e3      	strb	r3, [r4, #3]
     6ea:	4d06      	ldr	r5, [pc, #24]	; (704 <configure_adc_trigger_event+0x34>)
     6ec:	0021      	movs	r1, r4
     6ee:	0028      	movs	r0, r5
     6f0:	4b05      	ldr	r3, [pc, #20]	; (708 <configure_adc_trigger_event+0x38>)
     6f2:	4798      	blx	r3
     6f4:	2117      	movs	r1, #23
     6f6:	0028      	movs	r0, r5
     6f8:	4b04      	ldr	r3, [pc, #16]	; (70c <configure_adc_trigger_event+0x3c>)
     6fa:	4798      	blx	r3
     6fc:	b003      	add	sp, #12
     6fe:	bd30      	pop	{r4, r5, pc}
     700:	000036d5 	.word	0x000036d5
     704:	20001104 	.word	0x20001104
     708:	000036e5 	.word	0x000036e5
     70c:	00003795 	.word	0x00003795

00000710 <configure_dac>:
     710:	b500      	push	{lr}
     712:	b083      	sub	sp, #12
     714:	4668      	mov	r0, sp
     716:	4b0a      	ldr	r3, [pc, #40]	; (740 <configure_dac+0x30>)
     718:	4798      	blx	r3
     71a:	2303      	movs	r3, #3
     71c:	466a      	mov	r2, sp
     71e:	70d3      	strb	r3, [r2, #3]
     720:	333d      	adds	r3, #61	; 0x3d
     722:	7013      	strb	r3, [r2, #0]
     724:	3b3f      	subs	r3, #63	; 0x3f
     726:	7053      	strb	r3, [r2, #1]
     728:	7113      	strb	r3, [r2, #4]
     72a:	7093      	strb	r3, [r2, #2]
     72c:	4905      	ldr	r1, [pc, #20]	; (744 <configure_dac+0x34>)
     72e:	4806      	ldr	r0, [pc, #24]	; (748 <configure_dac+0x38>)
     730:	4b06      	ldr	r3, [pc, #24]	; (74c <configure_dac+0x3c>)
     732:	4798      	blx	r3
     734:	4b06      	ldr	r3, [pc, #24]	; (750 <configure_dac+0x40>)
     736:	4798      	blx	r3
     738:	4b06      	ldr	r3, [pc, #24]	; (754 <configure_dac+0x44>)
     73a:	6018      	str	r0, [r3, #0]
     73c:	b003      	add	sp, #12
     73e:	bd00      	pop	{pc}
     740:	00000f8d 	.word	0x00000f8d
     744:	42004800 	.word	0x42004800
     748:	200010e0 	.word	0x200010e0
     74c:	00000fa1 	.word	0x00000fa1
     750:	00002bf5 	.word	0x00002bf5
     754:	20000dcc 	.word	0x20000dcc

00000758 <configure_dac_channel>:
     758:	b510      	push	{r4, lr}
     75a:	4c07      	ldr	r4, [pc, #28]	; (778 <configure_dac_channel+0x20>)
     75c:	2100      	movs	r1, #0
     75e:	0020      	movs	r0, r4
     760:	4b06      	ldr	r3, [pc, #24]	; (77c <configure_dac_channel+0x24>)
     762:	4798      	blx	r3
     764:	0020      	movs	r0, r4
     766:	4b06      	ldr	r3, [pc, #24]	; (780 <configure_dac_channel+0x28>)
     768:	4798      	blx	r3
     76a:	2280      	movs	r2, #128	; 0x80
     76c:	0212      	lsls	r2, r2, #8
     76e:	2100      	movs	r1, #0
     770:	0020      	movs	r0, r4
     772:	4b04      	ldr	r3, [pc, #16]	; (784 <configure_dac_channel+0x2c>)
     774:	4798      	blx	r3
     776:	bd10      	pop	{r4, pc}
     778:	200010e0 	.word	0x200010e0
     77c:	000010ad 	.word	0x000010ad
     780:	00001071 	.word	0x00001071
     784:	000010b9 	.word	0x000010b9

00000788 <configure_ac>:
     788:	b570      	push	{r4, r5, r6, lr}
     78a:	b088      	sub	sp, #32
     78c:	aa07      	add	r2, sp, #28
     78e:	2500      	movs	r5, #0
     790:	7015      	strb	r5, [r2, #0]
     792:	7055      	strb	r5, [r2, #1]
     794:	2303      	movs	r3, #3
     796:	7093      	strb	r3, [r2, #2]
     798:	4e24      	ldr	r6, [pc, #144]	; (82c <configure_ac+0xa4>)
     79a:	4925      	ldr	r1, [pc, #148]	; (830 <configure_ac+0xa8>)
     79c:	0030      	movs	r0, r6
     79e:	4b25      	ldr	r3, [pc, #148]	; (834 <configure_ac+0xac>)
     7a0:	4798      	blx	r3
     7a2:	ac01      	add	r4, sp, #4
     7a4:	7025      	strb	r5, [r4, #0]
     7a6:	2301      	movs	r3, #1
     7a8:	7223      	strb	r3, [r4, #8]
     7aa:	9504      	str	r5, [sp, #16]
     7ac:	22a0      	movs	r2, #160	; 0xa0
     7ae:	00d2      	lsls	r2, r2, #3
     7b0:	8262      	strh	r2, [r4, #18]
     7b2:	2280      	movs	r2, #128	; 0x80
     7b4:	0152      	lsls	r2, r2, #5
     7b6:	8222      	strh	r2, [r4, #16]
     7b8:	2210      	movs	r2, #16
     7ba:	7522      	strb	r2, [r4, #20]
     7bc:	3210      	adds	r2, #16
     7be:	7562      	strb	r2, [r4, #21]
     7c0:	2280      	movs	r2, #128	; 0x80
     7c2:	0452      	lsls	r2, r2, #17
     7c4:	9202      	str	r2, [sp, #8]
     7c6:	466a      	mov	r2, sp
     7c8:	7055      	strb	r5, [r2, #1]
     7ca:	7093      	strb	r3, [r2, #2]
     7cc:	70d5      	strb	r5, [r2, #3]
     7ce:	7013      	strb	r3, [r2, #0]
     7d0:	4669      	mov	r1, sp
     7d2:	2005      	movs	r0, #5
     7d4:	4b18      	ldr	r3, [pc, #96]	; (838 <configure_ac+0xb0>)
     7d6:	4798      	blx	r3
     7d8:	0022      	movs	r2, r4
     7da:	2100      	movs	r1, #0
     7dc:	0030      	movs	r0, r6
     7de:	4b17      	ldr	r3, [pc, #92]	; (83c <configure_ac+0xb4>)
     7e0:	4798      	blx	r3
     7e2:	6832      	ldr	r2, [r6, #0]
     7e4:	7a53      	ldrb	r3, [r2, #9]
     7e6:	b25b      	sxtb	r3, r3
     7e8:	2b00      	cmp	r3, #0
     7ea:	dbfb      	blt.n	7e4 <configure_ac+0x5c>
     7ec:	6913      	ldr	r3, [r2, #16]
     7ee:	2501      	movs	r5, #1
     7f0:	432b      	orrs	r3, r5
     7f2:	6113      	str	r3, [r2, #16]
     7f4:	4c0d      	ldr	r4, [pc, #52]	; (82c <configure_ac+0xa4>)
     7f6:	2200      	movs	r2, #0
     7f8:	4911      	ldr	r1, [pc, #68]	; (840 <configure_ac+0xb8>)
     7fa:	0020      	movs	r0, r4
     7fc:	4b11      	ldr	r3, [pc, #68]	; (844 <configure_ac+0xbc>)
     7fe:	4798      	blx	r3
     800:	7e63      	ldrb	r3, [r4, #25]
     802:	2201      	movs	r2, #1
     804:	4313      	orrs	r3, r2
     806:	7663      	strb	r3, [r4, #25]
     808:	6823      	ldr	r3, [r4, #0]
     80a:	715d      	strb	r5, [r3, #5]
     80c:	2280      	movs	r2, #128	; 0x80
     80e:	0452      	lsls	r2, r2, #17
     810:	4b0d      	ldr	r3, [pc, #52]	; (848 <configure_ac+0xc0>)
     812:	601a      	str	r2, [r3, #0]
     814:	6822      	ldr	r2, [r4, #0]
     816:	7a53      	ldrb	r3, [r2, #9]
     818:	b25b      	sxtb	r3, r3
     81a:	2b00      	cmp	r3, #0
     81c:	dbfb      	blt.n	816 <configure_ac+0x8e>
     81e:	7813      	ldrb	r3, [r2, #0]
     820:	2102      	movs	r1, #2
     822:	430b      	orrs	r3, r1
     824:	7013      	strb	r3, [r2, #0]
     826:	b008      	add	sp, #32
     828:	bd70      	pop	{r4, r5, r6, pc}
     82a:	46c0      	nop			; (mov r8, r8)
     82c:	2000018c 	.word	0x2000018c
     830:	42004400 	.word	0x42004400
     834:	0000097d 	.word	0x0000097d
     838:	00008acd 	.word	0x00008acd
     83c:	00000a11 	.word	0x00000a11
     840:	00000115 	.word	0x00000115
     844:	000073c9 	.word	0x000073c9
     848:	e000e100 	.word	0xe000e100

0000084c <SetDACReference>:
     84c:	2301      	movs	r3, #1
     84e:	4003      	ands	r3, r0
     850:	4a03      	ldr	r2, [pc, #12]	; (860 <SetDACReference+0x14>)
     852:	7851      	ldrb	r1, [r2, #1]
     854:	019b      	lsls	r3, r3, #6
     856:	203f      	movs	r0, #63	; 0x3f
     858:	4008      	ands	r0, r1
     85a:	4318      	orrs	r0, r3
     85c:	7050      	strb	r0, [r2, #1]
     85e:	4770      	bx	lr
     860:	42004800 	.word	0x42004800

00000864 <SetAdcReference>:
     864:	2802      	cmp	r0, #2
     866:	d802      	bhi.n	86e <SetAdcReference+0xa>
     868:	b2c0      	uxtb	r0, r0
     86a:	4b01      	ldr	r3, [pc, #4]	; (870 <SetAdcReference+0xc>)
     86c:	7058      	strb	r0, [r3, #1]
     86e:	4770      	bx	lr
     870:	42004000 	.word	0x42004000

00000874 <SetRMSorMEAN>:
     874:	4b01      	ldr	r3, [pc, #4]	; (87c <SetRMSorMEAN+0x8>)
     876:	6018      	str	r0, [r3, #0]
     878:	4770      	bx	lr
     87a:	46c0      	nop			; (mov r8, r8)
     87c:	20000db8 	.word	0x20000db8

00000880 <Check_ADCDMA>:
     880:	4b06      	ldr	r3, [pc, #24]	; (89c <Check_ADCDMA+0x1c>)
     882:	781a      	ldrb	r2, [r3, #0]
     884:	4b06      	ldr	r3, [pc, #24]	; (8a0 <Check_ADCDMA+0x20>)
     886:	214d      	movs	r1, #77	; 0x4d
     888:	545a      	strb	r2, [r3, r1]
     88a:	3102      	adds	r1, #2
     88c:	5c5b      	ldrb	r3, [r3, r1]
     88e:	07db      	lsls	r3, r3, #31
     890:	d403      	bmi.n	89a <Check_ADCDMA+0x1a>
     892:	2301      	movs	r3, #1
     894:	4093      	lsls	r3, r2
     896:	4a02      	ldr	r2, [pc, #8]	; (8a0 <Check_ADCDMA+0x20>)
     898:	6113      	str	r3, [r2, #16]
     89a:	4770      	bx	lr
     89c:	20001118 	.word	0x20001118
     8a0:	41004800 	.word	0x41004800

000008a4 <AnalogRuntime>:
     8a4:	b510      	push	{r4, lr}
     8a6:	4b26      	ldr	r3, [pc, #152]	; (940 <AnalogRuntime+0x9c>)
     8a8:	681c      	ldr	r4, [r3, #0]
     8aa:	4b26      	ldr	r3, [pc, #152]	; (944 <AnalogRuntime+0xa0>)
     8ac:	4798      	blx	r3
     8ae:	0001      	movs	r1, r0
     8b0:	0020      	movs	r0, r4
     8b2:	4b25      	ldr	r3, [pc, #148]	; (948 <AnalogRuntime+0xa4>)
     8b4:	4798      	blx	r3
     8b6:	4b25      	ldr	r3, [pc, #148]	; (94c <AnalogRuntime+0xa8>)
     8b8:	681b      	ldr	r3, [r3, #0]
     8ba:	4298      	cmp	r0, r3
     8bc:	d80a      	bhi.n	8d4 <AnalogRuntime+0x30>
     8be:	4b24      	ldr	r3, [pc, #144]	; (950 <AnalogRuntime+0xac>)
     8c0:	681b      	ldr	r3, [r3, #0]
     8c2:	2b00      	cmp	r3, #0
     8c4:	d00d      	beq.n	8e2 <AnalogRuntime+0x3e>
     8c6:	4b23      	ldr	r3, [pc, #140]	; (954 <AnalogRuntime+0xb0>)
     8c8:	4798      	blx	r3
     8ca:	4b23      	ldr	r3, [pc, #140]	; (958 <AnalogRuntime+0xb4>)
     8cc:	681b      	ldr	r3, [r3, #0]
     8ce:	2b00      	cmp	r3, #0
     8d0:	d10f      	bne.n	8f2 <AnalogRuntime+0x4e>
     8d2:	bd10      	pop	{r4, pc}
     8d4:	4b21      	ldr	r3, [pc, #132]	; (95c <AnalogRuntime+0xb8>)
     8d6:	4798      	blx	r3
     8d8:	4b1a      	ldr	r3, [pc, #104]	; (944 <AnalogRuntime+0xa0>)
     8da:	4798      	blx	r3
     8dc:	4b18      	ldr	r3, [pc, #96]	; (940 <AnalogRuntime+0x9c>)
     8de:	6018      	str	r0, [r3, #0]
     8e0:	e7ed      	b.n	8be <AnalogRuntime+0x1a>
     8e2:	4b1f      	ldr	r3, [pc, #124]	; (960 <AnalogRuntime+0xbc>)
     8e4:	4798      	blx	r3
     8e6:	4a1f      	ldr	r2, [pc, #124]	; (964 <AnalogRuntime+0xc0>)
     8e8:	2180      	movs	r1, #128	; 0x80
     8ea:	0049      	lsls	r1, r1, #1
     8ec:	4b1e      	ldr	r3, [pc, #120]	; (968 <AnalogRuntime+0xc4>)
     8ee:	4798      	blx	r3
     8f0:	e7eb      	b.n	8ca <AnalogRuntime+0x26>
     8f2:	4b1e      	ldr	r3, [pc, #120]	; (96c <AnalogRuntime+0xc8>)
     8f4:	681c      	ldr	r4, [r3, #0]
     8f6:	4b13      	ldr	r3, [pc, #76]	; (944 <AnalogRuntime+0xa0>)
     8f8:	4798      	blx	r3
     8fa:	0001      	movs	r1, r0
     8fc:	0020      	movs	r0, r4
     8fe:	4b12      	ldr	r3, [pc, #72]	; (948 <AnalogRuntime+0xa4>)
     900:	4798      	blx	r3
     902:	4b1b      	ldr	r3, [pc, #108]	; (970 <AnalogRuntime+0xcc>)
     904:	681b      	ldr	r3, [r3, #0]
     906:	4298      	cmp	r0, r3
     908:	d9e3      	bls.n	8d2 <AnalogRuntime+0x2e>
     90a:	2240      	movs	r2, #64	; 0x40
     90c:	4b19      	ldr	r3, [pc, #100]	; (974 <AnalogRuntime+0xd0>)
     90e:	619a      	str	r2, [r3, #24]
     910:	4b11      	ldr	r3, [pc, #68]	; (958 <AnalogRuntime+0xb4>)
     912:	681b      	ldr	r3, [r3, #0]
     914:	2b02      	cmp	r3, #2
     916:	d808      	bhi.n	92a <AnalogRuntime+0x86>
     918:	4a0f      	ldr	r2, [pc, #60]	; (958 <AnalogRuntime+0xb4>)
     91a:	6813      	ldr	r3, [r2, #0]
     91c:	3301      	adds	r3, #1
     91e:	6013      	str	r3, [r2, #0]
     920:	4b08      	ldr	r3, [pc, #32]	; (944 <AnalogRuntime+0xa0>)
     922:	4798      	blx	r3
     924:	4b11      	ldr	r3, [pc, #68]	; (96c <AnalogRuntime+0xc8>)
     926:	6018      	str	r0, [r3, #0]
     928:	e7d3      	b.n	8d2 <AnalogRuntime+0x2e>
     92a:	4b0b      	ldr	r3, [pc, #44]	; (958 <AnalogRuntime+0xb4>)
     92c:	681b      	ldr	r3, [r3, #0]
     92e:	2b09      	cmp	r3, #9
     930:	d8f6      	bhi.n	920 <AnalogRuntime+0x7c>
     932:	4a11      	ldr	r2, [pc, #68]	; (978 <AnalogRuntime+0xd4>)
     934:	4b0e      	ldr	r3, [pc, #56]	; (970 <AnalogRuntime+0xcc>)
     936:	601a      	str	r2, [r3, #0]
     938:	2200      	movs	r2, #0
     93a:	4b07      	ldr	r3, [pc, #28]	; (958 <AnalogRuntime+0xb4>)
     93c:	601a      	str	r2, [r3, #0]
     93e:	e7ef      	b.n	920 <AnalogRuntime+0x7c>
     940:	20000db4 	.word	0x20000db4
     944:	00002bf5 	.word	0x00002bf5
     948:	00002c01 	.word	0x00002c01
     94c:	20000db0 	.word	0x20000db0
     950:	20000db8 	.word	0x20000db8
     954:	0000036d 	.word	0x0000036d
     958:	20000dc8 	.word	0x20000dc8
     95c:	00000881 	.word	0x00000881
     960:	0000033d 	.word	0x0000033d
     964:	2000110c 	.word	0x2000110c
     968:	00000241 	.word	0x00000241
     96c:	20000dcc 	.word	0x20000dcc
     970:	20000008 	.word	0x20000008
     974:	41004400 	.word	0x41004400
     978:	0000270f 	.word	0x0000270f

0000097c <ac_init>:
     97c:	b5f0      	push	{r4, r5, r6, r7, lr}
     97e:	46c6      	mov	lr, r8
     980:	b500      	push	{lr}
     982:	b082      	sub	sp, #8
     984:	0004      	movs	r4, r0
     986:	0015      	movs	r5, r2
     988:	6001      	str	r1, [r0, #0]
     98a:	2200      	movs	r2, #0
     98c:	ab01      	add	r3, sp, #4
     98e:	701a      	strb	r2, [r3, #0]
     990:	4b1a      	ldr	r3, [pc, #104]	; (9fc <ac_init+0x80>)
     992:	4299      	cmp	r1, r3
     994:	d019      	beq.n	9ca <ac_init+0x4e>
     996:	2300      	movs	r3, #0
     998:	6063      	str	r3, [r4, #4]
     99a:	60a3      	str	r3, [r4, #8]
     99c:	60e3      	str	r3, [r4, #12]
     99e:	6123      	str	r3, [r4, #16]
     9a0:	6163      	str	r3, [r4, #20]
     9a2:	7623      	strb	r3, [r4, #24]
     9a4:	7663      	strb	r3, [r4, #25]
     9a6:	4b16      	ldr	r3, [pc, #88]	; (a00 <ac_init+0x84>)
     9a8:	601c      	str	r4, [r3, #0]
     9aa:	6821      	ldr	r1, [r4, #0]
     9ac:	782b      	ldrb	r3, [r5, #0]
     9ae:	1e5a      	subs	r2, r3, #1
     9b0:	4193      	sbcs	r3, r2
     9b2:	009a      	lsls	r2, r3, #2
     9b4:	7a4b      	ldrb	r3, [r1, #9]
     9b6:	b25b      	sxtb	r3, r3
     9b8:	2b00      	cmp	r3, #0
     9ba:	dbfb      	blt.n	9b4 <ac_init+0x38>
     9bc:	b2d2      	uxtb	r2, r2
     9be:	700a      	strb	r2, [r1, #0]
     9c0:	2000      	movs	r0, #0
     9c2:	b002      	add	sp, #8
     9c4:	bc04      	pop	{r2}
     9c6:	4690      	mov	r8, r2
     9c8:	bdf0      	pop	{r4, r5, r6, r7, pc}
     9ca:	4a0e      	ldr	r2, [pc, #56]	; (a04 <ac_init+0x88>)
     9cc:	6a11      	ldr	r1, [r2, #32]
     9ce:	2380      	movs	r3, #128	; 0x80
     9d0:	029b      	lsls	r3, r3, #10
     9d2:	430b      	orrs	r3, r1
     9d4:	6213      	str	r3, [r2, #32]
     9d6:	ae01      	add	r6, sp, #4
     9d8:	786b      	ldrb	r3, [r5, #1]
     9da:	7033      	strb	r3, [r6, #0]
     9dc:	0031      	movs	r1, r6
     9de:	201f      	movs	r0, #31
     9e0:	4b09      	ldr	r3, [pc, #36]	; (a08 <ac_init+0x8c>)
     9e2:	4698      	mov	r8, r3
     9e4:	4798      	blx	r3
     9e6:	201f      	movs	r0, #31
     9e8:	4f08      	ldr	r7, [pc, #32]	; (a0c <ac_init+0x90>)
     9ea:	47b8      	blx	r7
     9ec:	78ab      	ldrb	r3, [r5, #2]
     9ee:	7033      	strb	r3, [r6, #0]
     9f0:	0031      	movs	r1, r6
     9f2:	2020      	movs	r0, #32
     9f4:	47c0      	blx	r8
     9f6:	2020      	movs	r0, #32
     9f8:	47b8      	blx	r7
     9fa:	e7cc      	b.n	996 <ac_init+0x1a>
     9fc:	42004400 	.word	0x42004400
     a00:	200029d4 	.word	0x200029d4
     a04:	40000400 	.word	0x40000400
     a08:	000089d5 	.word	0x000089d5
     a0c:	00008949 	.word	0x00008949

00000a10 <ac_chan_set_config>:
     a10:	b570      	push	{r4, r5, r6, lr}
     a12:	6804      	ldr	r4, [r0, #0]
     a14:	6853      	ldr	r3, [r2, #4]
     a16:	7a10      	ldrb	r0, [r2, #8]
     a18:	001d      	movs	r5, r3
     a1a:	2800      	cmp	r0, #0
     a1c:	d002      	beq.n	a24 <ac_chan_set_config+0x14>
     a1e:	2580      	movs	r5, #128	; 0x80
     a20:	032d      	lsls	r5, r5, #12
     a22:	431d      	orrs	r5, r3
     a24:	7810      	ldrb	r0, [r2, #0]
     a26:	7d53      	ldrb	r3, [r2, #21]
     a28:	4318      	orrs	r0, r3
     a2a:	8a13      	ldrh	r3, [r2, #16]
     a2c:	8a56      	ldrh	r6, [r2, #18]
     a2e:	4333      	orrs	r3, r6
     a30:	4318      	orrs	r0, r3
     a32:	68d3      	ldr	r3, [r2, #12]
     a34:	4318      	orrs	r0, r3
     a36:	4328      	orrs	r0, r5
     a38:	7a63      	ldrb	r3, [r4, #9]
     a3a:	b25b      	sxtb	r3, r3
     a3c:	2b00      	cmp	r3, #0
     a3e:	dbfb      	blt.n	a38 <ac_chan_set_config+0x28>
     a40:	1d0b      	adds	r3, r1, #4
     a42:	009b      	lsls	r3, r3, #2
     a44:	5118      	str	r0, [r3, r4]
     a46:	7d13      	ldrb	r3, [r2, #20]
     a48:	3b01      	subs	r3, #1
     a4a:	b2db      	uxtb	r3, r3
     a4c:	1864      	adds	r4, r4, r1
     a4e:	3420      	adds	r4, #32
     a50:	7023      	strb	r3, [r4, #0]
     a52:	2000      	movs	r0, #0
     a54:	bd70      	pop	{r4, r5, r6, pc}

00000a56 <adc_get_config_defaults>:
     a56:	b510      	push	{r4, lr}
     a58:	2200      	movs	r2, #0
     a5a:	2300      	movs	r3, #0
     a5c:	7002      	strb	r2, [r0, #0]
     a5e:	7042      	strb	r2, [r0, #1]
     a60:	2100      	movs	r1, #0
     a62:	8042      	strh	r2, [r0, #2]
     a64:	7101      	strb	r1, [r0, #4]
     a66:	7603      	strb	r3, [r0, #24]
     a68:	6202      	str	r2, [r0, #32]
     a6a:	61c2      	str	r2, [r0, #28]
     a6c:	6082      	str	r2, [r0, #8]
     a6e:	7303      	strb	r3, [r0, #12]
     a70:	24c0      	movs	r4, #192	; 0xc0
     a72:	0164      	lsls	r4, r4, #5
     a74:	81c4      	strh	r4, [r0, #14]
     a76:	7403      	strb	r3, [r0, #16]
     a78:	7443      	strb	r3, [r0, #17]
     a7a:	7483      	strb	r3, [r0, #18]
     a7c:	74c3      	strb	r3, [r0, #19]
     a7e:	7503      	strb	r3, [r0, #20]
     a80:	242a      	movs	r4, #42	; 0x2a
     a82:	5503      	strb	r3, [r0, r4]
     a84:	7543      	strb	r3, [r0, #21]
     a86:	7583      	strb	r3, [r0, #22]
     a88:	3c06      	subs	r4, #6
     a8a:	5503      	strb	r3, [r0, r4]
     a8c:	84c2      	strh	r2, [r0, #38]	; 0x26
     a8e:	8502      	strh	r2, [r0, #40]	; 0x28
     a90:	75c1      	strb	r1, [r0, #23]
     a92:	232b      	movs	r3, #43	; 0x2b
     a94:	54c1      	strb	r1, [r0, r3]
     a96:	3301      	adds	r3, #1
     a98:	54c1      	strb	r1, [r0, r3]
     a9a:	bd10      	pop	{r4, pc}

00000a9c <adc_init>:
     a9c:	b5f0      	push	{r4, r5, r6, r7, lr}
     a9e:	46d6      	mov	lr, sl
     aa0:	464f      	mov	r7, r9
     aa2:	4646      	mov	r6, r8
     aa4:	b5c0      	push	{r6, r7, lr}
     aa6:	b096      	sub	sp, #88	; 0x58
     aa8:	0007      	movs	r7, r0
     aaa:	0016      	movs	r6, r2
     aac:	6001      	str	r1, [r0, #0]
     aae:	4ac6      	ldr	r2, [pc, #792]	; (dc8 <adc_init+0x32c>)
     ab0:	6a10      	ldr	r0, [r2, #32]
     ab2:	2380      	movs	r3, #128	; 0x80
     ab4:	025b      	lsls	r3, r3, #9
     ab6:	4303      	orrs	r3, r0
     ab8:	6213      	str	r3, [r2, #32]
     aba:	780b      	ldrb	r3, [r1, #0]
     abc:	2005      	movs	r0, #5
     abe:	07db      	lsls	r3, r3, #31
     ac0:	d505      	bpl.n	ace <adc_init+0x32>
     ac2:	b016      	add	sp, #88	; 0x58
     ac4:	bc1c      	pop	{r2, r3, r4}
     ac6:	4690      	mov	r8, r2
     ac8:	4699      	mov	r9, r3
     aca:	46a2      	mov	sl, r4
     acc:	bdf0      	pop	{r4, r5, r6, r7, pc}
     ace:	780b      	ldrb	r3, [r1, #0]
     ad0:	3017      	adds	r0, #23
     ad2:	079b      	lsls	r3, r3, #30
     ad4:	d4f5      	bmi.n	ac2 <adc_init+0x26>
     ad6:	7873      	ldrb	r3, [r6, #1]
     ad8:	713b      	strb	r3, [r7, #4]
     ada:	2b00      	cmp	r3, #0
     adc:	d104      	bne.n	ae8 <adc_init+0x4c>
     ade:	4abb      	ldr	r2, [pc, #748]	; (dcc <adc_init+0x330>)
     ae0:	6c13      	ldr	r3, [r2, #64]	; 0x40
     ae2:	2104      	movs	r1, #4
     ae4:	430b      	orrs	r3, r1
     ae6:	6413      	str	r3, [r2, #64]	; 0x40
     ae8:	2300      	movs	r3, #0
     aea:	60bb      	str	r3, [r7, #8]
     aec:	60fb      	str	r3, [r7, #12]
     aee:	613b      	str	r3, [r7, #16]
     af0:	76bb      	strb	r3, [r7, #26]
     af2:	76fb      	strb	r3, [r7, #27]
     af4:	833b      	strh	r3, [r7, #24]
     af6:	773b      	strb	r3, [r7, #28]
     af8:	4bb5      	ldr	r3, [pc, #724]	; (dd0 <adc_init+0x334>)
     afa:	601f      	str	r7, [r3, #0]
     afc:	232a      	movs	r3, #42	; 0x2a
     afe:	5cf3      	ldrb	r3, [r6, r3]
     b00:	2b00      	cmp	r3, #0
     b02:	d105      	bne.n	b10 <adc_init+0x74>
     b04:	7d33      	ldrb	r3, [r6, #20]
     b06:	2b00      	cmp	r3, #0
     b08:	d102      	bne.n	b10 <adc_init+0x74>
     b0a:	3301      	adds	r3, #1
     b0c:	777b      	strb	r3, [r7, #29]
     b0e:	e001      	b.n	b14 <adc_init+0x78>
     b10:	2300      	movs	r3, #0
     b12:	777b      	strb	r3, [r7, #29]
     b14:	683b      	ldr	r3, [r7, #0]
     b16:	4698      	mov	r8, r3
     b18:	7833      	ldrb	r3, [r6, #0]
     b1a:	466a      	mov	r2, sp
     b1c:	7013      	strb	r3, [r2, #0]
     b1e:	4669      	mov	r1, sp
     b20:	201e      	movs	r0, #30
     b22:	4bac      	ldr	r3, [pc, #688]	; (dd4 <adc_init+0x338>)
     b24:	4798      	blx	r3
     b26:	201e      	movs	r0, #30
     b28:	4bab      	ldr	r3, [pc, #684]	; (dd8 <adc_init+0x33c>)
     b2a:	4798      	blx	r3
     b2c:	232c      	movs	r3, #44	; 0x2c
     b2e:	5cf2      	ldrb	r2, [r6, r3]
     b30:	2a00      	cmp	r2, #0
     b32:	d054      	beq.n	bde <adc_init+0x142>
     b34:	3b01      	subs	r3, #1
     b36:	5cf5      	ldrb	r5, [r6, r3]
     b38:	7b33      	ldrb	r3, [r6, #12]
     b3a:	18eb      	adds	r3, r5, r3
     b3c:	b2db      	uxtb	r3, r3
     b3e:	18d1      	adds	r1, r2, r3
     b40:	b2c9      	uxtb	r1, r1
     b42:	428b      	cmp	r3, r1
     b44:	d221      	bcs.n	b8a <adc_init+0xee>
     b46:	1952      	adds	r2, r2, r5
     b48:	b2d3      	uxtb	r3, r2
     b4a:	4699      	mov	r9, r3
     b4c:	4ba3      	ldr	r3, [pc, #652]	; (ddc <adc_init+0x340>)
     b4e:	469a      	mov	sl, r3
     b50:	e003      	b.n	b5a <adc_init+0xbe>
     b52:	3501      	adds	r5, #1
     b54:	b2ed      	uxtb	r5, r5
     b56:	454d      	cmp	r5, r9
     b58:	d017      	beq.n	b8a <adc_init+0xee>
     b5a:	240f      	movs	r4, #15
     b5c:	402c      	ands	r4, r5
     b5e:	7b33      	ldrb	r3, [r6, #12]
     b60:	18e4      	adds	r4, r4, r3
     b62:	2250      	movs	r2, #80	; 0x50
     b64:	499e      	ldr	r1, [pc, #632]	; (de0 <adc_init+0x344>)
     b66:	a802      	add	r0, sp, #8
     b68:	47d0      	blx	sl
     b6a:	2c13      	cmp	r4, #19
     b6c:	d8f1      	bhi.n	b52 <adc_init+0xb6>
     b6e:	00a4      	lsls	r4, r4, #2
     b70:	ab02      	add	r3, sp, #8
     b72:	58e0      	ldr	r0, [r4, r3]
     b74:	a901      	add	r1, sp, #4
     b76:	2300      	movs	r3, #0
     b78:	704b      	strb	r3, [r1, #1]
     b7a:	70cb      	strb	r3, [r1, #3]
     b7c:	708b      	strb	r3, [r1, #2]
     b7e:	3301      	adds	r3, #1
     b80:	700b      	strb	r3, [r1, #0]
     b82:	b2c0      	uxtb	r0, r0
     b84:	4b97      	ldr	r3, [pc, #604]	; (de4 <adc_init+0x348>)
     b86:	4798      	blx	r3
     b88:	e7e3      	b.n	b52 <adc_init+0xb6>
     b8a:	89f4      	ldrh	r4, [r6, #14]
     b8c:	2250      	movs	r2, #80	; 0x50
     b8e:	4994      	ldr	r1, [pc, #592]	; (de0 <adc_init+0x344>)
     b90:	a802      	add	r0, sp, #8
     b92:	4b92      	ldr	r3, [pc, #584]	; (ddc <adc_init+0x340>)
     b94:	4798      	blx	r3
     b96:	2c13      	cmp	r4, #19
     b98:	d913      	bls.n	bc2 <adc_init+0x126>
     b9a:	7d73      	ldrb	r3, [r6, #21]
     b9c:	009b      	lsls	r3, r3, #2
     b9e:	b2db      	uxtb	r3, r3
     ba0:	4642      	mov	r2, r8
     ba2:	7013      	strb	r3, [r2, #0]
     ba4:	7db3      	ldrb	r3, [r6, #22]
     ba6:	01db      	lsls	r3, r3, #7
     ba8:	7872      	ldrb	r2, [r6, #1]
     baa:	4313      	orrs	r3, r2
     bac:	b2db      	uxtb	r3, r3
     bae:	4642      	mov	r2, r8
     bb0:	7053      	strb	r3, [r2, #1]
     bb2:	7933      	ldrb	r3, [r6, #4]
     bb4:	2b34      	cmp	r3, #52	; 0x34
     bb6:	d900      	bls.n	bba <adc_init+0x11e>
     bb8:	e17b      	b.n	eb2 <adc_init+0x416>
     bba:	009b      	lsls	r3, r3, #2
     bbc:	4a8a      	ldr	r2, [pc, #552]	; (de8 <adc_init+0x34c>)
     bbe:	58d3      	ldr	r3, [r2, r3]
     bc0:	469f      	mov	pc, r3
     bc2:	00a4      	lsls	r4, r4, #2
     bc4:	ab02      	add	r3, sp, #8
     bc6:	58e0      	ldr	r0, [r4, r3]
     bc8:	a901      	add	r1, sp, #4
     bca:	2300      	movs	r3, #0
     bcc:	704b      	strb	r3, [r1, #1]
     bce:	70cb      	strb	r3, [r1, #3]
     bd0:	708b      	strb	r3, [r1, #2]
     bd2:	3301      	adds	r3, #1
     bd4:	700b      	strb	r3, [r1, #0]
     bd6:	b2c0      	uxtb	r0, r0
     bd8:	4b82      	ldr	r3, [pc, #520]	; (de4 <adc_init+0x348>)
     bda:	4798      	blx	r3
     bdc:	e7dd      	b.n	b9a <adc_init+0xfe>
     bde:	7b34      	ldrb	r4, [r6, #12]
     be0:	2250      	movs	r2, #80	; 0x50
     be2:	497f      	ldr	r1, [pc, #508]	; (de0 <adc_init+0x344>)
     be4:	a802      	add	r0, sp, #8
     be6:	4b7d      	ldr	r3, [pc, #500]	; (ddc <adc_init+0x340>)
     be8:	4798      	blx	r3
     bea:	2c13      	cmp	r4, #19
     bec:	d915      	bls.n	c1a <adc_init+0x17e>
     bee:	89f4      	ldrh	r4, [r6, #14]
     bf0:	2250      	movs	r2, #80	; 0x50
     bf2:	497b      	ldr	r1, [pc, #492]	; (de0 <adc_init+0x344>)
     bf4:	a802      	add	r0, sp, #8
     bf6:	4b79      	ldr	r3, [pc, #484]	; (ddc <adc_init+0x340>)
     bf8:	4798      	blx	r3
     bfa:	2c13      	cmp	r4, #19
     bfc:	d8cd      	bhi.n	b9a <adc_init+0xfe>
     bfe:	00a4      	lsls	r4, r4, #2
     c00:	ab02      	add	r3, sp, #8
     c02:	58e0      	ldr	r0, [r4, r3]
     c04:	a901      	add	r1, sp, #4
     c06:	2300      	movs	r3, #0
     c08:	704b      	strb	r3, [r1, #1]
     c0a:	70cb      	strb	r3, [r1, #3]
     c0c:	708b      	strb	r3, [r1, #2]
     c0e:	3301      	adds	r3, #1
     c10:	700b      	strb	r3, [r1, #0]
     c12:	b2c0      	uxtb	r0, r0
     c14:	4b73      	ldr	r3, [pc, #460]	; (de4 <adc_init+0x348>)
     c16:	4798      	blx	r3
     c18:	e7bf      	b.n	b9a <adc_init+0xfe>
     c1a:	00a4      	lsls	r4, r4, #2
     c1c:	ab02      	add	r3, sp, #8
     c1e:	58e0      	ldr	r0, [r4, r3]
     c20:	a901      	add	r1, sp, #4
     c22:	2300      	movs	r3, #0
     c24:	704b      	strb	r3, [r1, #1]
     c26:	70cb      	strb	r3, [r1, #3]
     c28:	708b      	strb	r3, [r1, #2]
     c2a:	3301      	adds	r3, #1
     c2c:	700b      	strb	r3, [r1, #0]
     c2e:	b2c0      	uxtb	r0, r0
     c30:	4b6c      	ldr	r3, [pc, #432]	; (de4 <adc_init+0x348>)
     c32:	4798      	blx	r3
     c34:	e7db      	b.n	bee <adc_init+0x152>
     c36:	2304      	movs	r3, #4
     c38:	2410      	movs	r4, #16
     c3a:	2102      	movs	r1, #2
     c3c:	e01a      	b.n	c74 <adc_init+0x1d8>
     c3e:	7c71      	ldrb	r1, [r6, #17]
     c40:	7c33      	ldrb	r3, [r6, #16]
     c42:	2410      	movs	r4, #16
     c44:	e016      	b.n	c74 <adc_init+0x1d8>
     c46:	2306      	movs	r3, #6
     c48:	2410      	movs	r4, #16
     c4a:	2101      	movs	r1, #1
     c4c:	e012      	b.n	c74 <adc_init+0x1d8>
     c4e:	2308      	movs	r3, #8
     c50:	2410      	movs	r4, #16
     c52:	2100      	movs	r1, #0
     c54:	e00e      	b.n	c74 <adc_init+0x1d8>
     c56:	2300      	movs	r3, #0
     c58:	2430      	movs	r4, #48	; 0x30
     c5a:	2100      	movs	r1, #0
     c5c:	e00a      	b.n	c74 <adc_init+0x1d8>
     c5e:	2300      	movs	r3, #0
     c60:	2420      	movs	r4, #32
     c62:	2100      	movs	r1, #0
     c64:	e006      	b.n	c74 <adc_init+0x1d8>
     c66:	2300      	movs	r3, #0
     c68:	2400      	movs	r4, #0
     c6a:	2100      	movs	r1, #0
     c6c:	e002      	b.n	c74 <adc_init+0x1d8>
     c6e:	2302      	movs	r3, #2
     c70:	2410      	movs	r4, #16
     c72:	2101      	movs	r1, #1
     c74:	0109      	lsls	r1, r1, #4
     c76:	2270      	movs	r2, #112	; 0x70
     c78:	400a      	ands	r2, r1
     c7a:	4313      	orrs	r3, r2
     c7c:	4642      	mov	r2, r8
     c7e:	7093      	strb	r3, [r2, #2]
     c80:	7df3      	ldrb	r3, [r6, #23]
     c82:	2017      	movs	r0, #23
     c84:	2b3f      	cmp	r3, #63	; 0x3f
     c86:	d900      	bls.n	c8a <adc_init+0x1ee>
     c88:	e71b      	b.n	ac2 <adc_init+0x26>
     c8a:	70d3      	strb	r3, [r2, #3]
     c8c:	683a      	ldr	r2, [r7, #0]
     c8e:	7e53      	ldrb	r3, [r2, #25]
     c90:	b25b      	sxtb	r3, r3
     c92:	2b00      	cmp	r3, #0
     c94:	dbfb      	blt.n	c8e <adc_init+0x1f2>
     c96:	7cf3      	ldrb	r3, [r6, #19]
     c98:	8872      	ldrh	r2, [r6, #2]
     c9a:	4313      	orrs	r3, r2
     c9c:	2224      	movs	r2, #36	; 0x24
     c9e:	5cb2      	ldrb	r2, [r6, r2]
     ca0:	00d2      	lsls	r2, r2, #3
     ca2:	4313      	orrs	r3, r2
     ca4:	7d32      	ldrb	r2, [r6, #20]
     ca6:	0092      	lsls	r2, r2, #2
     ca8:	4313      	orrs	r3, r2
     caa:	7cb2      	ldrb	r2, [r6, #18]
     cac:	0052      	lsls	r2, r2, #1
     cae:	4313      	orrs	r3, r2
     cb0:	4323      	orrs	r3, r4
     cb2:	4642      	mov	r2, r8
     cb4:	8093      	strh	r3, [r2, #4]
     cb6:	7e33      	ldrb	r3, [r6, #24]
     cb8:	2b00      	cmp	r3, #0
     cba:	d020      	beq.n	cfe <adc_init+0x262>
     cbc:	2c10      	cmp	r4, #16
     cbe:	d100      	bne.n	cc2 <adc_init+0x226>
     cc0:	e0d9      	b.n	e76 <adc_init+0x3da>
     cc2:	d800      	bhi.n	cc6 <adc_init+0x22a>
     cc4:	e098      	b.n	df8 <adc_init+0x35c>
     cc6:	2c20      	cmp	r4, #32
     cc8:	d100      	bne.n	ccc <adc_init+0x230>
     cca:	e0b6      	b.n	e3a <adc_init+0x39e>
     ccc:	2c30      	cmp	r4, #48	; 0x30
     cce:	d116      	bne.n	cfe <adc_init+0x262>
     cd0:	7cf2      	ldrb	r2, [r6, #19]
     cd2:	2a00      	cmp	r2, #0
     cd4:	d00a      	beq.n	cec <adc_init+0x250>
     cd6:	69f2      	ldr	r2, [r6, #28]
     cd8:	3280      	adds	r2, #128	; 0x80
     cda:	2017      	movs	r0, #23
     cdc:	2aff      	cmp	r2, #255	; 0xff
     cde:	d900      	bls.n	ce2 <adc_init+0x246>
     ce0:	e6ef      	b.n	ac2 <adc_init+0x26>
     ce2:	6a32      	ldr	r2, [r6, #32]
     ce4:	3280      	adds	r2, #128	; 0x80
     ce6:	2aff      	cmp	r2, #255	; 0xff
     ce8:	d900      	bls.n	cec <adc_init+0x250>
     cea:	e6ea      	b.n	ac2 <adc_init+0x26>
     cec:	2017      	movs	r0, #23
     cee:	69f2      	ldr	r2, [r6, #28]
     cf0:	2aff      	cmp	r2, #255	; 0xff
     cf2:	dd00      	ble.n	cf6 <adc_init+0x25a>
     cf4:	e6e5      	b.n	ac2 <adc_init+0x26>
     cf6:	6a32      	ldr	r2, [r6, #32]
     cf8:	2aff      	cmp	r2, #255	; 0xff
     cfa:	dd00      	ble.n	cfe <adc_init+0x262>
     cfc:	e6e1      	b.n	ac2 <adc_init+0x26>
     cfe:	6839      	ldr	r1, [r7, #0]
     d00:	7e4a      	ldrb	r2, [r1, #25]
     d02:	b252      	sxtb	r2, r2
     d04:	2a00      	cmp	r2, #0
     d06:	dbfb      	blt.n	d00 <adc_init+0x264>
     d08:	4642      	mov	r2, r8
     d0a:	7213      	strb	r3, [r2, #8]
     d0c:	683a      	ldr	r2, [r7, #0]
     d0e:	7e53      	ldrb	r3, [r2, #25]
     d10:	b25b      	sxtb	r3, r3
     d12:	2b00      	cmp	r3, #0
     d14:	dbfb      	blt.n	d0e <adc_init+0x272>
     d16:	8bb3      	ldrh	r3, [r6, #28]
     d18:	4642      	mov	r2, r8
     d1a:	8393      	strh	r3, [r2, #28]
     d1c:	683a      	ldr	r2, [r7, #0]
     d1e:	7e53      	ldrb	r3, [r2, #25]
     d20:	b25b      	sxtb	r3, r3
     d22:	2b00      	cmp	r3, #0
     d24:	dbfb      	blt.n	d1e <adc_init+0x282>
     d26:	8c33      	ldrh	r3, [r6, #32]
     d28:	4642      	mov	r2, r8
     d2a:	8413      	strh	r3, [r2, #32]
     d2c:	232c      	movs	r3, #44	; 0x2c
     d2e:	5cf3      	ldrb	r3, [r6, r3]
     d30:	2b00      	cmp	r3, #0
     d32:	d005      	beq.n	d40 <adc_init+0x2a4>
     d34:	3b01      	subs	r3, #1
     d36:	b2db      	uxtb	r3, r3
     d38:	2017      	movs	r0, #23
     d3a:	2b0f      	cmp	r3, #15
     d3c:	d900      	bls.n	d40 <adc_init+0x2a4>
     d3e:	e6c0      	b.n	ac2 <adc_init+0x26>
     d40:	222b      	movs	r2, #43	; 0x2b
     d42:	5cb1      	ldrb	r1, [r6, r2]
     d44:	2017      	movs	r0, #23
     d46:	290f      	cmp	r1, #15
     d48:	d900      	bls.n	d4c <adc_init+0x2b0>
     d4a:	e6ba      	b.n	ac2 <adc_init+0x26>
     d4c:	6838      	ldr	r0, [r7, #0]
     d4e:	7e42      	ldrb	r2, [r0, #25]
     d50:	b252      	sxtb	r2, r2
     d52:	2a00      	cmp	r2, #0
     d54:	dbfb      	blt.n	d4e <adc_init+0x2b2>
     d56:	89f2      	ldrh	r2, [r6, #14]
     d58:	7b30      	ldrb	r0, [r6, #12]
     d5a:	4302      	orrs	r2, r0
     d5c:	68b0      	ldr	r0, [r6, #8]
     d5e:	4302      	orrs	r2, r0
     d60:	0509      	lsls	r1, r1, #20
     d62:	430a      	orrs	r2, r1
     d64:	041b      	lsls	r3, r3, #16
     d66:	4313      	orrs	r3, r2
     d68:	4642      	mov	r2, r8
     d6a:	6113      	str	r3, [r2, #16]
     d6c:	232a      	movs	r3, #42	; 0x2a
     d6e:	5cf3      	ldrb	r3, [r6, r3]
     d70:	7513      	strb	r3, [r2, #20]
     d72:	230f      	movs	r3, #15
     d74:	7593      	strb	r3, [r2, #22]
     d76:	3315      	adds	r3, #21
     d78:	5cf3      	ldrb	r3, [r6, r3]
     d7a:	2b00      	cmp	r3, #0
     d7c:	d012      	beq.n	da4 <adc_init+0x308>
     d7e:	8cf3      	ldrh	r3, [r6, #38]	; 0x26
     d80:	4a1a      	ldr	r2, [pc, #104]	; (dec <adc_init+0x350>)
     d82:	2017      	movs	r0, #23
     d84:	4293      	cmp	r3, r2
     d86:	d900      	bls.n	d8a <adc_init+0x2ee>
     d88:	e69b      	b.n	ac2 <adc_init+0x26>
     d8a:	4642      	mov	r2, r8
     d8c:	8493      	strh	r3, [r2, #36]	; 0x24
     d8e:	8d32      	ldrh	r2, [r6, #40]	; 0x28
     d90:	2380      	movs	r3, #128	; 0x80
     d92:	011b      	lsls	r3, r3, #4
     d94:	18d3      	adds	r3, r2, r3
     d96:	4915      	ldr	r1, [pc, #84]	; (dec <adc_init+0x350>)
     d98:	b29b      	uxth	r3, r3
     d9a:	428b      	cmp	r3, r1
     d9c:	d900      	bls.n	da0 <adc_init+0x304>
     d9e:	e690      	b.n	ac2 <adc_init+0x26>
     da0:	4643      	mov	r3, r8
     da2:	84da      	strh	r2, [r3, #38]	; 0x26
     da4:	4b12      	ldr	r3, [pc, #72]	; (df0 <adc_init+0x354>)
     da6:	681b      	ldr	r3, [r3, #0]
     da8:	015b      	lsls	r3, r3, #5
     daa:	22e0      	movs	r2, #224	; 0xe0
     dac:	00d2      	lsls	r2, r2, #3
     dae:	4013      	ands	r3, r2
     db0:	4a10      	ldr	r2, [pc, #64]	; (df4 <adc_init+0x358>)
     db2:	6851      	ldr	r1, [r2, #4]
     db4:	0149      	lsls	r1, r1, #5
     db6:	6812      	ldr	r2, [r2, #0]
     db8:	0ed2      	lsrs	r2, r2, #27
     dba:	430a      	orrs	r2, r1
     dbc:	b2d2      	uxtb	r2, r2
     dbe:	4313      	orrs	r3, r2
     dc0:	4642      	mov	r2, r8
     dc2:	8513      	strh	r3, [r2, #40]	; 0x28
     dc4:	2000      	movs	r0, #0
     dc6:	e67c      	b.n	ac2 <adc_init+0x26>
     dc8:	40000400 	.word	0x40000400
     dcc:	40000800 	.word	0x40000800
     dd0:	20001170 	.word	0x20001170
     dd4:	000089d5 	.word	0x000089d5
     dd8:	00008949 	.word	0x00008949
     ddc:	0000bded 	.word	0x0000bded
     de0:	0000bee4 	.word	0x0000bee4
     de4:	00008acd 	.word	0x00008acd
     de8:	0000be10 	.word	0x0000be10
     dec:	00000fff 	.word	0x00000fff
     df0:	00806024 	.word	0x00806024
     df4:	00806020 	.word	0x00806020
     df8:	2c00      	cmp	r4, #0
     dfa:	d000      	beq.n	dfe <adc_init+0x362>
     dfc:	e77f      	b.n	cfe <adc_init+0x262>
     dfe:	7cf2      	ldrb	r2, [r6, #19]
     e00:	2a00      	cmp	r2, #0
     e02:	d00f      	beq.n	e24 <adc_init+0x388>
     e04:	69f2      	ldr	r2, [r6, #28]
     e06:	2180      	movs	r1, #128	; 0x80
     e08:	0109      	lsls	r1, r1, #4
     e0a:	468c      	mov	ip, r1
     e0c:	4462      	add	r2, ip
     e0e:	492a      	ldr	r1, [pc, #168]	; (eb8 <adc_init+0x41c>)
     e10:	2017      	movs	r0, #23
     e12:	428a      	cmp	r2, r1
     e14:	d900      	bls.n	e18 <adc_init+0x37c>
     e16:	e654      	b.n	ac2 <adc_init+0x26>
     e18:	6a32      	ldr	r2, [r6, #32]
     e1a:	4462      	add	r2, ip
     e1c:	4926      	ldr	r1, [pc, #152]	; (eb8 <adc_init+0x41c>)
     e1e:	428a      	cmp	r2, r1
     e20:	d900      	bls.n	e24 <adc_init+0x388>
     e22:	e64e      	b.n	ac2 <adc_init+0x26>
     e24:	4a24      	ldr	r2, [pc, #144]	; (eb8 <adc_init+0x41c>)
     e26:	2017      	movs	r0, #23
     e28:	69f1      	ldr	r1, [r6, #28]
     e2a:	4291      	cmp	r1, r2
     e2c:	dd00      	ble.n	e30 <adc_init+0x394>
     e2e:	e648      	b.n	ac2 <adc_init+0x26>
     e30:	6a31      	ldr	r1, [r6, #32]
     e32:	4291      	cmp	r1, r2
     e34:	dd00      	ble.n	e38 <adc_init+0x39c>
     e36:	e644      	b.n	ac2 <adc_init+0x26>
     e38:	e761      	b.n	cfe <adc_init+0x262>
     e3a:	7cf2      	ldrb	r2, [r6, #19]
     e3c:	2a00      	cmp	r2, #0
     e3e:	d00f      	beq.n	e60 <adc_init+0x3c4>
     e40:	69f2      	ldr	r2, [r6, #28]
     e42:	2180      	movs	r1, #128	; 0x80
     e44:	0089      	lsls	r1, r1, #2
     e46:	468c      	mov	ip, r1
     e48:	4462      	add	r2, ip
     e4a:	491c      	ldr	r1, [pc, #112]	; (ebc <adc_init+0x420>)
     e4c:	2017      	movs	r0, #23
     e4e:	428a      	cmp	r2, r1
     e50:	d900      	bls.n	e54 <adc_init+0x3b8>
     e52:	e636      	b.n	ac2 <adc_init+0x26>
     e54:	6a32      	ldr	r2, [r6, #32]
     e56:	4462      	add	r2, ip
     e58:	4918      	ldr	r1, [pc, #96]	; (ebc <adc_init+0x420>)
     e5a:	428a      	cmp	r2, r1
     e5c:	d900      	bls.n	e60 <adc_init+0x3c4>
     e5e:	e630      	b.n	ac2 <adc_init+0x26>
     e60:	4a16      	ldr	r2, [pc, #88]	; (ebc <adc_init+0x420>)
     e62:	2017      	movs	r0, #23
     e64:	69f1      	ldr	r1, [r6, #28]
     e66:	4291      	cmp	r1, r2
     e68:	dd00      	ble.n	e6c <adc_init+0x3d0>
     e6a:	e62a      	b.n	ac2 <adc_init+0x26>
     e6c:	6a31      	ldr	r1, [r6, #32]
     e6e:	4291      	cmp	r1, r2
     e70:	dd00      	ble.n	e74 <adc_init+0x3d8>
     e72:	e626      	b.n	ac2 <adc_init+0x26>
     e74:	e743      	b.n	cfe <adc_init+0x262>
     e76:	7cf2      	ldrb	r2, [r6, #19]
     e78:	2a00      	cmp	r2, #0
     e7a:	d00f      	beq.n	e9c <adc_init+0x400>
     e7c:	69f2      	ldr	r2, [r6, #28]
     e7e:	2180      	movs	r1, #128	; 0x80
     e80:	0209      	lsls	r1, r1, #8
     e82:	468c      	mov	ip, r1
     e84:	4462      	add	r2, ip
     e86:	490e      	ldr	r1, [pc, #56]	; (ec0 <adc_init+0x424>)
     e88:	2017      	movs	r0, #23
     e8a:	428a      	cmp	r2, r1
     e8c:	d900      	bls.n	e90 <adc_init+0x3f4>
     e8e:	e618      	b.n	ac2 <adc_init+0x26>
     e90:	6a32      	ldr	r2, [r6, #32]
     e92:	4462      	add	r2, ip
     e94:	490a      	ldr	r1, [pc, #40]	; (ec0 <adc_init+0x424>)
     e96:	428a      	cmp	r2, r1
     e98:	d900      	bls.n	e9c <adc_init+0x400>
     e9a:	e612      	b.n	ac2 <adc_init+0x26>
     e9c:	4a08      	ldr	r2, [pc, #32]	; (ec0 <adc_init+0x424>)
     e9e:	2017      	movs	r0, #23
     ea0:	69f1      	ldr	r1, [r6, #28]
     ea2:	4291      	cmp	r1, r2
     ea4:	dd00      	ble.n	ea8 <adc_init+0x40c>
     ea6:	e60c      	b.n	ac2 <adc_init+0x26>
     ea8:	6a31      	ldr	r1, [r6, #32]
     eaa:	4291      	cmp	r1, r2
     eac:	dd00      	ble.n	eb0 <adc_init+0x414>
     eae:	e608      	b.n	ac2 <adc_init+0x26>
     eb0:	e725      	b.n	cfe <adc_init+0x262>
     eb2:	2017      	movs	r0, #23
     eb4:	e605      	b.n	ac2 <adc_init+0x26>
     eb6:	46c0      	nop			; (mov r8, r8)
     eb8:	00000fff 	.word	0x00000fff
     ebc:	000003ff 	.word	0x000003ff
     ec0:	0000ffff 	.word	0x0000ffff

00000ec4 <ADC_Handler>:
     ec4:	b570      	push	{r4, r5, r6, lr}
     ec6:	4b2e      	ldr	r3, [pc, #184]	; (f80 <ADC_Handler+0xbc>)
     ec8:	681c      	ldr	r4, [r3, #0]
     eca:	6823      	ldr	r3, [r4, #0]
     ecc:	7e1d      	ldrb	r5, [r3, #24]
     ece:	b2ed      	uxtb	r5, r5
     ed0:	07ea      	lsls	r2, r5, #31
     ed2:	d505      	bpl.n	ee0 <ADC_Handler+0x1c>
     ed4:	7ee2      	ldrb	r2, [r4, #27]
     ed6:	07d2      	lsls	r2, r2, #31
     ed8:	d502      	bpl.n	ee0 <ADC_Handler+0x1c>
     eda:	7ea2      	ldrb	r2, [r4, #26]
     edc:	07d2      	lsls	r2, r2, #31
     ede:	d416      	bmi.n	f0e <ADC_Handler+0x4a>
     ee0:	076b      	lsls	r3, r5, #29
     ee2:	d508      	bpl.n	ef6 <ADC_Handler+0x32>
     ee4:	2304      	movs	r3, #4
     ee6:	6822      	ldr	r2, [r4, #0]
     ee8:	7613      	strb	r3, [r2, #24]
     eea:	7ee3      	ldrb	r3, [r4, #27]
     eec:	079b      	lsls	r3, r3, #30
     eee:	d502      	bpl.n	ef6 <ADC_Handler+0x32>
     ef0:	7ea3      	ldrb	r3, [r4, #26]
     ef2:	079b      	lsls	r3, r3, #30
     ef4:	d43c      	bmi.n	f70 <ADC_Handler+0xac>
     ef6:	07ab      	lsls	r3, r5, #30
     ef8:	d508      	bpl.n	f0c <ADC_Handler+0x48>
     efa:	2302      	movs	r3, #2
     efc:	6822      	ldr	r2, [r4, #0]
     efe:	7613      	strb	r3, [r2, #24]
     f00:	7ee3      	ldrb	r3, [r4, #27]
     f02:	075b      	lsls	r3, r3, #29
     f04:	d502      	bpl.n	f0c <ADC_Handler+0x48>
     f06:	7ea3      	ldrb	r3, [r4, #26]
     f08:	075b      	lsls	r3, r3, #29
     f0a:	d435      	bmi.n	f78 <ADC_Handler+0xb4>
     f0c:	bd70      	pop	{r4, r5, r6, pc}
     f0e:	2201      	movs	r2, #1
     f10:	761a      	strb	r2, [r3, #24]
     f12:	6822      	ldr	r2, [r4, #0]
     f14:	7e53      	ldrb	r3, [r2, #25]
     f16:	b25b      	sxtb	r3, r3
     f18:	2b00      	cmp	r3, #0
     f1a:	dbfb      	blt.n	f14 <ADC_Handler+0x50>
     f1c:	6961      	ldr	r1, [r4, #20]
     f1e:	1c8b      	adds	r3, r1, #2
     f20:	6163      	str	r3, [r4, #20]
     f22:	8b53      	ldrh	r3, [r2, #26]
     f24:	b29b      	uxth	r3, r3
     f26:	800b      	strh	r3, [r1, #0]
     f28:	8b23      	ldrh	r3, [r4, #24]
     f2a:	3b01      	subs	r3, #1
     f2c:	b29b      	uxth	r3, r3
     f2e:	8323      	strh	r3, [r4, #24]
     f30:	2b00      	cmp	r3, #0
     f32:	d011      	beq.n	f58 <ADC_Handler+0x94>
     f34:	7f63      	ldrb	r3, [r4, #29]
     f36:	2b00      	cmp	r3, #0
     f38:	d0d2      	beq.n	ee0 <ADC_Handler+0x1c>
     f3a:	6822      	ldr	r2, [r4, #0]
     f3c:	7e53      	ldrb	r3, [r2, #25]
     f3e:	b25b      	sxtb	r3, r3
     f40:	2b00      	cmp	r3, #0
     f42:	dbfb      	blt.n	f3c <ADC_Handler+0x78>
     f44:	7b13      	ldrb	r3, [r2, #12]
     f46:	2102      	movs	r1, #2
     f48:	430b      	orrs	r3, r1
     f4a:	7313      	strb	r3, [r2, #12]
     f4c:	6822      	ldr	r2, [r4, #0]
     f4e:	7e53      	ldrb	r3, [r2, #25]
     f50:	b25b      	sxtb	r3, r3
     f52:	2b00      	cmp	r3, #0
     f54:	dbfb      	blt.n	f4e <ADC_Handler+0x8a>
     f56:	e7c3      	b.n	ee0 <ADC_Handler+0x1c>
     f58:	7f23      	ldrb	r3, [r4, #28]
     f5a:	2b05      	cmp	r3, #5
     f5c:	d1c0      	bne.n	ee0 <ADC_Handler+0x1c>
     f5e:	2300      	movs	r3, #0
     f60:	7723      	strb	r3, [r4, #28]
     f62:	3301      	adds	r3, #1
     f64:	6822      	ldr	r2, [r4, #0]
     f66:	7593      	strb	r3, [r2, #22]
     f68:	0020      	movs	r0, r4
     f6a:	68a3      	ldr	r3, [r4, #8]
     f6c:	4798      	blx	r3
     f6e:	e7b7      	b.n	ee0 <ADC_Handler+0x1c>
     f70:	0020      	movs	r0, r4
     f72:	68e3      	ldr	r3, [r4, #12]
     f74:	4798      	blx	r3
     f76:	e7be      	b.n	ef6 <ADC_Handler+0x32>
     f78:	6923      	ldr	r3, [r4, #16]
     f7a:	0020      	movs	r0, r4
     f7c:	4798      	blx	r3
     f7e:	e7c5      	b.n	f0c <ADC_Handler+0x48>
     f80:	20001170 	.word	0x20001170

00000f84 <dac_is_syncing>:
     f84:	6803      	ldr	r3, [r0, #0]
     f86:	79d8      	ldrb	r0, [r3, #7]
     f88:	09c0      	lsrs	r0, r0, #7
     f8a:	4770      	bx	lr

00000f8c <dac_get_config_defaults>:
     f8c:	2300      	movs	r3, #0
     f8e:	7003      	strb	r3, [r0, #0]
     f90:	2201      	movs	r2, #1
     f92:	7042      	strb	r2, [r0, #1]
     f94:	7083      	strb	r3, [r0, #2]
     f96:	7103      	strb	r3, [r0, #4]
     f98:	7143      	strb	r3, [r0, #5]
     f9a:	70c3      	strb	r3, [r0, #3]
     f9c:	7183      	strb	r3, [r0, #6]
     f9e:	4770      	bx	lr

00000fa0 <dac_init>:
     fa0:	b5f0      	push	{r4, r5, r6, r7, lr}
     fa2:	46c6      	mov	lr, r8
     fa4:	b500      	push	{lr}
     fa6:	b082      	sub	sp, #8
     fa8:	0005      	movs	r5, r0
     faa:	0014      	movs	r4, r2
     fac:	6001      	str	r1, [r0, #0]
     fae:	4a2a      	ldr	r2, [pc, #168]	; (1058 <dac_init+0xb8>)
     fb0:	6a10      	ldr	r0, [r2, #32]
     fb2:	2380      	movs	r3, #128	; 0x80
     fb4:	02db      	lsls	r3, r3, #11
     fb6:	4303      	orrs	r3, r0
     fb8:	6213      	str	r3, [r2, #32]
     fba:	780b      	ldrb	r3, [r1, #0]
     fbc:	201c      	movs	r0, #28
     fbe:	079b      	lsls	r3, r3, #30
     fc0:	d503      	bpl.n	fca <dac_init+0x2a>
     fc2:	b002      	add	sp, #8
     fc4:	bc04      	pop	{r2}
     fc6:	4690      	mov	r8, r2
     fc8:	bdf0      	pop	{r4, r5, r6, r7, pc}
     fca:	780b      	ldrb	r3, [r1, #0]
     fcc:	3817      	subs	r0, #23
     fce:	07db      	lsls	r3, r3, #31
     fd0:	d4f7      	bmi.n	fc2 <dac_init+0x22>
     fd2:	a901      	add	r1, sp, #4
     fd4:	78e3      	ldrb	r3, [r4, #3]
     fd6:	700b      	strb	r3, [r1, #0]
     fd8:	301c      	adds	r0, #28
     fda:	4b20      	ldr	r3, [pc, #128]	; (105c <dac_init+0xbc>)
     fdc:	4798      	blx	r3
     fde:	2021      	movs	r0, #33	; 0x21
     fe0:	4b1f      	ldr	r3, [pc, #124]	; (1060 <dac_init+0xc0>)
     fe2:	4798      	blx	r3
     fe4:	2600      	movs	r6, #0
     fe6:	466b      	mov	r3, sp
     fe8:	705e      	strb	r6, [r3, #1]
     fea:	70de      	strb	r6, [r3, #3]
     fec:	2301      	movs	r3, #1
     fee:	466a      	mov	r2, sp
     ff0:	7013      	strb	r3, [r2, #0]
     ff2:	7096      	strb	r6, [r2, #2]
     ff4:	4669      	mov	r1, sp
     ff6:	2002      	movs	r0, #2
     ff8:	4b1a      	ldr	r3, [pc, #104]	; (1064 <dac_init+0xc4>)
     ffa:	4798      	blx	r3
     ffc:	682b      	ldr	r3, [r5, #0]
     ffe:	4698      	mov	r8, r3
    1000:	7863      	ldrb	r3, [r4, #1]
    1002:	712b      	strb	r3, [r5, #4]
    1004:	71ae      	strb	r6, [r5, #6]
    1006:	79a3      	ldrb	r3, [r4, #6]
    1008:	1e5a      	subs	r2, r3, #1
    100a:	4193      	sbcs	r3, r2
    100c:	009b      	lsls	r3, r3, #2
    100e:	7826      	ldrb	r6, [r4, #0]
    1010:	78a2      	ldrb	r2, [r4, #2]
    1012:	2a00      	cmp	r2, #0
    1014:	d001      	beq.n	101a <dac_init+0x7a>
    1016:	2204      	movs	r2, #4
    1018:	4316      	orrs	r6, r2
    101a:	7922      	ldrb	r2, [r4, #4]
    101c:	2a00      	cmp	r2, #0
    101e:	d001      	beq.n	1024 <dac_init+0x84>
    1020:	2210      	movs	r2, #16
    1022:	4316      	orrs	r6, r2
    1024:	7962      	ldrb	r2, [r4, #5]
    1026:	2a00      	cmp	r2, #0
    1028:	d001      	beq.n	102e <dac_init+0x8e>
    102a:	2208      	movs	r2, #8
    102c:	4316      	orrs	r6, r2
    102e:	b2db      	uxtb	r3, r3
    1030:	4642      	mov	r2, r8
    1032:	7013      	strb	r3, [r2, #0]
    1034:	4f0c      	ldr	r7, [pc, #48]	; (1068 <dac_init+0xc8>)
    1036:	0028      	movs	r0, r5
    1038:	47b8      	blx	r7
    103a:	2800      	cmp	r0, #0
    103c:	d1fb      	bne.n	1036 <dac_init+0x96>
    103e:	b2f6      	uxtb	r6, r6
    1040:	4643      	mov	r3, r8
    1042:	705e      	strb	r6, [r3, #1]
    1044:	7823      	ldrb	r3, [r4, #0]
    1046:	716b      	strb	r3, [r5, #5]
    1048:	2300      	movs	r3, #0
    104a:	616b      	str	r3, [r5, #20]
    104c:	61ab      	str	r3, [r5, #24]
    104e:	61eb      	str	r3, [r5, #28]
    1050:	4b06      	ldr	r3, [pc, #24]	; (106c <dac_init+0xcc>)
    1052:	601d      	str	r5, [r3, #0]
    1054:	e7b5      	b.n	fc2 <dac_init+0x22>
    1056:	46c0      	nop			; (mov r8, r8)
    1058:	40000400 	.word	0x40000400
    105c:	000089d5 	.word	0x000089d5
    1060:	00008949 	.word	0x00008949
    1064:	00008acd 	.word	0x00008acd
    1068:	00000f85 	.word	0x00000f85
    106c:	20001174 	.word	0x20001174

00001070 <dac_enable>:
    1070:	b570      	push	{r4, r5, r6, lr}
    1072:	0004      	movs	r4, r0
    1074:	6806      	ldr	r6, [r0, #0]
    1076:	7873      	ldrb	r3, [r6, #1]
    1078:	7902      	ldrb	r2, [r0, #4]
    107a:	4313      	orrs	r3, r2
    107c:	7073      	strb	r3, [r6, #1]
    107e:	4d09      	ldr	r5, [pc, #36]	; (10a4 <dac_enable+0x34>)
    1080:	0020      	movs	r0, r4
    1082:	47a8      	blx	r5
    1084:	2800      	cmp	r0, #0
    1086:	d1fb      	bne.n	1080 <dac_enable+0x10>
    1088:	7833      	ldrb	r3, [r6, #0]
    108a:	2202      	movs	r2, #2
    108c:	4313      	orrs	r3, r2
    108e:	7033      	strb	r3, [r6, #0]
    1090:	7963      	ldrb	r3, [r4, #5]
    1092:	2b00      	cmp	r3, #0
    1094:	d104      	bne.n	10a0 <dac_enable+0x30>
    1096:	4a04      	ldr	r2, [pc, #16]	; (10a8 <dac_enable+0x38>)
    1098:	6c13      	ldr	r3, [r2, #64]	; 0x40
    109a:	2104      	movs	r1, #4
    109c:	430b      	orrs	r3, r1
    109e:	6413      	str	r3, [r2, #64]	; 0x40
    10a0:	bd70      	pop	{r4, r5, r6, pc}
    10a2:	46c0      	nop			; (mov r8, r8)
    10a4:	00000f85 	.word	0x00000f85
    10a8:	40000800 	.word	0x40000800

000010ac <dac_chan_enable_output_buffer>:
    10ac:	6802      	ldr	r2, [r0, #0]
    10ae:	7853      	ldrb	r3, [r2, #1]
    10b0:	2101      	movs	r1, #1
    10b2:	430b      	orrs	r3, r1
    10b4:	7053      	strb	r3, [r2, #1]
    10b6:	4770      	bx	lr

000010b8 <dac_chan_write>:
    10b8:	b5f8      	push	{r3, r4, r5, r6, r7, lr}
    10ba:	0004      	movs	r4, r0
    10bc:	0017      	movs	r7, r2
    10be:	6806      	ldr	r6, [r0, #0]
    10c0:	4d06      	ldr	r5, [pc, #24]	; (10dc <dac_chan_write+0x24>)
    10c2:	0020      	movs	r0, r4
    10c4:	47a8      	blx	r5
    10c6:	2800      	cmp	r0, #0
    10c8:	d1fb      	bne.n	10c2 <dac_chan_write+0xa>
    10ca:	79a3      	ldrb	r3, [r4, #6]
    10cc:	2b00      	cmp	r3, #0
    10ce:	d102      	bne.n	10d6 <dac_chan_write+0x1e>
    10d0:	8137      	strh	r7, [r6, #8]
    10d2:	2000      	movs	r0, #0
    10d4:	bdf8      	pop	{r3, r4, r5, r6, r7, pc}
    10d6:	81b7      	strh	r7, [r6, #12]
    10d8:	e7fb      	b.n	10d2 <dac_chan_write+0x1a>
    10da:	46c0      	nop			; (mov r8, r8)
    10dc:	00000f85 	.word	0x00000f85

000010e0 <DAC_Handler>:
    10e0:	b570      	push	{r4, r5, r6, lr}
    10e2:	4b27      	ldr	r3, [pc, #156]	; (1180 <DAC_Handler+0xa0>)
    10e4:	681c      	ldr	r4, [r3, #0]
    10e6:	6825      	ldr	r5, [r4, #0]
    10e8:	79ab      	ldrb	r3, [r5, #6]
    10ea:	07db      	lsls	r3, r3, #31
    10ec:	d507      	bpl.n	10fe <DAC_Handler+0x1e>
    10ee:	2301      	movs	r3, #1
    10f0:	71ab      	strb	r3, [r5, #6]
    10f2:	0023      	movs	r3, r4
    10f4:	3314      	adds	r3, #20
    10f6:	d002      	beq.n	10fe <DAC_Handler+0x1e>
    10f8:	7c63      	ldrb	r3, [r4, #17]
    10fa:	2b00      	cmp	r3, #0
    10fc:	d131      	bne.n	1162 <DAC_Handler+0x82>
    10fe:	79ab      	ldrb	r3, [r5, #6]
    1100:	079b      	lsls	r3, r3, #30
    1102:	d538      	bpl.n	1176 <DAC_Handler+0x96>
    1104:	2302      	movs	r3, #2
    1106:	71ab      	strb	r3, [r5, #6]
    1108:	89a3      	ldrh	r3, [r4, #12]
    110a:	b29b      	uxth	r3, r3
    110c:	2b00      	cmp	r3, #0
    110e:	d02c      	beq.n	116a <DAC_Handler+0x8a>
    1110:	89e3      	ldrh	r3, [r4, #14]
    1112:	b29b      	uxth	r3, r3
    1114:	1c5a      	adds	r2, r3, #1
    1116:	b292      	uxth	r2, r2
    1118:	81e2      	strh	r2, [r4, #14]
    111a:	005b      	lsls	r3, r3, #1
    111c:	68a2      	ldr	r2, [r4, #8]
    111e:	4694      	mov	ip, r2
    1120:	4463      	add	r3, ip
    1122:	881b      	ldrh	r3, [r3, #0]
    1124:	b29b      	uxth	r3, r3
    1126:	81ab      	strh	r3, [r5, #12]
    1128:	89a3      	ldrh	r3, [r4, #12]
    112a:	3b01      	subs	r3, #1
    112c:	b29b      	uxth	r3, r3
    112e:	81a3      	strh	r3, [r4, #12]
    1130:	89a3      	ldrh	r3, [r4, #12]
    1132:	b29b      	uxth	r3, r3
    1134:	2b00      	cmp	r3, #0
    1136:	d118      	bne.n	116a <DAC_Handler+0x8a>
    1138:	2200      	movs	r2, #0
    113a:	3320      	adds	r3, #32
    113c:	54e2      	strb	r2, [r4, r3]
    113e:	3b1e      	subs	r3, #30
    1140:	712b      	strb	r3, [r5, #4]
    1142:	71ab      	strb	r3, [r5, #6]
    1144:	2180      	movs	r1, #128	; 0x80
    1146:	0489      	lsls	r1, r1, #18
    1148:	337e      	adds	r3, #126	; 0x7e
    114a:	4a0e      	ldr	r2, [pc, #56]	; (1184 <DAC_Handler+0xa4>)
    114c:	50d1      	str	r1, [r2, r3]
    114e:	0023      	movs	r3, r4
    1150:	3314      	adds	r3, #20
    1152:	d010      	beq.n	1176 <DAC_Handler+0x96>
    1154:	7ca3      	ldrb	r3, [r4, #18]
    1156:	2b00      	cmp	r3, #0
    1158:	d00a      	beq.n	1170 <DAC_Handler+0x90>
    115a:	2000      	movs	r0, #0
    115c:	69e3      	ldr	r3, [r4, #28]
    115e:	4798      	blx	r3
    1160:	e006      	b.n	1170 <DAC_Handler+0x90>
    1162:	2000      	movs	r0, #0
    1164:	69a3      	ldr	r3, [r4, #24]
    1166:	4798      	blx	r3
    1168:	e7c9      	b.n	10fe <DAC_Handler+0x1e>
    116a:	0023      	movs	r3, r4
    116c:	3314      	adds	r3, #20
    116e:	d002      	beq.n	1176 <DAC_Handler+0x96>
    1170:	7c23      	ldrb	r3, [r4, #16]
    1172:	2b00      	cmp	r3, #0
    1174:	d100      	bne.n	1178 <DAC_Handler+0x98>
    1176:	bd70      	pop	{r4, r5, r6, pc}
    1178:	6963      	ldr	r3, [r4, #20]
    117a:	2000      	movs	r0, #0
    117c:	4798      	blx	r3
    117e:	e7fa      	b.n	1176 <DAC_Handler+0x96>
    1180:	20001174 	.word	0x20001174
    1184:	e000e100 	.word	0xe000e100

00001188 <DMAC_Handler>:
    1188:	b510      	push	{r4, lr}
    118a:	4b26      	ldr	r3, [pc, #152]	; (1224 <DMAC_Handler+0x9c>)
    118c:	4798      	blx	r3
    118e:	4926      	ldr	r1, [pc, #152]	; (1228 <DMAC_Handler+0xa0>)
    1190:	8c0b      	ldrh	r3, [r1, #32]
    1192:	220f      	movs	r2, #15
    1194:	4013      	ands	r3, r2
    1196:	009b      	lsls	r3, r3, #2
    1198:	4824      	ldr	r0, [pc, #144]	; (122c <DMAC_Handler+0xa4>)
    119a:	5818      	ldr	r0, [r3, r0]
    119c:	7803      	ldrb	r3, [r0, #0]
    119e:	401a      	ands	r2, r3
    11a0:	233f      	movs	r3, #63	; 0x3f
    11a2:	54ca      	strb	r2, [r1, r3]
    11a4:	330f      	adds	r3, #15
    11a6:	5cca      	ldrb	r2, [r1, r3]
    11a8:	b2d2      	uxtb	r2, r2
    11aa:	7803      	ldrb	r3, [r0, #0]
    11ac:	011b      	lsls	r3, r3, #4
    11ae:	4920      	ldr	r1, [pc, #128]	; (1230 <DMAC_Handler+0xa8>)
    11b0:	18c9      	adds	r1, r1, r3
    11b2:	8849      	ldrh	r1, [r1, #2]
    11b4:	4c1f      	ldr	r4, [pc, #124]	; (1234 <DMAC_Handler+0xac>)
    11b6:	18e3      	adds	r3, r4, r3
    11b8:	885b      	ldrh	r3, [r3, #2]
    11ba:	1acb      	subs	r3, r1, r3
    11bc:	6143      	str	r3, [r0, #20]
    11be:	07d3      	lsls	r3, r2, #31
    11c0:	d50f      	bpl.n	11e2 <DMAC_Handler+0x5a>
    11c2:	2101      	movs	r1, #1
    11c4:	234e      	movs	r3, #78	; 0x4e
    11c6:	4a18      	ldr	r2, [pc, #96]	; (1228 <DMAC_Handler+0xa0>)
    11c8:	54d1      	strb	r1, [r2, r3]
    11ca:	3b3e      	subs	r3, #62	; 0x3e
    11cc:	7443      	strb	r3, [r0, #17]
    11ce:	7c03      	ldrb	r3, [r0, #16]
    11d0:	07db      	lsls	r3, r3, #31
    11d2:	d503      	bpl.n	11dc <DMAC_Handler+0x54>
    11d4:	6843      	ldr	r3, [r0, #4]
    11d6:	2b00      	cmp	r3, #0
    11d8:	d000      	beq.n	11dc <DMAC_Handler+0x54>
    11da:	4798      	blx	r3
    11dc:	4b16      	ldr	r3, [pc, #88]	; (1238 <DMAC_Handler+0xb0>)
    11de:	4798      	blx	r3
    11e0:	bd10      	pop	{r4, pc}
    11e2:	0793      	lsls	r3, r2, #30
    11e4:	d50d      	bpl.n	1202 <DMAC_Handler+0x7a>
    11e6:	2102      	movs	r1, #2
    11e8:	234e      	movs	r3, #78	; 0x4e
    11ea:	4a0f      	ldr	r2, [pc, #60]	; (1228 <DMAC_Handler+0xa0>)
    11ec:	54d1      	strb	r1, [r2, r3]
    11ee:	2300      	movs	r3, #0
    11f0:	7443      	strb	r3, [r0, #17]
    11f2:	7c03      	ldrb	r3, [r0, #16]
    11f4:	079b      	lsls	r3, r3, #30
    11f6:	d5f1      	bpl.n	11dc <DMAC_Handler+0x54>
    11f8:	6883      	ldr	r3, [r0, #8]
    11fa:	2b00      	cmp	r3, #0
    11fc:	d0ee      	beq.n	11dc <DMAC_Handler+0x54>
    11fe:	4798      	blx	r3
    1200:	e7ec      	b.n	11dc <DMAC_Handler+0x54>
    1202:	0753      	lsls	r3, r2, #29
    1204:	d5ea      	bpl.n	11dc <DMAC_Handler+0x54>
    1206:	2104      	movs	r1, #4
    1208:	234e      	movs	r3, #78	; 0x4e
    120a:	4a07      	ldr	r2, [pc, #28]	; (1228 <DMAC_Handler+0xa0>)
    120c:	54d1      	strb	r1, [r2, r3]
    120e:	3b48      	subs	r3, #72	; 0x48
    1210:	7443      	strb	r3, [r0, #17]
    1212:	7c03      	ldrb	r3, [r0, #16]
    1214:	075b      	lsls	r3, r3, #29
    1216:	d5e1      	bpl.n	11dc <DMAC_Handler+0x54>
    1218:	68c3      	ldr	r3, [r0, #12]
    121a:	2b00      	cmp	r3, #0
    121c:	d0de      	beq.n	11dc <DMAC_Handler+0x54>
    121e:	4798      	blx	r3
    1220:	e7dc      	b.n	11dc <DMAC_Handler+0x54>
    1222:	46c0      	nop			; (mov r8, r8)
    1224:	000082b9 	.word	0x000082b9
    1228:	41004800 	.word	0x41004800
    122c:	20000dd4 	.word	0x20000dd4
    1230:	20001180 	.word	0x20001180
    1234:	20000df0 	.word	0x20000df0
    1238:	000082f9 	.word	0x000082f9

0000123c <dma_get_config_defaults>:
    123c:	2300      	movs	r3, #0
    123e:	7003      	strb	r3, [r0, #0]
    1240:	7043      	strb	r3, [r0, #1]
    1242:	2203      	movs	r2, #3
    1244:	7082      	strb	r2, [r0, #2]
    1246:	70c3      	strb	r3, [r0, #3]
    1248:	7103      	strb	r3, [r0, #4]
    124a:	4770      	bx	lr

0000124c <dma_allocate>:
    124c:	b5f8      	push	{r3, r4, r5, r6, r7, lr}
    124e:	46ce      	mov	lr, r9
    1250:	4647      	mov	r7, r8
    1252:	b580      	push	{r7, lr}
    1254:	0005      	movs	r5, r0
    1256:	000e      	movs	r6, r1
    1258:	4b45      	ldr	r3, [pc, #276]	; (1370 <dma_allocate+0x124>)
    125a:	4798      	blx	r3
    125c:	4b45      	ldr	r3, [pc, #276]	; (1374 <dma_allocate+0x128>)
    125e:	781b      	ldrb	r3, [r3, #0]
    1260:	2b00      	cmp	r3, #0
    1262:	d118      	bne.n	1296 <dma_allocate+0x4a>
    1264:	4b44      	ldr	r3, [pc, #272]	; (1378 <dma_allocate+0x12c>)
    1266:	695a      	ldr	r2, [r3, #20]
    1268:	2120      	movs	r1, #32
    126a:	430a      	orrs	r2, r1
    126c:	615a      	str	r2, [r3, #20]
    126e:	69da      	ldr	r2, [r3, #28]
    1270:	3910      	subs	r1, #16
    1272:	430a      	orrs	r2, r1
    1274:	61da      	str	r2, [r3, #28]
    1276:	4b41      	ldr	r3, [pc, #260]	; (137c <dma_allocate+0x130>)
    1278:	881a      	ldrh	r2, [r3, #0]
    127a:	390e      	subs	r1, #14
    127c:	438a      	bics	r2, r1
    127e:	801a      	strh	r2, [r3, #0]
    1280:	2201      	movs	r2, #1
    1282:	801a      	strh	r2, [r3, #0]
    1284:	4a3e      	ldr	r2, [pc, #248]	; (1380 <dma_allocate+0x134>)
    1286:	635a      	str	r2, [r3, #52]	; 0x34
    1288:	4a3e      	ldr	r2, [pc, #248]	; (1384 <dma_allocate+0x138>)
    128a:	639a      	str	r2, [r3, #56]	; 0x38
    128c:	4a3e      	ldr	r2, [pc, #248]	; (1388 <dma_allocate+0x13c>)
    128e:	801a      	strh	r2, [r3, #0]
    1290:	4b38      	ldr	r3, [pc, #224]	; (1374 <dma_allocate+0x128>)
    1292:	2201      	movs	r2, #1
    1294:	701a      	strb	r2, [r3, #0]
    1296:	4b36      	ldr	r3, [pc, #216]	; (1370 <dma_allocate+0x124>)
    1298:	4798      	blx	r3
    129a:	4b36      	ldr	r3, [pc, #216]	; (1374 <dma_allocate+0x128>)
    129c:	685b      	ldr	r3, [r3, #4]
    129e:	07da      	lsls	r2, r3, #31
    12a0:	d50f      	bpl.n	12c2 <dma_allocate+0x76>
    12a2:	085b      	lsrs	r3, r3, #1
    12a4:	2401      	movs	r4, #1
    12a6:	2201      	movs	r2, #1
    12a8:	421a      	tst	r2, r3
    12aa:	d00b      	beq.n	12c4 <dma_allocate+0x78>
    12ac:	085b      	lsrs	r3, r3, #1
    12ae:	3401      	adds	r4, #1
    12b0:	b2e4      	uxtb	r4, r4
    12b2:	2c05      	cmp	r4, #5
    12b4:	d1f8      	bne.n	12a8 <dma_allocate+0x5c>
    12b6:	4b35      	ldr	r3, [pc, #212]	; (138c <dma_allocate+0x140>)
    12b8:	4798      	blx	r3
    12ba:	4b34      	ldr	r3, [pc, #208]	; (138c <dma_allocate+0x140>)
    12bc:	4798      	blx	r3
    12be:	2014      	movs	r0, #20
    12c0:	e051      	b.n	1366 <dma_allocate+0x11a>
    12c2:	2400      	movs	r4, #0
    12c4:	4a2b      	ldr	r2, [pc, #172]	; (1374 <dma_allocate+0x128>)
    12c6:	6851      	ldr	r1, [r2, #4]
    12c8:	2301      	movs	r3, #1
    12ca:	40a3      	lsls	r3, r4
    12cc:	430b      	orrs	r3, r1
    12ce:	6053      	str	r3, [r2, #4]
    12d0:	7a13      	ldrb	r3, [r2, #8]
    12d2:	3b01      	subs	r3, #1
    12d4:	7213      	strb	r3, [r2, #8]
    12d6:	4b2d      	ldr	r3, [pc, #180]	; (138c <dma_allocate+0x140>)
    12d8:	4798      	blx	r3
    12da:	2cff      	cmp	r4, #255	; 0xff
    12dc:	d0ed      	beq.n	12ba <dma_allocate+0x6e>
    12de:	702c      	strb	r4, [r5, #0]
    12e0:	230f      	movs	r3, #15
    12e2:	4698      	mov	r8, r3
    12e4:	401c      	ands	r4, r3
    12e6:	4f25      	ldr	r7, [pc, #148]	; (137c <dma_allocate+0x130>)
    12e8:	3330      	adds	r3, #48	; 0x30
    12ea:	4699      	mov	r9, r3
    12ec:	54fc      	strb	r4, [r7, r3]
    12ee:	3301      	adds	r3, #1
    12f0:	5cfa      	ldrb	r2, [r7, r3]
    12f2:	2102      	movs	r1, #2
    12f4:	438a      	bics	r2, r1
    12f6:	54fa      	strb	r2, [r7, r3]
    12f8:	2401      	movs	r4, #1
    12fa:	54fc      	strb	r4, [r7, r3]
    12fc:	4b1c      	ldr	r3, [pc, #112]	; (1370 <dma_allocate+0x124>)
    12fe:	4798      	blx	r3
    1300:	782b      	ldrb	r3, [r5, #0]
    1302:	4642      	mov	r2, r8
    1304:	4013      	ands	r3, r2
    1306:	464a      	mov	r2, r9
    1308:	54bb      	strb	r3, [r7, r2]
    130a:	693b      	ldr	r3, [r7, #16]
    130c:	782a      	ldrb	r2, [r5, #0]
    130e:	4094      	lsls	r4, r2
    1310:	43a3      	bics	r3, r4
    1312:	613b      	str	r3, [r7, #16]
    1314:	7832      	ldrb	r2, [r6, #0]
    1316:	0152      	lsls	r2, r2, #5
    1318:	2360      	movs	r3, #96	; 0x60
    131a:	4013      	ands	r3, r2
    131c:	7872      	ldrb	r2, [r6, #1]
    131e:	0212      	lsls	r2, r2, #8
    1320:	21fc      	movs	r1, #252	; 0xfc
    1322:	0189      	lsls	r1, r1, #6
    1324:	400a      	ands	r2, r1
    1326:	4313      	orrs	r3, r2
    1328:	78b2      	ldrb	r2, [r6, #2]
    132a:	0592      	lsls	r2, r2, #22
    132c:	21c0      	movs	r1, #192	; 0xc0
    132e:	0409      	lsls	r1, r1, #16
    1330:	400a      	ands	r2, r1
    1332:	4313      	orrs	r3, r2
    1334:	78f1      	ldrb	r1, [r6, #3]
    1336:	2900      	cmp	r1, #0
    1338:	d004      	beq.n	1344 <dma_allocate+0xf8>
    133a:	2207      	movs	r2, #7
    133c:	400a      	ands	r2, r1
    133e:	2108      	movs	r1, #8
    1340:	430a      	orrs	r2, r1
    1342:	4313      	orrs	r3, r2
    1344:	7932      	ldrb	r2, [r6, #4]
    1346:	2a00      	cmp	r2, #0
    1348:	d001      	beq.n	134e <dma_allocate+0x102>
    134a:	2210      	movs	r2, #16
    134c:	4313      	orrs	r3, r2
    134e:	4a0b      	ldr	r2, [pc, #44]	; (137c <dma_allocate+0x130>)
    1350:	6453      	str	r3, [r2, #68]	; 0x44
    1352:	4c0e      	ldr	r4, [pc, #56]	; (138c <dma_allocate+0x140>)
    1354:	47a0      	blx	r4
    1356:	2300      	movs	r3, #0
    1358:	61ab      	str	r3, [r5, #24]
    135a:	782b      	ldrb	r3, [r5, #0]
    135c:	009b      	lsls	r3, r3, #2
    135e:	4a0c      	ldr	r2, [pc, #48]	; (1390 <dma_allocate+0x144>)
    1360:	509d      	str	r5, [r3, r2]
    1362:	47a0      	blx	r4
    1364:	2000      	movs	r0, #0
    1366:	bc0c      	pop	{r2, r3}
    1368:	4690      	mov	r8, r2
    136a:	4699      	mov	r9, r3
    136c:	bdf8      	pop	{r3, r4, r5, r6, r7, pc}
    136e:	46c0      	nop			; (mov r8, r8)
    1370:	000082b9 	.word	0x000082b9
    1374:	2000000c 	.word	0x2000000c
    1378:	40000400 	.word	0x40000400
    137c:	41004800 	.word	0x41004800
    1380:	20001180 	.word	0x20001180
    1384:	20000df0 	.word	0x20000df0
    1388:	00000f02 	.word	0x00000f02
    138c:	000082f9 	.word	0x000082f9
    1390:	20000dd4 	.word	0x20000dd4

00001394 <dma_start_transfer_job>:
    1394:	b570      	push	{r4, r5, r6, lr}
    1396:	0004      	movs	r4, r0
    1398:	4b19      	ldr	r3, [pc, #100]	; (1400 <dma_start_transfer_job+0x6c>)
    139a:	4798      	blx	r3
    139c:	7c63      	ldrb	r3, [r4, #17]
    139e:	2b05      	cmp	r3, #5
    13a0:	d008      	beq.n	13b4 <dma_start_transfer_job+0x20>
    13a2:	69a3      	ldr	r3, [r4, #24]
    13a4:	885b      	ldrh	r3, [r3, #2]
    13a6:	b29b      	uxth	r3, r3
    13a8:	2b00      	cmp	r3, #0
    13aa:	d107      	bne.n	13bc <dma_start_transfer_job+0x28>
    13ac:	4b15      	ldr	r3, [pc, #84]	; (1404 <dma_start_transfer_job+0x70>)
    13ae:	4798      	blx	r3
    13b0:	2017      	movs	r0, #23
    13b2:	bd70      	pop	{r4, r5, r6, pc}
    13b4:	4b13      	ldr	r3, [pc, #76]	; (1404 <dma_start_transfer_job+0x70>)
    13b6:	4798      	blx	r3
    13b8:	2005      	movs	r0, #5
    13ba:	e7fa      	b.n	13b2 <dma_start_transfer_job+0x1e>
    13bc:	2640      	movs	r6, #64	; 0x40
    13be:	4b12      	ldr	r3, [pc, #72]	; (1408 <dma_start_transfer_job+0x74>)
    13c0:	601e      	str	r6, [r3, #0]
    13c2:	7822      	ldrb	r2, [r4, #0]
    13c4:	230f      	movs	r3, #15
    13c6:	4013      	ands	r3, r2
    13c8:	4d10      	ldr	r5, [pc, #64]	; (140c <dma_start_transfer_job+0x78>)
    13ca:	223f      	movs	r2, #63	; 0x3f
    13cc:	54ab      	strb	r3, [r5, r2]
    13ce:	7823      	ldrb	r3, [r4, #0]
    13d0:	4a0f      	ldr	r2, [pc, #60]	; (1410 <dma_start_transfer_job+0x7c>)
    13d2:	5cd2      	ldrb	r2, [r2, r3]
    13d4:	2307      	movs	r3, #7
    13d6:	4013      	ands	r3, r2
    13d8:	224d      	movs	r2, #77	; 0x4d
    13da:	54ab      	strb	r3, [r5, r2]
    13dc:	2305      	movs	r3, #5
    13de:	7463      	strb	r3, [r4, #17]
    13e0:	7820      	ldrb	r0, [r4, #0]
    13e2:	0100      	lsls	r0, r0, #4
    13e4:	4b0b      	ldr	r3, [pc, #44]	; (1414 <dma_start_transfer_job+0x80>)
    13e6:	18c0      	adds	r0, r0, r3
    13e8:	69a1      	ldr	r1, [r4, #24]
    13ea:	3a3d      	subs	r2, #61	; 0x3d
    13ec:	4b0a      	ldr	r3, [pc, #40]	; (1418 <dma_start_transfer_job+0x84>)
    13ee:	4798      	blx	r3
    13f0:	5dab      	ldrb	r3, [r5, r6]
    13f2:	2202      	movs	r2, #2
    13f4:	4313      	orrs	r3, r2
    13f6:	55ab      	strb	r3, [r5, r6]
    13f8:	4b02      	ldr	r3, [pc, #8]	; (1404 <dma_start_transfer_job+0x70>)
    13fa:	4798      	blx	r3
    13fc:	2000      	movs	r0, #0
    13fe:	e7d8      	b.n	13b2 <dma_start_transfer_job+0x1e>
    1400:	000082b9 	.word	0x000082b9
    1404:	000082f9 	.word	0x000082f9
    1408:	e000e100 	.word	0xe000e100
    140c:	41004800 	.word	0x41004800
    1410:	20000e40 	.word	0x20000e40
    1414:	20001180 	.word	0x20001180
    1418:	0000bded 	.word	0x0000bded

0000141c <dma_abort_job>:
    141c:	b510      	push	{r4, lr}
    141e:	0004      	movs	r4, r0
    1420:	4b0c      	ldr	r3, [pc, #48]	; (1454 <dma_abort_job+0x38>)
    1422:	4798      	blx	r3
    1424:	7822      	ldrb	r2, [r4, #0]
    1426:	230f      	movs	r3, #15
    1428:	4013      	ands	r3, r2
    142a:	4a0b      	ldr	r2, [pc, #44]	; (1458 <dma_abort_job+0x3c>)
    142c:	213f      	movs	r1, #63	; 0x3f
    142e:	5453      	strb	r3, [r2, r1]
    1430:	2100      	movs	r1, #0
    1432:	2340      	movs	r3, #64	; 0x40
    1434:	54d1      	strb	r1, [r2, r3]
    1436:	4b09      	ldr	r3, [pc, #36]	; (145c <dma_abort_job+0x40>)
    1438:	4798      	blx	r3
    143a:	7823      	ldrb	r3, [r4, #0]
    143c:	011b      	lsls	r3, r3, #4
    143e:	4a08      	ldr	r2, [pc, #32]	; (1460 <dma_abort_job+0x44>)
    1440:	18d2      	adds	r2, r2, r3
    1442:	8852      	ldrh	r2, [r2, #2]
    1444:	4907      	ldr	r1, [pc, #28]	; (1464 <dma_abort_job+0x48>)
    1446:	18cb      	adds	r3, r1, r3
    1448:	885b      	ldrh	r3, [r3, #2]
    144a:	1ad3      	subs	r3, r2, r3
    144c:	6163      	str	r3, [r4, #20]
    144e:	2304      	movs	r3, #4
    1450:	7463      	strb	r3, [r4, #17]
    1452:	bd10      	pop	{r4, pc}
    1454:	000082b9 	.word	0x000082b9
    1458:	41004800 	.word	0x41004800
    145c:	000082f9 	.word	0x000082f9
    1460:	20001180 	.word	0x20001180
    1464:	20000df0 	.word	0x20000df0

00001468 <dma_resume_job>:
    1468:	b570      	push	{r4, r5, r6, lr}
    146a:	0005      	movs	r5, r0
    146c:	7c43      	ldrb	r3, [r0, #17]
    146e:	2b06      	cmp	r3, #6
    1470:	d000      	beq.n	1474 <dma_resume_job+0xc>
    1472:	bd70      	pop	{r4, r5, r6, pc}
    1474:	7803      	ldrb	r3, [r0, #0]
    1476:	2401      	movs	r4, #1
    1478:	409c      	lsls	r4, r3
    147a:	4b11      	ldr	r3, [pc, #68]	; (14c0 <dma_resume_job+0x58>)
    147c:	4798      	blx	r3
    147e:	782a      	ldrb	r2, [r5, #0]
    1480:	230f      	movs	r3, #15
    1482:	4013      	ands	r3, r2
    1484:	4e0f      	ldr	r6, [pc, #60]	; (14c4 <dma_resume_job+0x5c>)
    1486:	223f      	movs	r2, #63	; 0x3f
    1488:	54b3      	strb	r3, [r6, r2]
    148a:	6c72      	ldr	r2, [r6, #68]	; 0x44
    148c:	2380      	movs	r3, #128	; 0x80
    148e:	049b      	lsls	r3, r3, #18
    1490:	4313      	orrs	r3, r2
    1492:	6473      	str	r3, [r6, #68]	; 0x44
    1494:	4b0c      	ldr	r3, [pc, #48]	; (14c8 <dma_resume_job+0x60>)
    1496:	4798      	blx	r3
    1498:	6ab3      	ldr	r3, [r6, #40]	; 0x28
    149a:	4023      	ands	r3, r4
    149c:	429c      	cmp	r4, r3
    149e:	d00b      	beq.n	14b8 <dma_resume_job+0x50>
    14a0:	4a0a      	ldr	r2, [pc, #40]	; (14cc <dma_resume_job+0x64>)
    14a2:	0031      	movs	r1, r6
    14a4:	6a8b      	ldr	r3, [r1, #40]	; 0x28
    14a6:	4023      	ands	r3, r4
    14a8:	429c      	cmp	r4, r3
    14aa:	d005      	beq.n	14b8 <dma_resume_job+0x50>
    14ac:	3a01      	subs	r2, #1
    14ae:	2a00      	cmp	r2, #0
    14b0:	d1f8      	bne.n	14a4 <dma_resume_job+0x3c>
    14b2:	2312      	movs	r3, #18
    14b4:	746b      	strb	r3, [r5, #17]
    14b6:	e7dc      	b.n	1472 <dma_resume_job+0xa>
    14b8:	2305      	movs	r3, #5
    14ba:	746b      	strb	r3, [r5, #17]
    14bc:	e7d9      	b.n	1472 <dma_resume_job+0xa>
    14be:	46c0      	nop			; (mov r8, r8)
    14c0:	000082b9 	.word	0x000082b9
    14c4:	41004800 	.word	0x41004800
    14c8:	000082f9 	.word	0x000082f9
    14cc:	0000270f 	.word	0x0000270f

000014d0 <dma_descriptor_create>:
    14d0:	b5f0      	push	{r4, r5, r6, r7, lr}
    14d2:	780a      	ldrb	r2, [r1, #0]
    14d4:	8803      	ldrh	r3, [r0, #0]
    14d6:	2601      	movs	r6, #1
    14d8:	4032      	ands	r2, r6
    14da:	2401      	movs	r4, #1
    14dc:	43a3      	bics	r3, r4
    14de:	4313      	orrs	r3, r2
    14e0:	8003      	strh	r3, [r0, #0]
    14e2:	784b      	ldrb	r3, [r1, #1]
    14e4:	8804      	ldrh	r4, [r0, #0]
    14e6:	2703      	movs	r7, #3
    14e8:	403b      	ands	r3, r7
    14ea:	005b      	lsls	r3, r3, #1
    14ec:	2206      	movs	r2, #6
    14ee:	4394      	bics	r4, r2
    14f0:	431c      	orrs	r4, r3
    14f2:	8004      	strh	r4, [r0, #0]
    14f4:	788d      	ldrb	r5, [r1, #2]
    14f6:	8804      	ldrh	r4, [r0, #0]
    14f8:	403d      	ands	r5, r7
    14fa:	00ed      	lsls	r5, r5, #3
    14fc:	2318      	movs	r3, #24
    14fe:	439c      	bics	r4, r3
    1500:	432c      	orrs	r4, r5
    1502:	8004      	strh	r4, [r0, #0]
    1504:	78ca      	ldrb	r2, [r1, #3]
    1506:	8803      	ldrh	r3, [r0, #0]
    1508:	403a      	ands	r2, r7
    150a:	0212      	lsls	r2, r2, #8
    150c:	4c16      	ldr	r4, [pc, #88]	; (1568 <dma_descriptor_create+0x98>)
    150e:	4023      	ands	r3, r4
    1510:	4313      	orrs	r3, r2
    1512:	8003      	strh	r3, [r0, #0]
    1514:	790b      	ldrb	r3, [r1, #4]
    1516:	8804      	ldrh	r4, [r0, #0]
    1518:	4033      	ands	r3, r6
    151a:	029b      	lsls	r3, r3, #10
    151c:	4a13      	ldr	r2, [pc, #76]	; (156c <dma_descriptor_create+0x9c>)
    151e:	4014      	ands	r4, r2
    1520:	431c      	orrs	r4, r3
    1522:	8004      	strh	r4, [r0, #0]
    1524:	794d      	ldrb	r5, [r1, #5]
    1526:	8804      	ldrh	r4, [r0, #0]
    1528:	4035      	ands	r5, r6
    152a:	02ed      	lsls	r5, r5, #11
    152c:	4b10      	ldr	r3, [pc, #64]	; (1570 <dma_descriptor_create+0xa0>)
    152e:	401c      	ands	r4, r3
    1530:	432c      	orrs	r4, r5
    1532:	8004      	strh	r4, [r0, #0]
    1534:	798a      	ldrb	r2, [r1, #6]
    1536:	8803      	ldrh	r3, [r0, #0]
    1538:	4032      	ands	r2, r6
    153a:	0312      	lsls	r2, r2, #12
    153c:	4c0d      	ldr	r4, [pc, #52]	; (1574 <dma_descriptor_create+0xa4>)
    153e:	4023      	ands	r3, r4
    1540:	4313      	orrs	r3, r2
    1542:	8003      	strh	r3, [r0, #0]
    1544:	79cb      	ldrb	r3, [r1, #7]
    1546:	2207      	movs	r2, #7
    1548:	401a      	ands	r2, r3
    154a:	8803      	ldrh	r3, [r0, #0]
    154c:	0352      	lsls	r2, r2, #13
    154e:	04db      	lsls	r3, r3, #19
    1550:	0cdb      	lsrs	r3, r3, #19
    1552:	4313      	orrs	r3, r2
    1554:	8003      	strh	r3, [r0, #0]
    1556:	890b      	ldrh	r3, [r1, #8]
    1558:	8043      	strh	r3, [r0, #2]
    155a:	68cb      	ldr	r3, [r1, #12]
    155c:	6043      	str	r3, [r0, #4]
    155e:	690b      	ldr	r3, [r1, #16]
    1560:	6083      	str	r3, [r0, #8]
    1562:	694b      	ldr	r3, [r1, #20]
    1564:	60c3      	str	r3, [r0, #12]
    1566:	bdf0      	pop	{r4, r5, r6, r7, pc}
    1568:	fffffcff 	.word	0xfffffcff
    156c:	fffffbff 	.word	0xfffffbff
    1570:	fffff7ff 	.word	0xfffff7ff
    1574:	ffffefff 	.word	0xffffefff

00001578 <dma_add_descriptor>:
    1578:	7c42      	ldrb	r2, [r0, #17]
    157a:	2305      	movs	r3, #5
    157c:	2a05      	cmp	r2, #5
    157e:	d00b      	beq.n	1598 <dma_add_descriptor+0x20>
    1580:	6983      	ldr	r3, [r0, #24]
    1582:	2b00      	cmp	r3, #0
    1584:	d00a      	beq.n	159c <dma_add_descriptor+0x24>
    1586:	68da      	ldr	r2, [r3, #12]
    1588:	2a00      	cmp	r2, #0
    158a:	d003      	beq.n	1594 <dma_add_descriptor+0x1c>
    158c:	68db      	ldr	r3, [r3, #12]
    158e:	68da      	ldr	r2, [r3, #12]
    1590:	2a00      	cmp	r2, #0
    1592:	d1fb      	bne.n	158c <dma_add_descriptor+0x14>
    1594:	60d9      	str	r1, [r3, #12]
    1596:	2300      	movs	r3, #0
    1598:	0018      	movs	r0, r3
    159a:	4770      	bx	lr
    159c:	6181      	str	r1, [r0, #24]
    159e:	2300      	movs	r3, #0
    15a0:	e7fa      	b.n	1598 <dma_add_descriptor+0x20>
	...

000015a4 <_tcc_interrupt_handler>:
    15a4:	b5f0      	push	{r4, r5, r6, r7, lr}
    15a6:	46c6      	mov	lr, r8
    15a8:	b500      	push	{lr}
    15aa:	0080      	lsls	r0, r0, #2
    15ac:	4b0e      	ldr	r3, [pc, #56]	; (15e8 <_tcc_interrupt_handler+0x44>)
    15ae:	58c7      	ldr	r7, [r0, r3]
    15b0:	683b      	ldr	r3, [r7, #0]
    15b2:	6ade      	ldr	r6, [r3, #44]	; 0x2c
    15b4:	6bbb      	ldr	r3, [r7, #56]	; 0x38
    15b6:	6b7a      	ldr	r2, [r7, #52]	; 0x34
    15b8:	4013      	ands	r3, r2
    15ba:	401e      	ands	r6, r3
    15bc:	2400      	movs	r4, #0
    15be:	4b0b      	ldr	r3, [pc, #44]	; (15ec <_tcc_interrupt_handler+0x48>)
    15c0:	4698      	mov	r8, r3
    15c2:	e002      	b.n	15ca <_tcc_interrupt_handler+0x26>
    15c4:	3404      	adds	r4, #4
    15c6:	2c30      	cmp	r4, #48	; 0x30
    15c8:	d00a      	beq.n	15e0 <_tcc_interrupt_handler+0x3c>
    15ca:	4643      	mov	r3, r8
    15cc:	58e5      	ldr	r5, [r4, r3]
    15ce:	4235      	tst	r5, r6
    15d0:	d0f8      	beq.n	15c4 <_tcc_interrupt_handler+0x20>
    15d2:	193b      	adds	r3, r7, r4
    15d4:	685b      	ldr	r3, [r3, #4]
    15d6:	0038      	movs	r0, r7
    15d8:	4798      	blx	r3
    15da:	683b      	ldr	r3, [r7, #0]
    15dc:	62dd      	str	r5, [r3, #44]	; 0x2c
    15de:	e7f1      	b.n	15c4 <_tcc_interrupt_handler+0x20>
    15e0:	bc04      	pop	{r2}
    15e2:	4690      	mov	r8, r2
    15e4:	bdf0      	pop	{r4, r5, r6, r7, pc}
    15e6:	46c0      	nop			; (mov r8, r8)
    15e8:	200011d0 	.word	0x200011d0
    15ec:	0000bf34 	.word	0x0000bf34

000015f0 <TCC0_Handler>:
    15f0:	b510      	push	{r4, lr}
    15f2:	2000      	movs	r0, #0
    15f4:	4b01      	ldr	r3, [pc, #4]	; (15fc <TCC0_Handler+0xc>)
    15f6:	4798      	blx	r3
    15f8:	bd10      	pop	{r4, pc}
    15fa:	46c0      	nop			; (mov r8, r8)
    15fc:	000015a5 	.word	0x000015a5

00001600 <TCC1_Handler>:
    1600:	b510      	push	{r4, lr}
    1602:	2001      	movs	r0, #1
    1604:	4b01      	ldr	r3, [pc, #4]	; (160c <TCC1_Handler+0xc>)
    1606:	4798      	blx	r3
    1608:	bd10      	pop	{r4, pc}
    160a:	46c0      	nop			; (mov r8, r8)
    160c:	000015a5 	.word	0x000015a5

00001610 <TCC2_Handler>:
    1610:	b510      	push	{r4, lr}
    1612:	2002      	movs	r0, #2
    1614:	4b01      	ldr	r3, [pc, #4]	; (161c <TCC2_Handler+0xc>)
    1616:	4798      	blx	r3
    1618:	bd10      	pop	{r4, pc}
    161a:	46c0      	nop			; (mov r8, r8)
    161c:	000015a5 	.word	0x000015a5

00001620 <CAP1203_Write>:
    1620:	b500      	push	{lr}
    1622:	b083      	sub	sp, #12
    1624:	0003      	movs	r3, r0
    1626:	466a      	mov	r2, sp
    1628:	1dd0      	adds	r0, r2, #7
    162a:	7001      	strb	r1, [r0, #0]
    162c:	b299      	uxth	r1, r3
    162e:	2201      	movs	r2, #1
    1630:	4b01      	ldr	r3, [pc, #4]	; (1638 <CAP1203_Write+0x18>)
    1632:	4798      	blx	r3
    1634:	b003      	add	sp, #12
    1636:	bd00      	pop	{pc}
    1638:	00002d41 	.word	0x00002d41

0000163c <CAP1203_Config>:
    163c:	b5f8      	push	{r3, r4, r5, r6, r7, lr}
    163e:	0005      	movs	r5, r0
    1640:	000e      	movs	r6, r1
    1642:	0017      	movs	r7, r2
    1644:	2103      	movs	r1, #3
    1646:	4001      	ands	r1, r0
    1648:	2021      	movs	r0, #33	; 0x21
    164a:	4c06      	ldr	r4, [pc, #24]	; (1664 <CAP1203_Config+0x28>)
    164c:	47a0      	blx	r4
    164e:	0029      	movs	r1, r5
    1650:	2026      	movs	r0, #38	; 0x26
    1652:	47a0      	blx	r4
    1654:	0039      	movs	r1, r7
    1656:	2024      	movs	r0, #36	; 0x24
    1658:	47a0      	blx	r4
    165a:	0031      	movs	r1, r6
    165c:	201f      	movs	r0, #31
    165e:	47a0      	blx	r4
    1660:	bdf8      	pop	{r3, r4, r5, r6, r7, pc}
    1662:	46c0      	nop			; (mov r8, r8)
    1664:	00001621 	.word	0x00001621

00001668 <CAP1203_Read>:
    1668:	b510      	push	{r4, lr}
    166a:	b082      	sub	sp, #8
    166c:	b281      	uxth	r1, r0
    166e:	466b      	mov	r3, sp
    1670:	1ddc      	adds	r4, r3, #7
    1672:	2201      	movs	r2, #1
    1674:	0020      	movs	r0, r4
    1676:	4b02      	ldr	r3, [pc, #8]	; (1680 <CAP1203_Read+0x18>)
    1678:	4798      	blx	r3
    167a:	7820      	ldrb	r0, [r4, #0]
    167c:	b002      	add	sp, #8
    167e:	bd10      	pop	{r4, pc}
    1680:	00002cc9 	.word	0x00002cc9

00001684 <CAP1203_ActiveMode>:
    1684:	b510      	push	{r4, lr}
    1686:	2000      	movs	r0, #0
    1688:	4c04      	ldr	r4, [pc, #16]	; (169c <CAP1203_ActiveMode+0x18>)
    168a:	47a0      	blx	r4
    168c:	21df      	movs	r1, #223	; 0xdf
    168e:	4001      	ands	r1, r0
    1690:	2000      	movs	r0, #0
    1692:	4b03      	ldr	r3, [pc, #12]	; (16a0 <CAP1203_ActiveMode+0x1c>)
    1694:	4798      	blx	r3
    1696:	2000      	movs	r0, #0
    1698:	47a0      	blx	r4
    169a:	bd10      	pop	{r4, pc}
    169c:	00001669 	.word	0x00001669
    16a0:	00001621 	.word	0x00001621

000016a4 <CAP1203_GetStatusReg>:
    16a4:	b510      	push	{r4, lr}
    16a6:	2002      	movs	r0, #2
    16a8:	4b01      	ldr	r3, [pc, #4]	; (16b0 <CAP1203_GetStatusReg+0xc>)
    16aa:	4798      	blx	r3
    16ac:	bd10      	pop	{r4, pc}
    16ae:	46c0      	nop			; (mov r8, r8)
    16b0:	00001669 	.word	0x00001669

000016b4 <CAP1203_ReadPressedButton>:
    16b4:	b530      	push	{r4, r5, lr}
    16b6:	b083      	sub	sp, #12
    16b8:	4b10      	ldr	r3, [pc, #64]	; (16fc <CAP1203_ReadPressedButton+0x48>)
    16ba:	4798      	blx	r3
    16bc:	466b      	mov	r3, sp
    16be:	71d8      	strb	r0, [r3, #7]
    16c0:	3307      	adds	r3, #7
    16c2:	781b      	ldrb	r3, [r3, #0]
    16c4:	2400      	movs	r4, #0
    16c6:	07db      	lsls	r3, r3, #31
    16c8:	d402      	bmi.n	16d0 <CAP1203_ReadPressedButton+0x1c>
    16ca:	0020      	movs	r0, r4
    16cc:	b003      	add	sp, #12
    16ce:	bd30      	pop	{r4, r5, pc}
    16d0:	2003      	movs	r0, #3
    16d2:	4b0b      	ldr	r3, [pc, #44]	; (1700 <CAP1203_ReadPressedButton+0x4c>)
    16d4:	4798      	blx	r3
    16d6:	1e04      	subs	r4, r0, #0
    16d8:	d00d      	beq.n	16f6 <CAP1203_ReadPressedButton+0x42>
    16da:	2802      	cmp	r0, #2
    16dc:	d807      	bhi.n	16ee <CAP1203_ReadPressedButton+0x3a>
    16de:	2100      	movs	r1, #0
    16e0:	2000      	movs	r0, #0
    16e2:	4d08      	ldr	r5, [pc, #32]	; (1704 <CAP1203_ReadPressedButton+0x50>)
    16e4:	47a8      	blx	r5
    16e6:	2107      	movs	r1, #7
    16e8:	2026      	movs	r0, #38	; 0x26
    16ea:	47a8      	blx	r5
    16ec:	e7ed      	b.n	16ca <CAP1203_ReadPressedButton+0x16>
    16ee:	2804      	cmp	r0, #4
    16f0:	d101      	bne.n	16f6 <CAP1203_ReadPressedButton+0x42>
    16f2:	3c01      	subs	r4, #1
    16f4:	e7f3      	b.n	16de <CAP1203_ReadPressedButton+0x2a>
    16f6:	2400      	movs	r4, #0
    16f8:	e7f1      	b.n	16de <CAP1203_ReadPressedButton+0x2a>
    16fa:	46c0      	nop			; (mov r8, r8)
    16fc:	000016a5 	.word	0x000016a5
    1700:	00001669 	.word	0x00001669
    1704:	00001621 	.word	0x00001621

00001708 <CAP1203_ReadID>:
    1708:	b570      	push	{r4, r5, r6, lr}
    170a:	20fd      	movs	r0, #253	; 0xfd
    170c:	4c04      	ldr	r4, [pc, #16]	; (1720 <CAP1203_ReadID+0x18>)
    170e:	47a0      	blx	r4
    1710:	0005      	movs	r5, r0
    1712:	20fe      	movs	r0, #254	; 0xfe
    1714:	47a0      	blx	r4
    1716:	0200      	lsls	r0, r0, #8
    1718:	4328      	orrs	r0, r5
    171a:	b280      	uxth	r0, r0
    171c:	bd70      	pop	{r4, r5, r6, pc}
    171e:	46c0      	nop			; (mov r8, r8)
    1720:	00001669 	.word	0x00001669

00001724 <CAP1203_Initialize>:
    1724:	b510      	push	{r4, lr}
    1726:	4b0a      	ldr	r3, [pc, #40]	; (1750 <CAP1203_Initialize+0x2c>)
    1728:	4798      	blx	r3
    172a:	4b0a      	ldr	r3, [pc, #40]	; (1754 <CAP1203_Initialize+0x30>)
    172c:	4798      	blx	r3
    172e:	b2c0      	uxtb	r0, r0
    1730:	4b09      	ldr	r3, [pc, #36]	; (1758 <CAP1203_Initialize+0x34>)
    1732:	7018      	strb	r0, [r3, #0]
    1734:	2100      	movs	r1, #0
    1736:	202a      	movs	r0, #42	; 0x2a
    1738:	4b08      	ldr	r3, [pc, #32]	; (175c <CAP1203_Initialize+0x38>)
    173a:	4798      	blx	r3
    173c:	2273      	movs	r2, #115	; 0x73
    173e:	216f      	movs	r1, #111	; 0x6f
    1740:	2007      	movs	r0, #7
    1742:	4b07      	ldr	r3, [pc, #28]	; (1760 <CAP1203_Initialize+0x3c>)
    1744:	4798      	blx	r3
    1746:	4b07      	ldr	r3, [pc, #28]	; (1764 <CAP1203_Initialize+0x40>)
    1748:	4798      	blx	r3
    174a:	4b07      	ldr	r3, [pc, #28]	; (1768 <CAP1203_Initialize+0x44>)
    174c:	6018      	str	r0, [r3, #0]
    174e:	bd10      	pop	{r4, pc}
    1750:	00001685 	.word	0x00001685
    1754:	00001709 	.word	0x00001709
    1758:	20000e45 	.word	0x20000e45
    175c:	00001621 	.word	0x00001621
    1760:	0000163d 	.word	0x0000163d
    1764:	00002bf5 	.word	0x00002bf5
    1768:	20000e5c 	.word	0x20000e5c

0000176c <GetPressedButton>:
    176c:	4b02      	ldr	r3, [pc, #8]	; (1778 <GetPressedButton+0xc>)
    176e:	7818      	ldrb	r0, [r3, #0]
    1770:	b2c0      	uxtb	r0, r0
    1772:	2200      	movs	r2, #0
    1774:	701a      	strb	r2, [r3, #0]
    1776:	4770      	bx	lr
    1778:	20000e54 	.word	0x20000e54

0000177c <SetServoMovingFlag>:
    177c:	b510      	push	{r4, lr}
    177e:	0004      	movs	r4, r0
    1780:	4b0b      	ldr	r3, [pc, #44]	; (17b0 <SetServoMovingFlag+0x34>)
    1782:	7018      	strb	r0, [r3, #0]
    1784:	07c3      	lsls	r3, r0, #31
    1786:	d402      	bmi.n	178e <SetServoMovingFlag+0x12>
    1788:	07a3      	lsls	r3, r4, #30
    178a:	d408      	bmi.n	179e <SetServoMovingFlag+0x22>
    178c:	bd10      	pop	{r4, pc}
    178e:	2101      	movs	r1, #1
    1790:	2001      	movs	r0, #1
    1792:	4b08      	ldr	r3, [pc, #32]	; (17b4 <SetServoMovingFlag+0x38>)
    1794:	4798      	blx	r3
    1796:	2002      	movs	r0, #2
    1798:	4b07      	ldr	r3, [pc, #28]	; (17b8 <SetServoMovingFlag+0x3c>)
    179a:	4798      	blx	r3
    179c:	e7f4      	b.n	1788 <SetServoMovingFlag+0xc>
    179e:	2101      	movs	r1, #1
    17a0:	2002      	movs	r0, #2
    17a2:	4b04      	ldr	r3, [pc, #16]	; (17b4 <SetServoMovingFlag+0x38>)
    17a4:	4798      	blx	r3
    17a6:	2002      	movs	r0, #2
    17a8:	4b03      	ldr	r3, [pc, #12]	; (17b8 <SetServoMovingFlag+0x3c>)
    17aa:	4798      	blx	r3
    17ac:	e7ee      	b.n	178c <SetServoMovingFlag+0x10>
    17ae:	46c0      	nop			; (mov r8, r8)
    17b0:	20000e55 	.word	0x20000e55
    17b4:	000035e5 	.word	0x000035e5
    17b8:	00002c05 	.word	0x00002c05

000017bc <SetServoMovingDelay>:
    17bc:	4b01      	ldr	r3, [pc, #4]	; (17c4 <SetServoMovingDelay+0x8>)
    17be:	6018      	str	r0, [r3, #0]
    17c0:	4770      	bx	lr
    17c2:	46c0      	nop			; (mov r8, r8)
    17c4:	2000001c 	.word	0x2000001c

000017c8 <GetTouch_runtime>:
    17c8:	b510      	push	{r4, lr}
    17ca:	4b41      	ldr	r3, [pc, #260]	; (18d0 <GetTouch_runtime+0x108>)
    17cc:	681c      	ldr	r4, [r3, #0]
    17ce:	4b41      	ldr	r3, [pc, #260]	; (18d4 <GetTouch_runtime+0x10c>)
    17d0:	4798      	blx	r3
    17d2:	0001      	movs	r1, r0
    17d4:	0020      	movs	r0, r4
    17d6:	4b40      	ldr	r3, [pc, #256]	; (18d8 <GetTouch_runtime+0x110>)
    17d8:	4798      	blx	r3
    17da:	2300      	movs	r3, #0
    17dc:	2864      	cmp	r0, #100	; 0x64
    17de:	d968      	bls.n	18b2 <GetTouch_runtime+0xea>
    17e0:	4b3e      	ldr	r3, [pc, #248]	; (18dc <GetTouch_runtime+0x114>)
    17e2:	781b      	ldrb	r3, [r3, #0]
    17e4:	2b00      	cmp	r3, #0
    17e6:	d048      	beq.n	187a <GetTouch_runtime+0xb2>
    17e8:	4b3c      	ldr	r3, [pc, #240]	; (18dc <GetTouch_runtime+0x114>)
    17ea:	781b      	ldrb	r3, [r3, #0]
    17ec:	07db      	lsls	r3, r3, #31
    17ee:	d40d      	bmi.n	180c <GetTouch_runtime+0x44>
    17f0:	4b3a      	ldr	r3, [pc, #232]	; (18dc <GetTouch_runtime+0x114>)
    17f2:	781b      	ldrb	r3, [r3, #0]
    17f4:	079b      	lsls	r3, r3, #30
    17f6:	d416      	bmi.n	1826 <GetTouch_runtime+0x5e>
    17f8:	4b38      	ldr	r3, [pc, #224]	; (18dc <GetTouch_runtime+0x114>)
    17fa:	781b      	ldrb	r3, [r3, #0]
    17fc:	2b00      	cmp	r3, #0
    17fe:	d11a      	bne.n	1836 <GetTouch_runtime+0x6e>
    1800:	4b37      	ldr	r3, [pc, #220]	; (18e0 <GetTouch_runtime+0x118>)
    1802:	4798      	blx	r3
    1804:	2300      	movs	r3, #0
    1806:	4c37      	ldr	r4, [pc, #220]	; (18e4 <GetTouch_runtime+0x11c>)
    1808:	0020      	movs	r0, r4
    180a:	e057      	b.n	18bc <GetTouch_runtime+0xf4>
    180c:	2231      	movs	r2, #49	; 0x31
    180e:	2102      	movs	r1, #2
    1810:	2001      	movs	r0, #1
    1812:	4b35      	ldr	r3, [pc, #212]	; (18e8 <GetTouch_runtime+0x120>)
    1814:	4798      	blx	r3
    1816:	b2c0      	uxtb	r0, r0
    1818:	2800      	cmp	r0, #0
    181a:	d0ed      	beq.n	17f8 <GetTouch_runtime+0x30>
    181c:	4b2d      	ldr	r3, [pc, #180]	; (18d4 <GetTouch_runtime+0x10c>)
    181e:	4798      	blx	r3
    1820:	4b32      	ldr	r3, [pc, #200]	; (18ec <GetTouch_runtime+0x124>)
    1822:	6018      	str	r0, [r3, #0]
    1824:	e7ec      	b.n	1800 <GetTouch_runtime+0x38>
    1826:	2231      	movs	r2, #49	; 0x31
    1828:	2102      	movs	r1, #2
    182a:	2002      	movs	r0, #2
    182c:	4b2e      	ldr	r3, [pc, #184]	; (18e8 <GetTouch_runtime+0x120>)
    182e:	4798      	blx	r3
    1830:	0040      	lsls	r0, r0, #1
    1832:	b2c0      	uxtb	r0, r0
    1834:	e7f0      	b.n	1818 <GetTouch_runtime+0x50>
    1836:	4b2d      	ldr	r3, [pc, #180]	; (18ec <GetTouch_runtime+0x124>)
    1838:	681c      	ldr	r4, [r3, #0]
    183a:	4b26      	ldr	r3, [pc, #152]	; (18d4 <GetTouch_runtime+0x10c>)
    183c:	4798      	blx	r3
    183e:	0001      	movs	r1, r0
    1840:	0020      	movs	r0, r4
    1842:	4b25      	ldr	r3, [pc, #148]	; (18d8 <GetTouch_runtime+0x110>)
    1844:	4798      	blx	r3
    1846:	4b2a      	ldr	r3, [pc, #168]	; (18f0 <GetTouch_runtime+0x128>)
    1848:	681b      	ldr	r3, [r3, #0]
    184a:	4298      	cmp	r0, r3
    184c:	d9d8      	bls.n	1800 <GetTouch_runtime+0x38>
    184e:	4b23      	ldr	r3, [pc, #140]	; (18dc <GetTouch_runtime+0x114>)
    1850:	781b      	ldrb	r3, [r3, #0]
    1852:	07db      	lsls	r3, r3, #31
    1854:	d407      	bmi.n	1866 <GetTouch_runtime+0x9e>
    1856:	4b21      	ldr	r3, [pc, #132]	; (18dc <GetTouch_runtime+0x114>)
    1858:	781b      	ldrb	r3, [r3, #0]
    185a:	079b      	lsls	r3, r3, #30
    185c:	d408      	bmi.n	1870 <GetTouch_runtime+0xa8>
    185e:	2200      	movs	r2, #0
    1860:	4b1e      	ldr	r3, [pc, #120]	; (18dc <GetTouch_runtime+0x114>)
    1862:	701a      	strb	r2, [r3, #0]
    1864:	e7cc      	b.n	1800 <GetTouch_runtime+0x38>
    1866:	2100      	movs	r1, #0
    1868:	2001      	movs	r0, #1
    186a:	4b22      	ldr	r3, [pc, #136]	; (18f4 <GetTouch_runtime+0x12c>)
    186c:	4798      	blx	r3
    186e:	e7f2      	b.n	1856 <GetTouch_runtime+0x8e>
    1870:	2100      	movs	r1, #0
    1872:	2002      	movs	r0, #2
    1874:	4b1f      	ldr	r3, [pc, #124]	; (18f4 <GetTouch_runtime+0x12c>)
    1876:	4798      	blx	r3
    1878:	e7f1      	b.n	185e <GetTouch_runtime+0x96>
    187a:	4b19      	ldr	r3, [pc, #100]	; (18e0 <GetTouch_runtime+0x118>)
    187c:	4798      	blx	r3
    187e:	2800      	cmp	r0, #0
    1880:	d0c0      	beq.n	1804 <GetTouch_runtime+0x3c>
    1882:	2303      	movs	r3, #3
    1884:	4003      	ands	r3, r0
    1886:	3b01      	subs	r3, #1
    1888:	4916      	ldr	r1, [pc, #88]	; (18e4 <GetTouch_runtime+0x11c>)
    188a:	009c      	lsls	r4, r3, #2
    188c:	5862      	ldr	r2, [r4, r1]
    188e:	3201      	adds	r2, #1
    1890:	5062      	str	r2, [r4, r1]
    1892:	4919      	ldr	r1, [pc, #100]	; (18f8 <GetTouch_runtime+0x130>)
    1894:	6809      	ldr	r1, [r1, #0]
    1896:	428a      	cmp	r2, r1
    1898:	d904      	bls.n	18a4 <GetTouch_runtime+0xdc>
    189a:	4a18      	ldr	r2, [pc, #96]	; (18fc <GetTouch_runtime+0x134>)
    189c:	7010      	strb	r0, [r2, #0]
    189e:	2100      	movs	r1, #0
    18a0:	4a10      	ldr	r2, [pc, #64]	; (18e4 <GetTouch_runtime+0x11c>)
    18a2:	50a1      	str	r1, [r4, r2]
    18a4:	4b0b      	ldr	r3, [pc, #44]	; (18d4 <GetTouch_runtime+0x10c>)
    18a6:	4798      	blx	r3
    18a8:	4b09      	ldr	r3, [pc, #36]	; (18d0 <GetTouch_runtime+0x108>)
    18aa:	6018      	str	r0, [r3, #0]
    18ac:	4b13      	ldr	r3, [pc, #76]	; (18fc <GetTouch_runtime+0x134>)
    18ae:	781b      	ldrb	r3, [r3, #0]
    18b0:	b2db      	uxtb	r3, r3
    18b2:	0018      	movs	r0, r3
    18b4:	bd10      	pop	{r4, pc}
    18b6:	3301      	adds	r3, #1
    18b8:	2b03      	cmp	r3, #3
    18ba:	d0f3      	beq.n	18a4 <GetTouch_runtime+0xdc>
    18bc:	009a      	lsls	r2, r3, #2
    18be:	5912      	ldr	r2, [r2, r4]
    18c0:	2a00      	cmp	r2, #0
    18c2:	d0f8      	beq.n	18b6 <GetTouch_runtime+0xee>
    18c4:	0099      	lsls	r1, r3, #2
    18c6:	580a      	ldr	r2, [r1, r0]
    18c8:	3a01      	subs	r2, #1
    18ca:	500a      	str	r2, [r1, r0]
    18cc:	e7f3      	b.n	18b6 <GetTouch_runtime+0xee>
    18ce:	46c0      	nop			; (mov r8, r8)
    18d0:	20000e5c 	.word	0x20000e5c
    18d4:	00002bf5 	.word	0x00002bf5
    18d8:	00002c01 	.word	0x00002c01
    18dc:	20000e55 	.word	0x20000e55
    18e0:	000016b5 	.word	0x000016b5
    18e4:	20000e48 	.word	0x20000e48
    18e8:	00003451 	.word	0x00003451
    18ec:	20000e58 	.word	0x20000e58
    18f0:	2000001c 	.word	0x2000001c
    18f4:	000035e5 	.word	0x000035e5
    18f8:	20000018 	.word	0x20000018
    18fc:	20000e54 	.word	0x20000e54

00001900 <update_crc>:
    1900:	b571      	push	{r0, r4, r5, r6, lr}
    1902:	b0ff      	sub	sp, #508	; 0x1fc
    1904:	0004      	movs	r4, r0
    1906:	000d      	movs	r5, r1
    1908:	0016      	movs	r6, r2
    190a:	2280      	movs	r2, #128	; 0x80
    190c:	0092      	lsls	r2, r2, #2
    190e:	490b      	ldr	r1, [pc, #44]	; (193c <update_crc+0x3c>)
    1910:	4668      	mov	r0, sp
    1912:	4b0b      	ldr	r3, [pc, #44]	; (1940 <update_crc+0x40>)
    1914:	4798      	blx	r3
    1916:	2e00      	cmp	r6, #0
    1918:	d00c      	beq.n	1934 <update_crc+0x34>
    191a:	2100      	movs	r1, #0
    191c:	0a23      	lsrs	r3, r4, #8
    191e:	5c68      	ldrb	r0, [r5, r1]
    1920:	4043      	eors	r3, r0
    1922:	005b      	lsls	r3, r3, #1
    1924:	0220      	lsls	r0, r4, #8
    1926:	466a      	mov	r2, sp
    1928:	5a9c      	ldrh	r4, [r3, r2]
    192a:	4044      	eors	r4, r0
    192c:	b2a4      	uxth	r4, r4
    192e:	3101      	adds	r1, #1
    1930:	42b1      	cmp	r1, r6
    1932:	d3f3      	bcc.n	191c <update_crc+0x1c>
    1934:	0020      	movs	r0, r4
    1936:	b07f      	add	sp, #508	; 0x1fc
    1938:	bd72      	pop	{r1, r4, r5, r6, pc}
    193a:	46c0      	nop			; (mov r8, r8)
    193c:	0000bf64 	.word	0x0000bf64
    1940:	0000bded 	.word	0x0000bded

00001944 <fLedConfigDefault>:
    1944:	b510      	push	{r4, lr}
    1946:	0004      	movs	r4, r0
    1948:	2301      	movs	r3, #1
    194a:	7003      	strb	r3, [r0, #0]
    194c:	78c3      	ldrb	r3, [r0, #3]
    194e:	22ff      	movs	r2, #255	; 0xff
    1950:	7082      	strb	r2, [r0, #2]
    1952:	3abf      	subs	r2, #191	; 0xbf
    1954:	4393      	bics	r3, r2
    1956:	3a38      	subs	r2, #56	; 0x38
    1958:	4393      	bics	r3, r2
    195a:	3218      	adds	r2, #24
    195c:	4393      	bics	r3, r2
    195e:	70c3      	strb	r3, [r0, #3]
    1960:	23c8      	movs	r3, #200	; 0xc8
    1962:	80c3      	strh	r3, [r0, #6]
    1964:	3bb4      	subs	r3, #180	; 0xb4
    1966:	8083      	strh	r3, [r0, #4]
    1968:	4b01      	ldr	r3, [pc, #4]	; (1970 <fLedConfigDefault+0x2c>)
    196a:	4798      	blx	r3
    196c:	60a0      	str	r0, [r4, #8]
    196e:	bd10      	pop	{r4, pc}
    1970:	00002bf5 	.word	0x00002bf5

00001974 <fStartLedFlash>:
    1974:	b570      	push	{r4, r5, r6, lr}
    1976:	0004      	movs	r4, r0
    1978:	000d      	movs	r5, r1
    197a:	4b08      	ldr	r3, [pc, #32]	; (199c <fStartLedFlash+0x28>)
    197c:	4798      	blx	r3
    197e:	60a0      	str	r0, [r4, #8]
    1980:	78e3      	ldrb	r3, [r4, #3]
    1982:	2208      	movs	r2, #8
    1984:	4313      	orrs	r3, r2
    1986:	70e3      	strb	r3, [r4, #3]
    1988:	2dff      	cmp	r5, #255	; 0xff
    198a:	d801      	bhi.n	1990 <fStartLedFlash+0x1c>
    198c:	7025      	strb	r5, [r4, #0]
    198e:	bd70      	pop	{r4, r5, r6, pc}
    1990:	b2db      	uxtb	r3, r3
    1992:	2220      	movs	r2, #32
    1994:	4313      	orrs	r3, r2
    1996:	70e3      	strb	r3, [r4, #3]
    1998:	e7f9      	b.n	198e <fStartLedFlash+0x1a>
    199a:	46c0      	nop			; (mov r8, r8)
    199c:	00002bf5 	.word	0x00002bf5

000019a0 <fProcessLed>:
    19a0:	b570      	push	{r4, r5, r6, lr}
    19a2:	0004      	movs	r4, r0
    19a4:	78c3      	ldrb	r3, [r0, #3]
    19a6:	2b7f      	cmp	r3, #127	; 0x7f
    19a8:	d800      	bhi.n	19ac <fProcessLed+0xc>
    19aa:	bd70      	pop	{r4, r5, r6, pc}
    19ac:	4b30      	ldr	r3, [pc, #192]	; (1a70 <fProcessLed+0xd0>)
    19ae:	6802      	ldr	r2, [r0, #0]
    19b0:	421a      	tst	r2, r3
    19b2:	d0fa      	beq.n	19aa <fProcessLed+0xa>
    19b4:	4b2f      	ldr	r3, [pc, #188]	; (1a74 <fProcessLed+0xd4>)
    19b6:	4798      	blx	r3
    19b8:	0005      	movs	r5, r0
    19ba:	0001      	movs	r1, r0
    19bc:	68a0      	ldr	r0, [r4, #8]
    19be:	4b2e      	ldr	r3, [pc, #184]	; (1a78 <fProcessLed+0xd8>)
    19c0:	4798      	blx	r3
    19c2:	78e3      	ldrb	r3, [r4, #3]
    19c4:	071a      	lsls	r2, r3, #28
    19c6:	d523      	bpl.n	1a10 <fProcessLed+0x70>
    19c8:	88a2      	ldrh	r2, [r4, #4]
    19ca:	4290      	cmp	r0, r2
    19cc:	d819      	bhi.n	1a02 <fProcessLed+0x62>
    19ce:	06db      	lsls	r3, r3, #27
    19d0:	d4eb      	bmi.n	19aa <fProcessLed+0xa>
    19d2:	78e3      	ldrb	r3, [r4, #3]
    19d4:	2210      	movs	r2, #16
    19d6:	4313      	orrs	r3, r2
    19d8:	70e3      	strb	r3, [r4, #3]
    19da:	78a1      	ldrb	r1, [r4, #2]
    19dc:	2240      	movs	r2, #64	; 0x40
    19de:	4013      	ands	r3, r2
    19e0:	09c8      	lsrs	r0, r1, #7
    19e2:	2200      	movs	r2, #0
    19e4:	2800      	cmp	r0, #0
    19e6:	d104      	bne.n	19f2 <fProcessLed+0x52>
    19e8:	094a      	lsrs	r2, r1, #5
    19ea:	01d2      	lsls	r2, r2, #7
    19ec:	4823      	ldr	r0, [pc, #140]	; (1a7c <fProcessLed+0xdc>)
    19ee:	4684      	mov	ip, r0
    19f0:	4462      	add	r2, ip
    19f2:	201f      	movs	r0, #31
    19f4:	4008      	ands	r0, r1
    19f6:	2101      	movs	r1, #1
    19f8:	4081      	lsls	r1, r0
    19fa:	2b00      	cmp	r3, #0
    19fc:	d106      	bne.n	1a0c <fProcessLed+0x6c>
    19fe:	6191      	str	r1, [r2, #24]
    1a00:	e7d3      	b.n	19aa <fProcessLed+0xa>
    1a02:	60a5      	str	r5, [r4, #8]
    1a04:	2208      	movs	r2, #8
    1a06:	4393      	bics	r3, r2
    1a08:	70e3      	strb	r3, [r4, #3]
    1a0a:	e7ce      	b.n	19aa <fProcessLed+0xa>
    1a0c:	6151      	str	r1, [r2, #20]
    1a0e:	e7cc      	b.n	19aa <fProcessLed+0xa>
    1a10:	88e2      	ldrh	r2, [r4, #6]
    1a12:	4290      	cmp	r0, r2
    1a14:	d90e      	bls.n	1a34 <fProcessLed+0x94>
    1a16:	7823      	ldrb	r3, [r4, #0]
    1a18:	2b00      	cmp	r3, #0
    1a1a:	d001      	beq.n	1a20 <fProcessLed+0x80>
    1a1c:	3b01      	subs	r3, #1
    1a1e:	7023      	strb	r3, [r4, #0]
    1a20:	60a5      	str	r5, [r4, #8]
    1a22:	4b13      	ldr	r3, [pc, #76]	; (1a70 <fProcessLed+0xd0>)
    1a24:	6822      	ldr	r2, [r4, #0]
    1a26:	421a      	tst	r2, r3
    1a28:	d0bf      	beq.n	19aa <fProcessLed+0xa>
    1a2a:	78e3      	ldrb	r3, [r4, #3]
    1a2c:	2208      	movs	r2, #8
    1a2e:	4313      	orrs	r3, r2
    1a30:	70e3      	strb	r3, [r4, #3]
    1a32:	e7ba      	b.n	19aa <fProcessLed+0xa>
    1a34:	06db      	lsls	r3, r3, #27
    1a36:	d5b8      	bpl.n	19aa <fProcessLed+0xa>
    1a38:	78a0      	ldrb	r0, [r4, #2]
    1a3a:	78e3      	ldrb	r3, [r4, #3]
    1a3c:	065b      	lsls	r3, r3, #25
    1a3e:	0fdb      	lsrs	r3, r3, #31
    1a40:	09c1      	lsrs	r1, r0, #7
    1a42:	2200      	movs	r2, #0
    1a44:	2900      	cmp	r1, #0
    1a46:	d104      	bne.n	1a52 <fProcessLed+0xb2>
    1a48:	0942      	lsrs	r2, r0, #5
    1a4a:	01d2      	lsls	r2, r2, #7
    1a4c:	490b      	ldr	r1, [pc, #44]	; (1a7c <fProcessLed+0xdc>)
    1a4e:	468c      	mov	ip, r1
    1a50:	4462      	add	r2, ip
    1a52:	211f      	movs	r1, #31
    1a54:	4001      	ands	r1, r0
    1a56:	2001      	movs	r0, #1
    1a58:	4088      	lsls	r0, r1
    1a5a:	2b00      	cmp	r3, #0
    1a5c:	d005      	beq.n	1a6a <fProcessLed+0xca>
    1a5e:	6190      	str	r0, [r2, #24]
    1a60:	78e3      	ldrb	r3, [r4, #3]
    1a62:	2210      	movs	r2, #16
    1a64:	4393      	bics	r3, r2
    1a66:	70e3      	strb	r3, [r4, #3]
    1a68:	e79f      	b.n	19aa <fProcessLed+0xa>
    1a6a:	6150      	str	r0, [r2, #20]
    1a6c:	e7f8      	b.n	1a60 <fProcessLed+0xc0>
    1a6e:	46c0      	nop			; (mov r8, r8)
    1a70:	200000ff 	.word	0x200000ff
    1a74:	00002bf5 	.word	0x00002bf5
    1a78:	00002c01 	.word	0x00002c01
    1a7c:	41004400 	.word	0x41004400

00001a80 <LedRunTime>:
    1a80:	b510      	push	{r4, lr}
    1a82:	4802      	ldr	r0, [pc, #8]	; (1a8c <LedRunTime+0xc>)
    1a84:	4b02      	ldr	r3, [pc, #8]	; (1a90 <LedRunTime+0x10>)
    1a86:	4798      	blx	r3
    1a88:	bd10      	pop	{r4, pc}
    1a8a:	46c0      	nop			; (mov r8, r8)
    1a8c:	200013e8 	.word	0x200013e8
    1a90:	000019a1 	.word	0x000019a1

00001a94 <InitLedFlash>:
    1a94:	b510      	push	{r4, lr}
    1a96:	4c0d      	ldr	r4, [pc, #52]	; (1acc <InitLedFlash+0x38>)
    1a98:	0020      	movs	r0, r4
    1a9a:	4b0d      	ldr	r3, [pc, #52]	; (1ad0 <InitLedFlash+0x3c>)
    1a9c:	4798      	blx	r3
    1a9e:	2323      	movs	r3, #35	; 0x23
    1aa0:	70a3      	strb	r3, [r4, #2]
    1aa2:	78e3      	ldrb	r3, [r4, #3]
    1aa4:	2240      	movs	r2, #64	; 0x40
    1aa6:	4313      	orrs	r3, r2
    1aa8:	b2db      	uxtb	r3, r3
    1aaa:	2220      	movs	r2, #32
    1aac:	4313      	orrs	r3, r2
    1aae:	2280      	movs	r2, #128	; 0x80
    1ab0:	4252      	negs	r2, r2
    1ab2:	4313      	orrs	r3, r2
    1ab4:	70e3      	strb	r3, [r4, #3]
    1ab6:	230a      	movs	r3, #10
    1ab8:	80a3      	strh	r3, [r4, #4]
    1aba:	23f5      	movs	r3, #245	; 0xf5
    1abc:	009b      	lsls	r3, r3, #2
    1abe:	80e3      	strh	r3, [r4, #6]
    1ac0:	2101      	movs	r1, #1
    1ac2:	0020      	movs	r0, r4
    1ac4:	4b03      	ldr	r3, [pc, #12]	; (1ad4 <InitLedFlash+0x40>)
    1ac6:	4798      	blx	r3
    1ac8:	bd10      	pop	{r4, pc}
    1aca:	46c0      	nop			; (mov r8, r8)
    1acc:	200013e8 	.word	0x200013e8
    1ad0:	00001945 	.word	0x00001945
    1ad4:	00001975 	.word	0x00001975

00001ad8 <fsetMouth>:
    1ad8:	0440      	lsls	r0, r0, #17
    1ada:	23f0      	movs	r3, #240	; 0xf0
    1adc:	035b      	lsls	r3, r3, #13
    1ade:	4003      	ands	r3, r0
    1ae0:	43c8      	mvns	r0, r1
    1ae2:	0300      	lsls	r0, r0, #12
    1ae4:	21f8      	movs	r1, #248	; 0xf8
    1ae6:	0249      	lsls	r1, r1, #9
    1ae8:	4008      	ands	r0, r1
    1aea:	4318      	orrs	r0, r3
    1aec:	4b03      	ldr	r3, [pc, #12]	; (1afc <fsetMouth+0x24>)
    1aee:	0001      	movs	r1, r0
    1af0:	4019      	ands	r1, r3
    1af2:	4a03      	ldr	r2, [pc, #12]	; (1b00 <fsetMouth+0x28>)
    1af4:	6191      	str	r1, [r2, #24]
    1af6:	4383      	bics	r3, r0
    1af8:	6153      	str	r3, [r2, #20]
    1afa:	4770      	bx	lr
    1afc:	001ff000 	.word	0x001ff000
    1b00:	41004400 	.word	0x41004400

00001b04 <fAnimation_Runtime>:
    1b04:	b510      	push	{r4, lr}
    1b06:	4a1a      	ldr	r2, [pc, #104]	; (1b70 <fAnimation_Runtime+0x6c>)
    1b08:	8893      	ldrh	r3, [r2, #4]
    1b0a:	b29b      	uxth	r3, r3
    1b0c:	1c59      	adds	r1, r3, #1
    1b0e:	b289      	uxth	r1, r1
    1b10:	8091      	strh	r1, [r2, #4]
    1b12:	88d2      	ldrh	r2, [r2, #6]
    1b14:	b292      	uxth	r2, r2
    1b16:	4293      	cmp	r3, r2
    1b18:	d903      	bls.n	1b22 <fAnimation_Runtime+0x1e>
    1b1a:	4b15      	ldr	r3, [pc, #84]	; (1b70 <fAnimation_Runtime+0x6c>)
    1b1c:	681b      	ldr	r3, [r3, #0]
    1b1e:	051b      	lsls	r3, r3, #20
    1b20:	d400      	bmi.n	1b24 <fAnimation_Runtime+0x20>
    1b22:	bd10      	pop	{r4, pc}
    1b24:	4b12      	ldr	r3, [pc, #72]	; (1b70 <fAnimation_Runtime+0x6c>)
    1b26:	2200      	movs	r2, #0
    1b28:	809a      	strh	r2, [r3, #4]
    1b2a:	681b      	ldr	r3, [r3, #0]
    1b2c:	025b      	lsls	r3, r3, #9
    1b2e:	d5f8      	bpl.n	1b22 <fAnimation_Runtime+0x1e>
    1b30:	490f      	ldr	r1, [pc, #60]	; (1b70 <fAnimation_Runtime+0x6c>)
    1b32:	680b      	ldr	r3, [r1, #0]
    1b34:	03db      	lsls	r3, r3, #15
    1b36:	0edb      	lsrs	r3, r3, #27
    1b38:	3301      	adds	r3, #1
    1b3a:	321f      	adds	r2, #31
    1b3c:	4013      	ands	r3, r2
    1b3e:	680a      	ldr	r2, [r1, #0]
    1b40:	0318      	lsls	r0, r3, #12
    1b42:	4c0c      	ldr	r4, [pc, #48]	; (1b74 <fAnimation_Runtime+0x70>)
    1b44:	4022      	ands	r2, r4
    1b46:	4302      	orrs	r2, r0
    1b48:	600a      	str	r2, [r1, #0]
    1b4a:	680a      	ldr	r2, [r1, #0]
    1b4c:	0292      	lsls	r2, r2, #10
    1b4e:	0ed2      	lsrs	r2, r2, #27
    1b50:	4293      	cmp	r3, r2
    1b52:	dde6      	ble.n	1b22 <fAnimation_Runtime+0x1e>
    1b54:	000a      	movs	r2, r1
    1b56:	680b      	ldr	r3, [r1, #0]
    1b58:	4023      	ands	r3, r4
    1b5a:	6013      	str	r3, [r2, #0]
    1b5c:	6813      	ldr	r3, [r2, #0]
    1b5e:	021b      	lsls	r3, r3, #8
    1b60:	6811      	ldr	r1, [r2, #0]
    1b62:	0fdb      	lsrs	r3, r3, #31
    1b64:	059b      	lsls	r3, r3, #22
    1b66:	4804      	ldr	r0, [pc, #16]	; (1b78 <fAnimation_Runtime+0x74>)
    1b68:	4001      	ands	r1, r0
    1b6a:	430b      	orrs	r3, r1
    1b6c:	6013      	str	r3, [r2, #0]
    1b6e:	e7d8      	b.n	1b22 <fAnimation_Runtime+0x1e>
    1b70:	200013f4 	.word	0x200013f4
    1b74:	fffe0fff 	.word	0xfffe0fff
    1b78:	ffbfffff 	.word	0xffbfffff

00001b7c <fMouth_Main>:
    1b7c:	b570      	push	{r4, r5, r6, lr}
    1b7e:	4920      	ldr	r1, [pc, #128]	; (1c00 <fMouth_Main+0x84>)
    1b80:	680a      	ldr	r2, [r1, #0]
    1b82:	0052      	lsls	r2, r2, #1
    1b84:	200f      	movs	r0, #15
    1b86:	680b      	ldr	r3, [r1, #0]
    1b88:	4002      	ands	r2, r0
    1b8a:	4383      	bics	r3, r0
    1b8c:	4313      	orrs	r3, r2
    1b8e:	600b      	str	r3, [r1, #0]
    1b90:	680b      	ldr	r3, [r1, #0]
    1b92:	071b      	lsls	r3, r3, #28
    1b94:	d022      	beq.n	1bdc <fMouth_Main+0x60>
    1b96:	4a1a      	ldr	r2, [pc, #104]	; (1c00 <fMouth_Main+0x84>)
    1b98:	6813      	ldr	r3, [r2, #0]
    1b9a:	491a      	ldr	r1, [pc, #104]	; (1c04 <fMouth_Main+0x88>)
    1b9c:	400b      	ands	r3, r1
    1b9e:	6013      	str	r3, [r2, #0]
    1ba0:	4b19      	ldr	r3, [pc, #100]	; (1c08 <fMouth_Main+0x8c>)
    1ba2:	4798      	blx	r3
    1ba4:	4c16      	ldr	r4, [pc, #88]	; (1c00 <fMouth_Main+0x84>)
    1ba6:	6820      	ldr	r0, [r4, #0]
    1ba8:	0700      	lsls	r0, r0, #28
    1baa:	0f00      	lsrs	r0, r0, #28
    1bac:	6823      	ldr	r3, [r4, #0]
    1bae:	03db      	lsls	r3, r3, #15
    1bb0:	0edb      	lsrs	r3, r3, #27
    1bb2:	6822      	ldr	r2, [r4, #0]
    1bb4:	0612      	lsls	r2, r2, #24
    1bb6:	0f12      	lsrs	r2, r2, #28
    1bb8:	1c56      	adds	r6, r2, #1
    1bba:	6821      	ldr	r1, [r4, #0]
    1bbc:	250f      	movs	r5, #15
    1bbe:	4035      	ands	r5, r6
    1bc0:	012d      	lsls	r5, r5, #4
    1bc2:	26f0      	movs	r6, #240	; 0xf0
    1bc4:	43b1      	bics	r1, r6
    1bc6:	4329      	orrs	r1, r5
    1bc8:	6021      	str	r1, [r4, #0]
    1bca:	009b      	lsls	r3, r3, #2
    1bcc:	18e3      	adds	r3, r4, r3
    1bce:	189b      	adds	r3, r3, r2
    1bd0:	7a19      	ldrb	r1, [r3, #8]
    1bd2:	b2c9      	uxtb	r1, r1
    1bd4:	4b0d      	ldr	r3, [pc, #52]	; (1c0c <fMouth_Main+0x90>)
    1bd6:	4798      	blx	r3
    1bd8:	6820      	ldr	r0, [r4, #0]
    1bda:	bd70      	pop	{r4, r5, r6, pc}
    1bdc:	000b      	movs	r3, r1
    1bde:	680a      	ldr	r2, [r1, #0]
    1be0:	210f      	movs	r1, #15
    1be2:	438a      	bics	r2, r1
    1be4:	390e      	subs	r1, #14
    1be6:	430a      	orrs	r2, r1
    1be8:	601a      	str	r2, [r3, #0]
    1bea:	681a      	ldr	r2, [r3, #0]
    1bec:	31ef      	adds	r1, #239	; 0xef
    1bee:	438a      	bics	r2, r1
    1bf0:	601a      	str	r2, [r3, #0]
    1bf2:	6819      	ldr	r1, [r3, #0]
    1bf4:	2280      	movs	r2, #128	; 0x80
    1bf6:	0112      	lsls	r2, r2, #4
    1bf8:	430a      	orrs	r2, r1
    1bfa:	601a      	str	r2, [r3, #0]
    1bfc:	e7d0      	b.n	1ba0 <fMouth_Main+0x24>
    1bfe:	46c0      	nop			; (mov r8, r8)
    1c00:	200013f4 	.word	0x200013f4
    1c04:	fffff7ff 	.word	0xfffff7ff
    1c08:	00001b05 	.word	0x00001b05
    1c0c:	00001ad9 	.word	0x00001ad9

00001c10 <fMouth_SetNoseColor>:
    1c10:	07c3      	lsls	r3, r0, #31
    1c12:	d40f      	bmi.n	1c34 <fMouth_SetNoseColor+0x24>
    1c14:	2204      	movs	r2, #4
    1c16:	4b0e      	ldr	r3, [pc, #56]	; (1c50 <fMouth_SetNoseColor+0x40>)
    1c18:	619a      	str	r2, [r3, #24]
    1c1a:	0783      	lsls	r3, r0, #30
    1c1c:	d40e      	bmi.n	1c3c <fMouth_SetNoseColor+0x2c>
    1c1e:	2280      	movs	r2, #128	; 0x80
    1c20:	0112      	lsls	r2, r2, #4
    1c22:	4b0b      	ldr	r3, [pc, #44]	; (1c50 <fMouth_SetNoseColor+0x40>)
    1c24:	619a      	str	r2, [r3, #24]
    1c26:	0743      	lsls	r3, r0, #29
    1c28:	d50d      	bpl.n	1c46 <fMouth_SetNoseColor+0x36>
    1c2a:	2280      	movs	r2, #128	; 0x80
    1c2c:	0392      	lsls	r2, r2, #14
    1c2e:	4b09      	ldr	r3, [pc, #36]	; (1c54 <fMouth_SetNoseColor+0x44>)
    1c30:	615a      	str	r2, [r3, #20]
    1c32:	4770      	bx	lr
    1c34:	2204      	movs	r2, #4
    1c36:	4b06      	ldr	r3, [pc, #24]	; (1c50 <fMouth_SetNoseColor+0x40>)
    1c38:	615a      	str	r2, [r3, #20]
    1c3a:	e7ee      	b.n	1c1a <fMouth_SetNoseColor+0xa>
    1c3c:	2280      	movs	r2, #128	; 0x80
    1c3e:	0112      	lsls	r2, r2, #4
    1c40:	4b03      	ldr	r3, [pc, #12]	; (1c50 <fMouth_SetNoseColor+0x40>)
    1c42:	615a      	str	r2, [r3, #20]
    1c44:	e7ef      	b.n	1c26 <fMouth_SetNoseColor+0x16>
    1c46:	2280      	movs	r2, #128	; 0x80
    1c48:	0392      	lsls	r2, r2, #14
    1c4a:	4b02      	ldr	r3, [pc, #8]	; (1c54 <fMouth_SetNoseColor+0x44>)
    1c4c:	619a      	str	r2, [r3, #24]
    1c4e:	e7f0      	b.n	1c32 <fMouth_SetNoseColor+0x22>
    1c50:	41004480 	.word	0x41004480
    1c54:	41004400 	.word	0x41004400

00001c58 <fMouth_SetData>:
    1c58:	0e01      	lsrs	r1, r0, #24
    1c5a:	231f      	movs	r3, #31
    1c5c:	4019      	ands	r1, r3
    1c5e:	4a05      	ldr	r2, [pc, #20]	; (1c74 <fMouth_SetData+0x1c>)
    1c60:	7211      	strb	r1, [r2, #8]
    1c62:	0c01      	lsrs	r1, r0, #16
    1c64:	4019      	ands	r1, r3
    1c66:	7251      	strb	r1, [r2, #9]
    1c68:	0a01      	lsrs	r1, r0, #8
    1c6a:	4019      	ands	r1, r3
    1c6c:	7291      	strb	r1, [r2, #10]
    1c6e:	4003      	ands	r3, r0
    1c70:	72d3      	strb	r3, [r2, #11]
    1c72:	4770      	bx	lr
    1c74:	200013f4 	.word	0x200013f4

00001c78 <fTrig_Animation>:
    1c78:	4a03      	ldr	r2, [pc, #12]	; (1c88 <fTrig_Animation+0x10>)
    1c7a:	6811      	ldr	r1, [r2, #0]
    1c7c:	2380      	movs	r3, #128	; 0x80
    1c7e:	03db      	lsls	r3, r3, #15
    1c80:	430b      	orrs	r3, r1
    1c82:	6013      	str	r3, [r2, #0]
    1c84:	4770      	bx	lr
    1c86:	46c0      	nop			; (mov r8, r8)
    1c88:	200013f4 	.word	0x200013f4

00001c8c <fInit_Mouth>:
    1c8c:	b510      	push	{r4, lr}
    1c8e:	4c24      	ldr	r4, [pc, #144]	; (1d20 <fInit_Mouth+0x94>)
    1c90:	2238      	movs	r2, #56	; 0x38
    1c92:	2100      	movs	r1, #0
    1c94:	0020      	movs	r0, r4
    1c96:	4b23      	ldr	r3, [pc, #140]	; (1d24 <fInit_Mouth+0x98>)
    1c98:	4798      	blx	r3
    1c9a:	2000      	movs	r0, #0
    1c9c:	4b22      	ldr	r3, [pc, #136]	; (1d28 <fInit_Mouth+0x9c>)
    1c9e:	4798      	blx	r3
    1ca0:	6823      	ldr	r3, [r4, #0]
    1ca2:	220f      	movs	r2, #15
    1ca4:	4393      	bics	r3, r2
    1ca6:	3a0e      	subs	r2, #14
    1ca8:	4313      	orrs	r3, r2
    1caa:	6023      	str	r3, [r4, #0]
    1cac:	6823      	ldr	r3, [r4, #0]
    1cae:	32ef      	adds	r2, #239	; 0xef
    1cb0:	4393      	bics	r3, r2
    1cb2:	6023      	str	r3, [r4, #0]
    1cb4:	6823      	ldr	r3, [r4, #0]
    1cb6:	4a1d      	ldr	r2, [pc, #116]	; (1d2c <fInit_Mouth+0xa0>)
    1cb8:	4013      	ands	r3, r2
    1cba:	6023      	str	r3, [r4, #0]
    1cbc:	6823      	ldr	r3, [r4, #0]
    1cbe:	4a1c      	ldr	r2, [pc, #112]	; (1d30 <fInit_Mouth+0xa4>)
    1cc0:	4013      	ands	r3, r2
    1cc2:	6023      	str	r3, [r4, #0]
    1cc4:	2332      	movs	r3, #50	; 0x32
    1cc6:	80e3      	strh	r3, [r4, #6]
    1cc8:	2300      	movs	r3, #0
    1cca:	72e3      	strb	r3, [r4, #11]
    1ccc:	72a3      	strb	r3, [r4, #10]
    1cce:	7263      	strb	r3, [r4, #9]
    1cd0:	7223      	strb	r3, [r4, #8]
    1cd2:	221f      	movs	r2, #31
    1cd4:	73e2      	strb	r2, [r4, #15]
    1cd6:	2011      	movs	r0, #17
    1cd8:	73a0      	strb	r0, [r4, #14]
    1cda:	210e      	movs	r1, #14
    1cdc:	7361      	strb	r1, [r4, #13]
    1cde:	7323      	strb	r3, [r4, #12]
    1ce0:	74e2      	strb	r2, [r4, #19]
    1ce2:	74a0      	strb	r0, [r4, #18]
    1ce4:	7460      	strb	r0, [r4, #17]
    1ce6:	7421      	strb	r1, [r4, #16]
    1ce8:	75e2      	strb	r2, [r4, #23]
    1cea:	75a2      	strb	r2, [r4, #22]
    1cec:	7562      	strb	r2, [r4, #21]
    1cee:	7521      	strb	r1, [r4, #20]
    1cf0:	76e2      	strb	r2, [r4, #27]
    1cf2:	76a2      	strb	r2, [r4, #26]
    1cf4:	7661      	strb	r1, [r4, #25]
    1cf6:	7623      	strb	r3, [r4, #24]
    1cf8:	77e3      	strb	r3, [r4, #31]
    1cfa:	77a2      	strb	r2, [r4, #30]
    1cfc:	7763      	strb	r3, [r4, #29]
    1cfe:	7723      	strb	r3, [r4, #28]
    1d00:	6823      	ldr	r3, [r4, #0]
    1d02:	4a0c      	ldr	r2, [pc, #48]	; (1d34 <fInit_Mouth+0xa8>)
    1d04:	401a      	ands	r2, r3
    1d06:	23c0      	movs	r3, #192	; 0xc0
    1d08:	031b      	lsls	r3, r3, #12
    1d0a:	4313      	orrs	r3, r2
    1d0c:	6023      	str	r3, [r4, #0]
    1d0e:	6820      	ldr	r0, [r4, #0]
    1d10:	0700      	lsls	r0, r0, #28
    1d12:	0f00      	lsrs	r0, r0, #28
    1d14:	7a21      	ldrb	r1, [r4, #8]
    1d16:	b2c9      	uxtb	r1, r1
    1d18:	4b07      	ldr	r3, [pc, #28]	; (1d38 <fInit_Mouth+0xac>)
    1d1a:	4798      	blx	r3
    1d1c:	bd10      	pop	{r4, pc}
    1d1e:	46c0      	nop			; (mov r8, r8)
    1d20:	200013f4 	.word	0x200013f4
    1d24:	0000bdff 	.word	0x0000bdff
    1d28:	00001c11 	.word	0x00001c11
    1d2c:	ffbfffff 	.word	0xffbfffff
    1d30:	ff7fffff 	.word	0xff7fffff
    1d34:	ffc1ffff 	.word	0xffc1ffff
    1d38:	00001ad9 	.word	0x00001ad9

00001d3c <pearson>:
    1d3c:	b510      	push	{r4, lr}
    1d3e:	2900      	cmp	r1, #0
    1d40:	d00d      	beq.n	1d5e <pearson+0x22>
    1d42:	0003      	movs	r3, r0
    1d44:	3901      	subs	r1, #1
    1d46:	b2c9      	uxtb	r1, r1
    1d48:	3101      	adds	r1, #1
    1d4a:	1842      	adds	r2, r0, r1
    1d4c:	2000      	movs	r0, #0
    1d4e:	4c05      	ldr	r4, [pc, #20]	; (1d64 <pearson+0x28>)
    1d50:	7819      	ldrb	r1, [r3, #0]
    1d52:	4048      	eors	r0, r1
    1d54:	5c20      	ldrb	r0, [r4, r0]
    1d56:	3301      	adds	r3, #1
    1d58:	4293      	cmp	r3, r2
    1d5a:	d1f9      	bne.n	1d50 <pearson+0x14>
    1d5c:	bd10      	pop	{r4, pc}
    1d5e:	0008      	movs	r0, r1
    1d60:	e7fc      	b.n	1d5c <pearson+0x20>
    1d62:	46c0      	nop			; (mov r8, r8)
    1d64:	0000c2d4 	.word	0x0000c2d4

00001d68 <fSerial_InitSerialProtocol>:
    1d68:	b510      	push	{r4, lr}
    1d6a:	4b0a      	ldr	r3, [pc, #40]	; (1d94 <fSerial_InitSerialProtocol+0x2c>)
    1d6c:	2200      	movs	r2, #0
    1d6e:	701a      	strb	r2, [r3, #0]
    1d70:	705a      	strb	r2, [r3, #1]
    1d72:	2182      	movs	r1, #130	; 0x82
    1d74:	545a      	strb	r2, [r3, r1]
    1d76:	4b08      	ldr	r3, [pc, #32]	; (1d98 <fSerial_InitSerialProtocol+0x30>)
    1d78:	6018      	str	r0, [r3, #0]
    1d7a:	2800      	cmp	r0, #0
    1d7c:	d009      	beq.n	1d92 <fSerial_InitSerialProtocol+0x2a>
    1d7e:	4c07      	ldr	r4, [pc, #28]	; (1d9c <fSerial_InitSerialProtocol+0x34>)
    1d80:	3280      	adds	r2, #128	; 0x80
    1d82:	0021      	movs	r1, r4
    1d84:	4b06      	ldr	r3, [pc, #24]	; (1da0 <fSerial_InitSerialProtocol+0x38>)
    1d86:	4798      	blx	r3
    1d88:	4b06      	ldr	r3, [pc, #24]	; (1da4 <fSerial_InitSerialProtocol+0x3c>)
    1d8a:	601c      	str	r4, [r3, #0]
    1d8c:	2280      	movs	r2, #128	; 0x80
    1d8e:	4b06      	ldr	r3, [pc, #24]	; (1da8 <fSerial_InitSerialProtocol+0x40>)
    1d90:	601a      	str	r2, [r3, #0]
    1d92:	bd10      	pop	{r4, pc}
    1d94:	200011e0 	.word	0x200011e0
    1d98:	20000e60 	.word	0x20000e60
    1d9c:	20001430 	.word	0x20001430
    1da0:	00006b45 	.word	0x00006b45
    1da4:	2000142c 	.word	0x2000142c
    1da8:	200014b0 	.word	0x200014b0

00001dac <fSerial_procesaEntrada>:
    1dac:	b570      	push	{r4, r5, r6, lr}
    1dae:	0004      	movs	r4, r0
    1db0:	000d      	movs	r5, r1
    1db2:	2000      	movs	r0, #0
    1db4:	2904      	cmp	r1, #4
    1db6:	d902      	bls.n	1dbe <fSerial_procesaEntrada+0x12>
    1db8:	7823      	ldrb	r3, [r4, #0]
    1dba:	2bff      	cmp	r3, #255	; 0xff
    1dbc:	d000      	beq.n	1dc0 <fSerial_procesaEntrada+0x14>
    1dbe:	bd70      	pop	{r4, r5, r6, pc}
    1dc0:	1863      	adds	r3, r4, r1
    1dc2:	3b01      	subs	r3, #1
    1dc4:	781b      	ldrb	r3, [r3, #0]
    1dc6:	2bfe      	cmp	r3, #254	; 0xfe
    1dc8:	d1f9      	bne.n	1dbe <fSerial_procesaEntrada+0x12>
    1dca:	3903      	subs	r1, #3
    1dcc:	b2c9      	uxtb	r1, r1
    1dce:	1c60      	adds	r0, r4, #1
    1dd0:	4b10      	ldr	r3, [pc, #64]	; (1e14 <fSerial_procesaEntrada+0x68>)
    1dd2:	4798      	blx	r3
    1dd4:	0002      	movs	r2, r0
    1dd6:	1eab      	subs	r3, r5, #2
    1dd8:	5ce1      	ldrb	r1, [r4, r3]
    1dda:	2000      	movs	r0, #0
    1ddc:	4291      	cmp	r1, r2
    1dde:	d1ee      	bne.n	1dbe <fSerial_procesaEntrada+0x12>
    1de0:	78a1      	ldrb	r1, [r4, #2]
    1de2:	1f6a      	subs	r2, r5, #5
    1de4:	4291      	cmp	r1, r2
    1de6:	d1ea      	bne.n	1dbe <fSerial_procesaEntrada+0x12>
    1de8:	2932      	cmp	r1, #50	; 0x32
    1dea:	d8e8      	bhi.n	1dbe <fSerial_procesaEntrada+0x12>
    1dec:	4a0a      	ldr	r2, [pc, #40]	; (1e18 <fSerial_procesaEntrada+0x6c>)
    1dee:	7861      	ldrb	r1, [r4, #1]
    1df0:	7011      	strb	r1, [r2, #0]
    1df2:	1f69      	subs	r1, r5, #5
    1df4:	7051      	strb	r1, [r2, #1]
    1df6:	2b03      	cmp	r3, #3
    1df8:	dd0a      	ble.n	1e10 <fSerial_procesaEntrada+0x64>
    1dfa:	0018      	movs	r0, r3
    1dfc:	2303      	movs	r3, #3
    1dfe:	0015      	movs	r5, r2
    1e00:	5ce1      	ldrb	r1, [r4, r3]
    1e02:	1e5a      	subs	r2, r3, #1
    1e04:	54a9      	strb	r1, [r5, r2]
    1e06:	3301      	adds	r3, #1
    1e08:	4283      	cmp	r3, r0
    1e0a:	d1f9      	bne.n	1e00 <fSerial_procesaEntrada+0x54>
    1e0c:	2001      	movs	r0, #1
    1e0e:	e7d6      	b.n	1dbe <fSerial_procesaEntrada+0x12>
    1e10:	2001      	movs	r0, #1
    1e12:	e7d4      	b.n	1dbe <fSerial_procesaEntrada+0x12>
    1e14:	00001d3d 	.word	0x00001d3d
    1e18:	200011e0 	.word	0x200011e0

00001e1c <fSerial_processCommands>:
    1e1c:	b5f0      	push	{r4, r5, r6, r7, lr}
    1e1e:	b085      	sub	sp, #20
    1e20:	2201      	movs	r2, #1
    1e22:	4bc8      	ldr	r3, [pc, #800]	; (2144 <STACK_SIZE+0x144>)
    1e24:	701a      	strb	r2, [r3, #0]
    1e26:	4bc8      	ldr	r3, [pc, #800]	; (2148 <STACK_SIZE+0x148>)
    1e28:	7819      	ldrb	r1, [r3, #0]
    1e2a:	000b      	movs	r3, r1
    1e2c:	3b40      	subs	r3, #64	; 0x40
    1e2e:	b2da      	uxtb	r2, r3
    1e30:	2a50      	cmp	r2, #80	; 0x50
    1e32:	d900      	bls.n	1e36 <fSerial_processCommands+0x1a>
    1e34:	e30a      	b.n	244c <STACK_SIZE+0x44c>
    1e36:	0093      	lsls	r3, r2, #2
    1e38:	4ac4      	ldr	r2, [pc, #784]	; (214c <STACK_SIZE+0x14c>)
    1e3a:	58d3      	ldr	r3, [r2, r3]
    1e3c:	469f      	mov	pc, r3
    1e3e:	4bc2      	ldr	r3, [pc, #776]	; (2148 <STACK_SIZE+0x148>)
    1e40:	785b      	ldrb	r3, [r3, #1]
    1e42:	2b00      	cmp	r3, #0
    1e44:	d003      	beq.n	1e4e <fSerial_processCommands+0x32>
    1e46:	2200      	movs	r2, #0
    1e48:	4bbe      	ldr	r3, [pc, #760]	; (2144 <STACK_SIZE+0x144>)
    1e4a:	701a      	strb	r2, [r3, #0]
    1e4c:	e150      	b.n	20f0 <STACK_SIZE+0xf0>
    1e4e:	4bbe      	ldr	r3, [pc, #760]	; (2148 <STACK_SIZE+0x148>)
    1e50:	2102      	movs	r1, #2
    1e52:	2282      	movs	r2, #130	; 0x82
    1e54:	5499      	strb	r1, [r3, r2]
    1e56:	3a81      	subs	r2, #129	; 0x81
    1e58:	3181      	adds	r1, #129	; 0x81
    1e5a:	545a      	strb	r2, [r3, r1]
    1e5c:	3101      	adds	r1, #1
    1e5e:	545a      	strb	r2, [r3, r1]
    1e60:	e146      	b.n	20f0 <STACK_SIZE+0xf0>
    1e62:	4bb9      	ldr	r3, [pc, #740]	; (2148 <STACK_SIZE+0x148>)
    1e64:	785b      	ldrb	r3, [r3, #1]
    1e66:	2b04      	cmp	r3, #4
    1e68:	d003      	beq.n	1e72 <fSerial_processCommands+0x56>
    1e6a:	2200      	movs	r2, #0
    1e6c:	4bb5      	ldr	r3, [pc, #724]	; (2144 <STACK_SIZE+0x144>)
    1e6e:	701a      	strb	r2, [r3, #0]
    1e70:	e13e      	b.n	20f0 <STACK_SIZE+0xf0>
    1e72:	4bb5      	ldr	r3, [pc, #724]	; (2148 <STACK_SIZE+0x148>)
    1e74:	2100      	movs	r1, #0
    1e76:	2282      	movs	r2, #130	; 0x82
    1e78:	5499      	strb	r1, [r3, r2]
    1e7a:	1c9a      	adds	r2, r3, #2
    1e7c:	7898      	ldrb	r0, [r3, #2]
    1e7e:	78db      	ldrb	r3, [r3, #3]
    1e80:	021b      	lsls	r3, r3, #8
    1e82:	4303      	orrs	r3, r0
    1e84:	7890      	ldrb	r0, [r2, #2]
    1e86:	0400      	lsls	r0, r0, #16
    1e88:	4303      	orrs	r3, r0
    1e8a:	78d0      	ldrb	r0, [r2, #3]
    1e8c:	0600      	lsls	r0, r0, #24
    1e8e:	4318      	orrs	r0, r3
    1e90:	4baf      	ldr	r3, [pc, #700]	; (2150 <STACK_SIZE+0x150>)
    1e92:	4798      	blx	r3
    1e94:	e12c      	b.n	20f0 <STACK_SIZE+0xf0>
    1e96:	4bac      	ldr	r3, [pc, #688]	; (2148 <STACK_SIZE+0x148>)
    1e98:	785b      	ldrb	r3, [r3, #1]
    1e9a:	2b01      	cmp	r3, #1
    1e9c:	d003      	beq.n	1ea6 <fSerial_processCommands+0x8a>
    1e9e:	2200      	movs	r2, #0
    1ea0:	4ba8      	ldr	r3, [pc, #672]	; (2144 <STACK_SIZE+0x144>)
    1ea2:	701a      	strb	r2, [r3, #0]
    1ea4:	e124      	b.n	20f0 <STACK_SIZE+0xf0>
    1ea6:	4ba8      	ldr	r3, [pc, #672]	; (2148 <STACK_SIZE+0x148>)
    1ea8:	2100      	movs	r1, #0
    1eaa:	2282      	movs	r2, #130	; 0x82
    1eac:	5499      	strb	r1, [r3, r2]
    1eae:	7898      	ldrb	r0, [r3, #2]
    1eb0:	4ba8      	ldr	r3, [pc, #672]	; (2154 <STACK_SIZE+0x154>)
    1eb2:	4798      	blx	r3
    1eb4:	e11c      	b.n	20f0 <STACK_SIZE+0xf0>
    1eb6:	4ba4      	ldr	r3, [pc, #656]	; (2148 <STACK_SIZE+0x148>)
    1eb8:	785b      	ldrb	r3, [r3, #1]
    1eba:	2b00      	cmp	r3, #0
    1ebc:	d003      	beq.n	1ec6 <fSerial_processCommands+0xaa>
    1ebe:	2200      	movs	r2, #0
    1ec0:	4ba0      	ldr	r3, [pc, #640]	; (2144 <STACK_SIZE+0x144>)
    1ec2:	701a      	strb	r2, [r3, #0]
    1ec4:	e114      	b.n	20f0 <STACK_SIZE+0xf0>
    1ec6:	4ca0      	ldr	r4, [pc, #640]	; (2148 <STACK_SIZE+0x148>)
    1ec8:	2201      	movs	r2, #1
    1eca:	2382      	movs	r3, #130	; 0x82
    1ecc:	54e2      	strb	r2, [r4, r3]
    1ece:	4ba2      	ldr	r3, [pc, #648]	; (2158 <STACK_SIZE+0x158>)
    1ed0:	4798      	blx	r3
    1ed2:	2383      	movs	r3, #131	; 0x83
    1ed4:	54e0      	strb	r0, [r4, r3]
    1ed6:	e10b      	b.n	20f0 <STACK_SIZE+0xf0>
    1ed8:	4b9b      	ldr	r3, [pc, #620]	; (2148 <STACK_SIZE+0x148>)
    1eda:	785b      	ldrb	r3, [r3, #1]
    1edc:	2b03      	cmp	r3, #3
    1ede:	d003      	beq.n	1ee8 <fSerial_processCommands+0xcc>
    1ee0:	2200      	movs	r2, #0
    1ee2:	4b98      	ldr	r3, [pc, #608]	; (2144 <STACK_SIZE+0x144>)
    1ee4:	701a      	strb	r2, [r3, #0]
    1ee6:	e103      	b.n	20f0 <STACK_SIZE+0xf0>
    1ee8:	4b97      	ldr	r3, [pc, #604]	; (2148 <STACK_SIZE+0x148>)
    1eea:	2100      	movs	r1, #0
    1eec:	2282      	movs	r2, #130	; 0x82
    1eee:	5499      	strb	r1, [r3, r2]
    1ef0:	791a      	ldrb	r2, [r3, #4]
    1ef2:	78d9      	ldrb	r1, [r3, #3]
    1ef4:	7898      	ldrb	r0, [r3, #2]
    1ef6:	4b99      	ldr	r3, [pc, #612]	; (215c <STACK_SIZE+0x15c>)
    1ef8:	4798      	blx	r3
    1efa:	e0f9      	b.n	20f0 <STACK_SIZE+0xf0>
    1efc:	4b92      	ldr	r3, [pc, #584]	; (2148 <STACK_SIZE+0x148>)
    1efe:	785b      	ldrb	r3, [r3, #1]
    1f00:	2b01      	cmp	r3, #1
    1f02:	d003      	beq.n	1f0c <fSerial_processCommands+0xf0>
    1f04:	2200      	movs	r2, #0
    1f06:	4b8f      	ldr	r3, [pc, #572]	; (2144 <STACK_SIZE+0x144>)
    1f08:	701a      	strb	r2, [r3, #0]
    1f0a:	e0f1      	b.n	20f0 <STACK_SIZE+0xf0>
    1f0c:	4b8e      	ldr	r3, [pc, #568]	; (2148 <STACK_SIZE+0x148>)
    1f0e:	2100      	movs	r1, #0
    1f10:	2282      	movs	r2, #130	; 0x82
    1f12:	5499      	strb	r1, [r3, r2]
    1f14:	789c      	ldrb	r4, [r3, #2]
    1f16:	0020      	movs	r0, r4
    1f18:	4b91      	ldr	r3, [pc, #580]	; (2160 <STACK_SIZE+0x160>)
    1f1a:	4798      	blx	r3
    1f1c:	4284      	cmp	r4, r0
    1f1e:	d100      	bne.n	1f22 <fSerial_processCommands+0x106>
    1f20:	e0e6      	b.n	20f0 <STACK_SIZE+0xf0>
    1f22:	2200      	movs	r2, #0
    1f24:	4b87      	ldr	r3, [pc, #540]	; (2144 <STACK_SIZE+0x144>)
    1f26:	701a      	strb	r2, [r3, #0]
    1f28:	e0e2      	b.n	20f0 <STACK_SIZE+0xf0>
    1f2a:	4b87      	ldr	r3, [pc, #540]	; (2148 <STACK_SIZE+0x148>)
    1f2c:	785b      	ldrb	r3, [r3, #1]
    1f2e:	2b00      	cmp	r3, #0
    1f30:	d003      	beq.n	1f3a <fSerial_processCommands+0x11e>
    1f32:	2200      	movs	r2, #0
    1f34:	4b83      	ldr	r3, [pc, #524]	; (2144 <STACK_SIZE+0x144>)
    1f36:	701a      	strb	r2, [r3, #0]
    1f38:	e0da      	b.n	20f0 <STACK_SIZE+0xf0>
    1f3a:	4b8a      	ldr	r3, [pc, #552]	; (2164 <STACK_SIZE+0x164>)
    1f3c:	4798      	blx	r3
    1f3e:	0007      	movs	r7, r0
    1f40:	4c81      	ldr	r4, [pc, #516]	; (2148 <STACK_SIZE+0x148>)
    1f42:	2206      	movs	r2, #6
    1f44:	2382      	movs	r3, #130	; 0x82
    1f46:	54e2      	strb	r2, [r4, r3]
    1f48:	4e87      	ldr	r6, [pc, #540]	; (2168 <STACK_SIZE+0x168>)
    1f4a:	4988      	ldr	r1, [pc, #544]	; (216c <STACK_SIZE+0x16c>)
    1f4c:	6800      	ldr	r0, [r0, #0]
    1f4e:	47b0      	blx	r6
    1f50:	4d87      	ldr	r5, [pc, #540]	; (2170 <STACK_SIZE+0x170>)
    1f52:	47a8      	blx	r5
    1f54:	b280      	uxth	r0, r0
    1f56:	2383      	movs	r3, #131	; 0x83
    1f58:	54e0      	strb	r0, [r4, r3]
    1f5a:	0a00      	lsrs	r0, r0, #8
    1f5c:	0023      	movs	r3, r4
    1f5e:	3383      	adds	r3, #131	; 0x83
    1f60:	7058      	strb	r0, [r3, #1]
    1f62:	4982      	ldr	r1, [pc, #520]	; (216c <STACK_SIZE+0x16c>)
    1f64:	6878      	ldr	r0, [r7, #4]
    1f66:	47b0      	blx	r6
    1f68:	47a8      	blx	r5
    1f6a:	b280      	uxth	r0, r0
    1f6c:	2385      	movs	r3, #133	; 0x85
    1f6e:	54e0      	strb	r0, [r4, r3]
    1f70:	0a00      	lsrs	r0, r0, #8
    1f72:	0023      	movs	r3, r4
    1f74:	3385      	adds	r3, #133	; 0x85
    1f76:	7058      	strb	r0, [r3, #1]
    1f78:	497c      	ldr	r1, [pc, #496]	; (216c <STACK_SIZE+0x16c>)
    1f7a:	68b8      	ldr	r0, [r7, #8]
    1f7c:	47b0      	blx	r6
    1f7e:	47a8      	blx	r5
    1f80:	b280      	uxth	r0, r0
    1f82:	2387      	movs	r3, #135	; 0x87
    1f84:	54e0      	strb	r0, [r4, r3]
    1f86:	0a00      	lsrs	r0, r0, #8
    1f88:	3487      	adds	r4, #135	; 0x87
    1f8a:	7060      	strb	r0, [r4, #1]
    1f8c:	e0b0      	b.n	20f0 <STACK_SIZE+0xf0>
    1f8e:	4b6e      	ldr	r3, [pc, #440]	; (2148 <STACK_SIZE+0x148>)
    1f90:	785b      	ldrb	r3, [r3, #1]
    1f92:	2b01      	cmp	r3, #1
    1f94:	d003      	beq.n	1f9e <fSerial_processCommands+0x182>
    1f96:	2200      	movs	r2, #0
    1f98:	4b6a      	ldr	r3, [pc, #424]	; (2144 <STACK_SIZE+0x144>)
    1f9a:	701a      	strb	r2, [r3, #0]
    1f9c:	e0a8      	b.n	20f0 <STACK_SIZE+0xf0>
    1f9e:	4b6a      	ldr	r3, [pc, #424]	; (2148 <STACK_SIZE+0x148>)
    1fa0:	2100      	movs	r1, #0
    1fa2:	2282      	movs	r2, #130	; 0x82
    1fa4:	5499      	strb	r1, [r3, r2]
    1fa6:	7898      	ldrb	r0, [r3, #2]
    1fa8:	4b72      	ldr	r3, [pc, #456]	; (2174 <STACK_SIZE+0x174>)
    1faa:	4798      	blx	r3
    1fac:	e0a0      	b.n	20f0 <STACK_SIZE+0xf0>
    1fae:	4b66      	ldr	r3, [pc, #408]	; (2148 <STACK_SIZE+0x148>)
    1fb0:	785b      	ldrb	r3, [r3, #1]
    1fb2:	2b05      	cmp	r3, #5
    1fb4:	d003      	beq.n	1fbe <fSerial_processCommands+0x1a2>
    1fb6:	2200      	movs	r2, #0
    1fb8:	4b62      	ldr	r3, [pc, #392]	; (2144 <STACK_SIZE+0x144>)
    1fba:	701a      	strb	r2, [r3, #0]
    1fbc:	e098      	b.n	20f0 <STACK_SIZE+0xf0>
    1fbe:	4c62      	ldr	r4, [pc, #392]	; (2148 <STACK_SIZE+0x148>)
    1fc0:	7923      	ldrb	r3, [r4, #4]
    1fc2:	021b      	lsls	r3, r3, #8
    1fc4:	78e5      	ldrb	r5, [r4, #3]
    1fc6:	431d      	orrs	r5, r3
    1fc8:	79a3      	ldrb	r3, [r4, #6]
    1fca:	021b      	lsls	r3, r3, #8
    1fcc:	7966      	ldrb	r6, [r4, #5]
    1fce:	431e      	orrs	r6, r3
    1fd0:	2200      	movs	r2, #0
    1fd2:	2382      	movs	r3, #130	; 0x82
    1fd4:	54e2      	strb	r2, [r4, r3]
    1fd6:	78a3      	ldrb	r3, [r4, #2]
    1fd8:	4a67      	ldr	r2, [pc, #412]	; (2178 <STACK_SIZE+0x178>)
    1fda:	7810      	ldrb	r0, [r2, #0]
    1fdc:	4018      	ands	r0, r3
    1fde:	4b67      	ldr	r3, [pc, #412]	; (217c <STACK_SIZE+0x17c>)
    1fe0:	4798      	blx	r3
    1fe2:	78a0      	ldrb	r0, [r4, #2]
    1fe4:	0031      	movs	r1, r6
    1fe6:	4b66      	ldr	r3, [pc, #408]	; (2180 <STACK_SIZE+0x180>)
    1fe8:	4798      	blx	r3
    1fea:	2002      	movs	r0, #2
    1fec:	4b65      	ldr	r3, [pc, #404]	; (2184 <STACK_SIZE+0x184>)
    1fee:	4798      	blx	r3
    1ff0:	78a0      	ldrb	r0, [r4, #2]
    1ff2:	0029      	movs	r1, r5
    1ff4:	4b64      	ldr	r3, [pc, #400]	; (2188 <STACK_SIZE+0x188>)
    1ff6:	4798      	blx	r3
    1ff8:	e07a      	b.n	20f0 <STACK_SIZE+0xf0>
    1ffa:	4b53      	ldr	r3, [pc, #332]	; (2148 <STACK_SIZE+0x148>)
    1ffc:	785b      	ldrb	r3, [r3, #1]
    1ffe:	2b03      	cmp	r3, #3
    2000:	d003      	beq.n	200a <STACK_SIZE+0xa>
    2002:	2200      	movs	r2, #0
    2004:	4b4f      	ldr	r3, [pc, #316]	; (2144 <STACK_SIZE+0x144>)
    2006:	701a      	strb	r2, [r3, #0]
    2008:	e072      	b.n	20f0 <STACK_SIZE+0xf0>
    200a:	4a4f      	ldr	r2, [pc, #316]	; (2148 <STACK_SIZE+0x148>)
    200c:	2100      	movs	r1, #0
    200e:	2382      	movs	r3, #130	; 0x82
    2010:	54d1      	strb	r1, [r2, r3]
    2012:	7913      	ldrb	r3, [r2, #4]
    2014:	021b      	lsls	r3, r3, #8
    2016:	78d4      	ldrb	r4, [r2, #3]
    2018:	431c      	orrs	r4, r3
    201a:	b224      	sxth	r4, r4
    201c:	17e3      	asrs	r3, r4, #31
    201e:	18e2      	adds	r2, r4, r3
    2020:	405a      	eors	r2, r3
    2022:	4b5a      	ldr	r3, [pc, #360]	; (218c <STACK_SIZE+0x18c>)
    2024:	881b      	ldrh	r3, [r3, #0]
    2026:	429a      	cmp	r2, r3
    2028:	dc0b      	bgt.n	2042 <STACK_SIZE+0x42>
    202a:	4d47      	ldr	r5, [pc, #284]	; (2148 <STACK_SIZE+0x148>)
    202c:	78a8      	ldrb	r0, [r5, #2]
    202e:	2225      	movs	r2, #37	; 0x25
    2030:	2102      	movs	r1, #2
    2032:	4b57      	ldr	r3, [pc, #348]	; (2190 <STACK_SIZE+0x190>)
    2034:	4798      	blx	r3
    2036:	1904      	adds	r4, r0, r4
    2038:	b2a1      	uxth	r1, r4
    203a:	78a8      	ldrb	r0, [r5, #2]
    203c:	4b52      	ldr	r3, [pc, #328]	; (2188 <STACK_SIZE+0x188>)
    203e:	4798      	blx	r3
    2040:	e056      	b.n	20f0 <STACK_SIZE+0xf0>
    2042:	4b41      	ldr	r3, [pc, #260]	; (2148 <STACK_SIZE+0x148>)
    2044:	789b      	ldrb	r3, [r3, #2]
    2046:	4a4c      	ldr	r2, [pc, #304]	; (2178 <STACK_SIZE+0x178>)
    2048:	7810      	ldrb	r0, [r2, #0]
    204a:	4018      	ands	r0, r3
    204c:	4b4b      	ldr	r3, [pc, #300]	; (217c <STACK_SIZE+0x17c>)
    204e:	4798      	blx	r3
    2050:	e7eb      	b.n	202a <STACK_SIZE+0x2a>
    2052:	4b3d      	ldr	r3, [pc, #244]	; (2148 <STACK_SIZE+0x148>)
    2054:	785b      	ldrb	r3, [r3, #1]
    2056:	2b02      	cmp	r3, #2
    2058:	d003      	beq.n	2062 <STACK_SIZE+0x62>
    205a:	2200      	movs	r2, #0
    205c:	4b39      	ldr	r3, [pc, #228]	; (2144 <STACK_SIZE+0x144>)
    205e:	701a      	strb	r2, [r3, #0]
    2060:	e046      	b.n	20f0 <STACK_SIZE+0xf0>
    2062:	4b39      	ldr	r3, [pc, #228]	; (2148 <STACK_SIZE+0x148>)
    2064:	2100      	movs	r1, #0
    2066:	2282      	movs	r2, #130	; 0x82
    2068:	5499      	strb	r1, [r3, r2]
    206a:	78d9      	ldrb	r1, [r3, #3]
    206c:	7898      	ldrb	r0, [r3, #2]
    206e:	4b49      	ldr	r3, [pc, #292]	; (2194 <STACK_SIZE+0x194>)
    2070:	4798      	blx	r3
    2072:	e03d      	b.n	20f0 <STACK_SIZE+0xf0>
    2074:	4b34      	ldr	r3, [pc, #208]	; (2148 <STACK_SIZE+0x148>)
    2076:	785b      	ldrb	r3, [r3, #1]
    2078:	2b03      	cmp	r3, #3
    207a:	d003      	beq.n	2084 <STACK_SIZE+0x84>
    207c:	2200      	movs	r2, #0
    207e:	4b31      	ldr	r3, [pc, #196]	; (2144 <STACK_SIZE+0x144>)
    2080:	701a      	strb	r2, [r3, #0]
    2082:	e035      	b.n	20f0 <STACK_SIZE+0xf0>
    2084:	294d      	cmp	r1, #77	; 0x4d
    2086:	d01c      	beq.n	20c2 <STACK_SIZE+0xc2>
    2088:	2971      	cmp	r1, #113	; 0x71
    208a:	d00f      	beq.n	20ac <STACK_SIZE+0xac>
    208c:	2206      	movs	r2, #6
    208e:	2972      	cmp	r1, #114	; 0x72
    2090:	d015      	beq.n	20be <STACK_SIZE+0xbe>
    2092:	492d      	ldr	r1, [pc, #180]	; (2148 <STACK_SIZE+0x148>)
    2094:	2000      	movs	r0, #0
    2096:	2382      	movs	r3, #130	; 0x82
    2098:	54c8      	strb	r0, [r1, r3]
    209a:	1ccb      	adds	r3, r1, #3
    209c:	b292      	uxth	r2, r2
    209e:	7888      	ldrb	r0, [r1, #2]
    20a0:	2102      	movs	r1, #2
    20a2:	9100      	str	r1, [sp, #0]
    20a4:	3101      	adds	r1, #1
    20a6:	4c3c      	ldr	r4, [pc, #240]	; (2198 <STACK_SIZE+0x198>)
    20a8:	47a0      	blx	r4
    20aa:	e021      	b.n	20f0 <STACK_SIZE+0xf0>
    20ac:	4b26      	ldr	r3, [pc, #152]	; (2148 <STACK_SIZE+0x148>)
    20ae:	789b      	ldrb	r3, [r3, #2]
    20b0:	4a31      	ldr	r2, [pc, #196]	; (2178 <STACK_SIZE+0x178>)
    20b2:	7810      	ldrb	r0, [r2, #0]
    20b4:	4018      	ands	r0, r3
    20b6:	4b31      	ldr	r3, [pc, #196]	; (217c <STACK_SIZE+0x17c>)
    20b8:	4798      	blx	r3
    20ba:	221e      	movs	r2, #30
    20bc:	e7e9      	b.n	2092 <STACK_SIZE+0x92>
    20be:	321a      	adds	r2, #26
    20c0:	e7e7      	b.n	2092 <STACK_SIZE+0x92>
    20c2:	2208      	movs	r2, #8
    20c4:	e7e5      	b.n	2092 <STACK_SIZE+0x92>
    20c6:	4b20      	ldr	r3, [pc, #128]	; (2148 <STACK_SIZE+0x148>)
    20c8:	78db      	ldrb	r3, [r3, #3]
    20ca:	2bfc      	cmp	r3, #252	; 0xfc
    20cc:	d805      	bhi.n	20da <STACK_SIZE+0xda>
    20ce:	4b1e      	ldr	r3, [pc, #120]	; (2148 <STACK_SIZE+0x148>)
    20d0:	785b      	ldrb	r3, [r3, #1]
    20d2:	2203      	movs	r2, #3
    20d4:	2b02      	cmp	r3, #2
    20d6:	d108      	bne.n	20ea <STACK_SIZE+0xea>
    20d8:	e012      	b.n	2100 <STACK_SIZE+0x100>
    20da:	2200      	movs	r2, #0
    20dc:	4b19      	ldr	r3, [pc, #100]	; (2144 <STACK_SIZE+0x144>)
    20de:	701a      	strb	r2, [r3, #0]
    20e0:	e006      	b.n	20f0 <STACK_SIZE+0xf0>
    20e2:	4b19      	ldr	r3, [pc, #100]	; (2148 <STACK_SIZE+0x148>)
    20e4:	785b      	ldrb	r3, [r3, #1]
    20e6:	2b02      	cmp	r3, #2
    20e8:	d004      	beq.n	20f4 <STACK_SIZE+0xf4>
    20ea:	2200      	movs	r2, #0
    20ec:	4b15      	ldr	r3, [pc, #84]	; (2144 <STACK_SIZE+0x144>)
    20ee:	701a      	strb	r2, [r3, #0]
    20f0:	b005      	add	sp, #20
    20f2:	bdf0      	pop	{r4, r5, r6, r7, pc}
    20f4:	4a14      	ldr	r2, [pc, #80]	; (2148 <STACK_SIZE+0x148>)
    20f6:	78d1      	ldrb	r1, [r2, #3]
    20f8:	2303      	movs	r3, #3
    20fa:	400b      	ands	r3, r1
    20fc:	70d3      	strb	r3, [r2, #3]
    20fe:	2204      	movs	r2, #4
    2100:	4911      	ldr	r1, [pc, #68]	; (2148 <STACK_SIZE+0x148>)
    2102:	2000      	movs	r0, #0
    2104:	2382      	movs	r3, #130	; 0x82
    2106:	54c8      	strb	r0, [r1, r3]
    2108:	1ccb      	adds	r3, r1, #3
    210a:	b292      	uxth	r2, r2
    210c:	7888      	ldrb	r0, [r1, #2]
    210e:	2101      	movs	r1, #1
    2110:	9100      	str	r1, [sp, #0]
    2112:	3102      	adds	r1, #2
    2114:	4c20      	ldr	r4, [pc, #128]	; (2198 <STACK_SIZE+0x198>)
    2116:	47a0      	blx	r4
    2118:	e7ea      	b.n	20f0 <STACK_SIZE+0xf0>
    211a:	4b0b      	ldr	r3, [pc, #44]	; (2148 <STACK_SIZE+0x148>)
    211c:	785b      	ldrb	r3, [r3, #1]
    211e:	2b04      	cmp	r3, #4
    2120:	d003      	beq.n	212a <STACK_SIZE+0x12a>
    2122:	2200      	movs	r2, #0
    2124:	4b07      	ldr	r3, [pc, #28]	; (2144 <STACK_SIZE+0x144>)
    2126:	701a      	strb	r2, [r3, #0]
    2128:	e7e2      	b.n	20f0 <STACK_SIZE+0xf0>
    212a:	4a07      	ldr	r2, [pc, #28]	; (2148 <STACK_SIZE+0x148>)
    212c:	2100      	movs	r1, #0
    212e:	2382      	movs	r3, #130	; 0x82
    2130:	54d1      	strb	r1, [r2, r3]
    2132:	1cd3      	adds	r3, r2, #3
    2134:	7890      	ldrb	r0, [r2, #2]
    2136:	2203      	movs	r2, #3
    2138:	9200      	str	r2, [sp, #0]
    213a:	3218      	adds	r2, #24
    213c:	3103      	adds	r1, #3
    213e:	4c16      	ldr	r4, [pc, #88]	; (2198 <STACK_SIZE+0x198>)
    2140:	47a0      	blx	r4
    2142:	e7d5      	b.n	20f0 <STACK_SIZE+0xf0>
    2144:	20001364 	.word	0x20001364
    2148:	200011e0 	.word	0x200011e0
    214c:	0000c164 	.word	0x0000c164
    2150:	00001c59 	.word	0x00001c59
    2154:	00001c11 	.word	0x00001c11
    2158:	0000176d 	.word	0x0000176d
    215c:	0000163d 	.word	0x0000163d
    2160:	00000405 	.word	0x00000405
    2164:	000003fd 	.word	0x000003fd
    2168:	00009cc9 	.word	0x00009cc9
    216c:	461c4000 	.word	0x461c4000
    2170:	000093cd 	.word	0x000093cd
    2174:	00003655 	.word	0x00003655
    2178:	20000020 	.word	0x20000020
    217c:	0000177d 	.word	0x0000177d
    2180:	000035b5 	.word	0x000035b5
    2184:	00002c05 	.word	0x00002c05
    2188:	0000356d 	.word	0x0000356d
    218c:	20000022 	.word	0x20000022
    2190:	00003451 	.word	0x00003451
    2194:	00003539 	.word	0x00003539
    2198:	0000338d 	.word	0x0000338d
    219c:	4baf      	ldr	r3, [pc, #700]	; (245c <STACK_SIZE+0x45c>)
    219e:	785b      	ldrb	r3, [r3, #1]
    21a0:	2b02      	cmp	r3, #2
    21a2:	d003      	beq.n	21ac <STACK_SIZE+0x1ac>
    21a4:	2200      	movs	r2, #0
    21a6:	4bae      	ldr	r3, [pc, #696]	; (2460 <STACK_SIZE+0x460>)
    21a8:	701a      	strb	r2, [r3, #0]
    21aa:	e7a1      	b.n	20f0 <STACK_SIZE+0xf0>
    21ac:	4bab      	ldr	r3, [pc, #684]	; (245c <STACK_SIZE+0x45c>)
    21ae:	2100      	movs	r1, #0
    21b0:	2282      	movs	r2, #130	; 0x82
    21b2:	5499      	strb	r1, [r3, r2]
    21b4:	78d9      	ldrb	r1, [r3, #3]
    21b6:	7898      	ldrb	r0, [r3, #2]
    21b8:	4baa      	ldr	r3, [pc, #680]	; (2464 <STACK_SIZE+0x464>)
    21ba:	4798      	blx	r3
    21bc:	e798      	b.n	20f0 <STACK_SIZE+0xf0>
    21be:	4ba7      	ldr	r3, [pc, #668]	; (245c <STACK_SIZE+0x45c>)
    21c0:	785b      	ldrb	r3, [r3, #1]
    21c2:	2b01      	cmp	r3, #1
    21c4:	d003      	beq.n	21ce <STACK_SIZE+0x1ce>
    21c6:	2200      	movs	r2, #0
    21c8:	4ba5      	ldr	r3, [pc, #660]	; (2460 <STACK_SIZE+0x460>)
    21ca:	701a      	strb	r2, [r3, #0]
    21cc:	e790      	b.n	20f0 <STACK_SIZE+0xf0>
    21ce:	3956      	subs	r1, #86	; 0x56
    21d0:	b2cb      	uxtb	r3, r1
    21d2:	2b09      	cmp	r3, #9
    21d4:	d809      	bhi.n	21ea <STACK_SIZE+0x1ea>
    21d6:	0099      	lsls	r1, r3, #2
    21d8:	4ba3      	ldr	r3, [pc, #652]	; (2468 <STACK_SIZE+0x468>)
    21da:	585b      	ldr	r3, [r3, r1]
    21dc:	469f      	mov	pc, r3
    21de:	2227      	movs	r2, #39	; 0x27
    21e0:	e00d      	b.n	21fe <STACK_SIZE+0x1fe>
    21e2:	2206      	movs	r2, #6
    21e4:	e00b      	b.n	21fe <STACK_SIZE+0x1fe>
    21e6:	2208      	movs	r2, #8
    21e8:	e009      	b.n	21fe <STACK_SIZE+0x1fe>
    21ea:	2300      	movs	r3, #0
    21ec:	2282      	movs	r2, #130	; 0x82
    21ee:	499b      	ldr	r1, [pc, #620]	; (245c <STACK_SIZE+0x45c>)
    21f0:	548b      	strb	r3, [r1, r2]
    21f2:	4a9b      	ldr	r2, [pc, #620]	; (2460 <STACK_SIZE+0x460>)
    21f4:	7013      	strb	r3, [r2, #0]
    21f6:	e77b      	b.n	20f0 <STACK_SIZE+0xf0>
    21f8:	2225      	movs	r2, #37	; 0x25
    21fa:	e000      	b.n	21fe <STACK_SIZE+0x1fe>
    21fc:	2229      	movs	r2, #41	; 0x29
    21fe:	4b97      	ldr	r3, [pc, #604]	; (245c <STACK_SIZE+0x45c>)
    2200:	7898      	ldrb	r0, [r3, #2]
    2202:	2102      	movs	r1, #2
    2204:	4b99      	ldr	r3, [pc, #612]	; (246c <STACK_SIZE+0x46c>)
    2206:	4798      	blx	r3
    2208:	9003      	str	r0, [sp, #12]
    220a:	1c43      	adds	r3, r0, #1
    220c:	d00b      	beq.n	2226 <STACK_SIZE+0x226>
    220e:	4b93      	ldr	r3, [pc, #588]	; (245c <STACK_SIZE+0x45c>)
    2210:	2102      	movs	r1, #2
    2212:	2282      	movs	r2, #130	; 0x82
    2214:	5499      	strb	r1, [r3, r2]
    2216:	aa03      	add	r2, sp, #12
    2218:	7810      	ldrb	r0, [r2, #0]
    221a:	3181      	adds	r1, #129	; 0x81
    221c:	5458      	strb	r0, [r3, r1]
    221e:	7851      	ldrb	r1, [r2, #1]
    2220:	2284      	movs	r2, #132	; 0x84
    2222:	5499      	strb	r1, [r3, r2]
    2224:	e764      	b.n	20f0 <STACK_SIZE+0xf0>
    2226:	2200      	movs	r2, #0
    2228:	4b8d      	ldr	r3, [pc, #564]	; (2460 <STACK_SIZE+0x460>)
    222a:	701a      	strb	r2, [r3, #0]
    222c:	e760      	b.n	20f0 <STACK_SIZE+0xf0>
    222e:	4b8b      	ldr	r3, [pc, #556]	; (245c <STACK_SIZE+0x45c>)
    2230:	785b      	ldrb	r3, [r3, #1]
    2232:	2b01      	cmp	r3, #1
    2234:	d003      	beq.n	223e <STACK_SIZE+0x23e>
    2236:	2200      	movs	r2, #0
    2238:	4b89      	ldr	r3, [pc, #548]	; (2460 <STACK_SIZE+0x460>)
    223a:	701a      	strb	r2, [r3, #0]
    223c:	e758      	b.n	20f0 <STACK_SIZE+0xf0>
    223e:	2959      	cmp	r1, #89	; 0x59
    2240:	d018      	beq.n	2274 <STACK_SIZE+0x274>
    2242:	295a      	cmp	r1, #90	; 0x5a
    2244:	d004      	beq.n	2250 <STACK_SIZE+0x250>
    2246:	222e      	movs	r2, #46	; 0x2e
    2248:	2958      	cmp	r1, #88	; 0x58
    224a:	d002      	beq.n	2252 <STACK_SIZE+0x252>
    224c:	2232      	movs	r2, #50	; 0x32
    224e:	e000      	b.n	2252 <STACK_SIZE+0x252>
    2250:	2231      	movs	r2, #49	; 0x31
    2252:	4b82      	ldr	r3, [pc, #520]	; (245c <STACK_SIZE+0x45c>)
    2254:	7898      	ldrb	r0, [r3, #2]
    2256:	2102      	movs	r1, #2
    2258:	4b84      	ldr	r3, [pc, #528]	; (246c <STACK_SIZE+0x46c>)
    225a:	4798      	blx	r3
    225c:	9003      	str	r0, [sp, #12]
    225e:	1c43      	adds	r3, r0, #1
    2260:	d00a      	beq.n	2278 <STACK_SIZE+0x278>
    2262:	4b7e      	ldr	r3, [pc, #504]	; (245c <STACK_SIZE+0x45c>)
    2264:	2101      	movs	r1, #1
    2266:	2282      	movs	r2, #130	; 0x82
    2268:	5499      	strb	r1, [r3, r2]
    226a:	aa03      	add	r2, sp, #12
    226c:	7811      	ldrb	r1, [r2, #0]
    226e:	2283      	movs	r2, #131	; 0x83
    2270:	5499      	strb	r1, [r3, r2]
    2272:	e73d      	b.n	20f0 <STACK_SIZE+0xf0>
    2274:	222d      	movs	r2, #45	; 0x2d
    2276:	e7ec      	b.n	2252 <STACK_SIZE+0x252>
    2278:	2200      	movs	r2, #0
    227a:	4b79      	ldr	r3, [pc, #484]	; (2460 <STACK_SIZE+0x460>)
    227c:	701a      	strb	r2, [r3, #0]
    227e:	e737      	b.n	20f0 <STACK_SIZE+0xf0>
    2280:	4b76      	ldr	r3, [pc, #472]	; (245c <STACK_SIZE+0x45c>)
    2282:	785b      	ldrb	r3, [r3, #1]
    2284:	2b02      	cmp	r3, #2
    2286:	d003      	beq.n	2290 <STACK_SIZE+0x290>
    2288:	2200      	movs	r2, #0
    228a:	4b75      	ldr	r3, [pc, #468]	; (2460 <STACK_SIZE+0x460>)
    228c:	701a      	strb	r2, [r3, #0]
    228e:	e72f      	b.n	20f0 <STACK_SIZE+0xf0>
    2290:	4b72      	ldr	r3, [pc, #456]	; (245c <STACK_SIZE+0x45c>)
    2292:	78da      	ldrb	r2, [r3, #3]
    2294:	2a33      	cmp	r2, #51	; 0x33
    2296:	d900      	bls.n	229a <STACK_SIZE+0x29a>
    2298:	e72a      	b.n	20f0 <STACK_SIZE+0xf0>
    229a:	7898      	ldrb	r0, [r3, #2]
    229c:	2102      	movs	r1, #2
    229e:	4b73      	ldr	r3, [pc, #460]	; (246c <STACK_SIZE+0x46c>)
    22a0:	4798      	blx	r3
    22a2:	9003      	str	r0, [sp, #12]
    22a4:	1c43      	adds	r3, r0, #1
    22a6:	d100      	bne.n	22aa <STACK_SIZE+0x2aa>
    22a8:	e722      	b.n	20f0 <STACK_SIZE+0xf0>
    22aa:	4b6c      	ldr	r3, [pc, #432]	; (245c <STACK_SIZE+0x45c>)
    22ac:	781b      	ldrb	r3, [r3, #0]
    22ae:	2b6f      	cmp	r3, #111	; 0x6f
    22b0:	d005      	beq.n	22be <STACK_SIZE+0x2be>
    22b2:	2b70      	cmp	r3, #112	; 0x70
    22b4:	d00c      	beq.n	22d0 <STACK_SIZE+0x2d0>
    22b6:	2200      	movs	r2, #0
    22b8:	4b69      	ldr	r3, [pc, #420]	; (2460 <STACK_SIZE+0x460>)
    22ba:	701a      	strb	r2, [r3, #0]
    22bc:	e718      	b.n	20f0 <STACK_SIZE+0xf0>
    22be:	4b67      	ldr	r3, [pc, #412]	; (245c <STACK_SIZE+0x45c>)
    22c0:	2101      	movs	r1, #1
    22c2:	2282      	movs	r2, #130	; 0x82
    22c4:	5499      	strb	r1, [r3, r2]
    22c6:	aa03      	add	r2, sp, #12
    22c8:	7811      	ldrb	r1, [r2, #0]
    22ca:	2283      	movs	r2, #131	; 0x83
    22cc:	5499      	strb	r1, [r3, r2]
    22ce:	e70f      	b.n	20f0 <STACK_SIZE+0xf0>
    22d0:	4b62      	ldr	r3, [pc, #392]	; (245c <STACK_SIZE+0x45c>)
    22d2:	2102      	movs	r1, #2
    22d4:	2282      	movs	r2, #130	; 0x82
    22d6:	5499      	strb	r1, [r3, r2]
    22d8:	aa03      	add	r2, sp, #12
    22da:	7810      	ldrb	r0, [r2, #0]
    22dc:	3181      	adds	r1, #129	; 0x81
    22de:	5458      	strb	r0, [r3, r1]
    22e0:	7851      	ldrb	r1, [r2, #1]
    22e2:	2284      	movs	r2, #132	; 0x84
    22e4:	5499      	strb	r1, [r3, r2]
    22e6:	e703      	b.n	20f0 <STACK_SIZE+0xf0>
    22e8:	4b5c      	ldr	r3, [pc, #368]	; (245c <STACK_SIZE+0x45c>)
    22ea:	785b      	ldrb	r3, [r3, #1]
    22ec:	2b00      	cmp	r3, #0
    22ee:	d003      	beq.n	22f8 <STACK_SIZE+0x2f8>
    22f0:	2200      	movs	r2, #0
    22f2:	4b5b      	ldr	r3, [pc, #364]	; (2460 <STACK_SIZE+0x460>)
    22f4:	701a      	strb	r2, [r3, #0]
    22f6:	e6fb      	b.n	20f0 <STACK_SIZE+0xf0>
    22f8:	ac03      	add	r4, sp, #12
    22fa:	2300      	movs	r3, #0
    22fc:	8023      	strh	r3, [r4, #0]
    22fe:	4d57      	ldr	r5, [pc, #348]	; (245c <STACK_SIZE+0x45c>)
    2300:	2204      	movs	r2, #4
    2302:	3382      	adds	r3, #130	; 0x82
    2304:	54ea      	strb	r2, [r5, r3]
    2306:	3221      	adds	r2, #33	; 0x21
    2308:	2102      	movs	r1, #2
    230a:	2001      	movs	r0, #1
    230c:	4e57      	ldr	r6, [pc, #348]	; (246c <STACK_SIZE+0x46c>)
    230e:	47b0      	blx	r6
    2310:	b200      	sxth	r0, r0
    2312:	8020      	strh	r0, [r4, #0]
    2314:	7822      	ldrb	r2, [r4, #0]
    2316:	2383      	movs	r3, #131	; 0x83
    2318:	54ea      	strb	r2, [r5, r3]
    231a:	7862      	ldrb	r2, [r4, #1]
    231c:	3301      	adds	r3, #1
    231e:	54ea      	strb	r2, [r5, r3]
    2320:	2225      	movs	r2, #37	; 0x25
    2322:	2102      	movs	r1, #2
    2324:	2002      	movs	r0, #2
    2326:	47b0      	blx	r6
    2328:	b200      	sxth	r0, r0
    232a:	8020      	strh	r0, [r4, #0]
    232c:	7822      	ldrb	r2, [r4, #0]
    232e:	2385      	movs	r3, #133	; 0x85
    2330:	54ea      	strb	r2, [r5, r3]
    2332:	7862      	ldrb	r2, [r4, #1]
    2334:	3301      	adds	r3, #1
    2336:	54ea      	strb	r2, [r5, r3]
    2338:	e6da      	b.n	20f0 <STACK_SIZE+0xf0>
    233a:	4b48      	ldr	r3, [pc, #288]	; (245c <STACK_SIZE+0x45c>)
    233c:	785b      	ldrb	r3, [r3, #1]
    233e:	2b01      	cmp	r3, #1
    2340:	d003      	beq.n	234a <STACK_SIZE+0x34a>
    2342:	2200      	movs	r2, #0
    2344:	4b46      	ldr	r3, [pc, #280]	; (2460 <STACK_SIZE+0x460>)
    2346:	701a      	strb	r2, [r3, #0]
    2348:	e6d2      	b.n	20f0 <STACK_SIZE+0xf0>
    234a:	4b44      	ldr	r3, [pc, #272]	; (245c <STACK_SIZE+0x45c>)
    234c:	2100      	movs	r1, #0
    234e:	2282      	movs	r2, #130	; 0x82
    2350:	5499      	strb	r1, [r3, r2]
    2352:	789b      	ldrb	r3, [r3, #2]
    2354:	2b00      	cmp	r3, #0
    2356:	d003      	beq.n	2360 <STACK_SIZE+0x360>
    2358:	3a42      	subs	r2, #66	; 0x42
    235a:	4b45      	ldr	r3, [pc, #276]	; (2470 <STACK_SIZE+0x470>)
    235c:	619a      	str	r2, [r3, #24]
    235e:	e6c7      	b.n	20f0 <STACK_SIZE+0xf0>
    2360:	2240      	movs	r2, #64	; 0x40
    2362:	4b43      	ldr	r3, [pc, #268]	; (2470 <STACK_SIZE+0x470>)
    2364:	615a      	str	r2, [r3, #20]
    2366:	e6c3      	b.n	20f0 <STACK_SIZE+0xf0>
    2368:	4b3c      	ldr	r3, [pc, #240]	; (245c <STACK_SIZE+0x45c>)
    236a:	785b      	ldrb	r3, [r3, #1]
    236c:	2b01      	cmp	r3, #1
    236e:	d003      	beq.n	2378 <STACK_SIZE+0x378>
    2370:	2200      	movs	r2, #0
    2372:	4b3b      	ldr	r3, [pc, #236]	; (2460 <STACK_SIZE+0x460>)
    2374:	701a      	strb	r2, [r3, #0]
    2376:	e6bb      	b.n	20f0 <STACK_SIZE+0xf0>
    2378:	4b38      	ldr	r3, [pc, #224]	; (245c <STACK_SIZE+0x45c>)
    237a:	2100      	movs	r1, #0
    237c:	2282      	movs	r2, #130	; 0x82
    237e:	5499      	strb	r1, [r3, r2]
    2380:	789b      	ldrb	r3, [r3, #2]
    2382:	2b00      	cmp	r3, #0
    2384:	d004      	beq.n	2390 <STACK_SIZE+0x390>
    2386:	2280      	movs	r2, #128	; 0x80
    2388:	0512      	lsls	r2, r2, #20
    238a:	4b39      	ldr	r3, [pc, #228]	; (2470 <STACK_SIZE+0x470>)
    238c:	619a      	str	r2, [r3, #24]
    238e:	e6af      	b.n	20f0 <STACK_SIZE+0xf0>
    2390:	2280      	movs	r2, #128	; 0x80
    2392:	0512      	lsls	r2, r2, #20
    2394:	4b36      	ldr	r3, [pc, #216]	; (2470 <STACK_SIZE+0x470>)
    2396:	615a      	str	r2, [r3, #20]
    2398:	e6aa      	b.n	20f0 <STACK_SIZE+0xf0>
    239a:	4b30      	ldr	r3, [pc, #192]	; (245c <STACK_SIZE+0x45c>)
    239c:	785b      	ldrb	r3, [r3, #1]
    239e:	2b01      	cmp	r3, #1
    23a0:	d003      	beq.n	23aa <STACK_SIZE+0x3aa>
    23a2:	2200      	movs	r2, #0
    23a4:	4b2e      	ldr	r3, [pc, #184]	; (2460 <STACK_SIZE+0x460>)
    23a6:	701a      	strb	r2, [r3, #0]
    23a8:	e6a2      	b.n	20f0 <STACK_SIZE+0xf0>
    23aa:	4b2c      	ldr	r3, [pc, #176]	; (245c <STACK_SIZE+0x45c>)
    23ac:	2100      	movs	r1, #0
    23ae:	2282      	movs	r2, #130	; 0x82
    23b0:	5499      	strb	r1, [r3, r2]
    23b2:	7898      	ldrb	r0, [r3, #2]
    23b4:	4b2f      	ldr	r3, [pc, #188]	; (2474 <STACK_SIZE+0x474>)
    23b6:	4798      	blx	r3
    23b8:	e69a      	b.n	20f0 <STACK_SIZE+0xf0>
    23ba:	4b28      	ldr	r3, [pc, #160]	; (245c <STACK_SIZE+0x45c>)
    23bc:	785b      	ldrb	r3, [r3, #1]
    23be:	2b01      	cmp	r3, #1
    23c0:	d003      	beq.n	23ca <STACK_SIZE+0x3ca>
    23c2:	2200      	movs	r2, #0
    23c4:	4b26      	ldr	r3, [pc, #152]	; (2460 <STACK_SIZE+0x460>)
    23c6:	701a      	strb	r2, [r3, #0]
    23c8:	e692      	b.n	20f0 <STACK_SIZE+0xf0>
    23ca:	4b24      	ldr	r3, [pc, #144]	; (245c <STACK_SIZE+0x45c>)
    23cc:	2100      	movs	r1, #0
    23ce:	2282      	movs	r2, #130	; 0x82
    23d0:	5499      	strb	r1, [r3, r2]
    23d2:	7898      	ldrb	r0, [r3, #2]
    23d4:	4b28      	ldr	r3, [pc, #160]	; (2478 <STACK_SIZE+0x478>)
    23d6:	4798      	blx	r3
    23d8:	e68a      	b.n	20f0 <STACK_SIZE+0xf0>
    23da:	4b20      	ldr	r3, [pc, #128]	; (245c <STACK_SIZE+0x45c>)
    23dc:	785b      	ldrb	r3, [r3, #1]
    23de:	2b01      	cmp	r3, #1
    23e0:	d003      	beq.n	23ea <STACK_SIZE+0x3ea>
    23e2:	2200      	movs	r2, #0
    23e4:	4b1e      	ldr	r3, [pc, #120]	; (2460 <STACK_SIZE+0x460>)
    23e6:	701a      	strb	r2, [r3, #0]
    23e8:	e682      	b.n	20f0 <STACK_SIZE+0xf0>
    23ea:	4b1c      	ldr	r3, [pc, #112]	; (245c <STACK_SIZE+0x45c>)
    23ec:	2100      	movs	r1, #0
    23ee:	2282      	movs	r2, #130	; 0x82
    23f0:	5499      	strb	r1, [r3, r2]
    23f2:	7898      	ldrb	r0, [r3, #2]
    23f4:	4b21      	ldr	r3, [pc, #132]	; (247c <STACK_SIZE+0x47c>)
    23f6:	4798      	blx	r3
    23f8:	e67a      	b.n	20f0 <STACK_SIZE+0xf0>
    23fa:	4b18      	ldr	r3, [pc, #96]	; (245c <STACK_SIZE+0x45c>)
    23fc:	785b      	ldrb	r3, [r3, #1]
    23fe:	2b01      	cmp	r3, #1
    2400:	d003      	beq.n	240a <STACK_SIZE+0x40a>
    2402:	2200      	movs	r2, #0
    2404:	4b16      	ldr	r3, [pc, #88]	; (2460 <STACK_SIZE+0x460>)
    2406:	701a      	strb	r2, [r3, #0]
    2408:	e672      	b.n	20f0 <STACK_SIZE+0xf0>
    240a:	4b14      	ldr	r3, [pc, #80]	; (245c <STACK_SIZE+0x45c>)
    240c:	2100      	movs	r1, #0
    240e:	2282      	movs	r2, #130	; 0x82
    2410:	5499      	strb	r1, [r3, r2]
    2412:	7898      	ldrb	r0, [r3, #2]
    2414:	4b1a      	ldr	r3, [pc, #104]	; (2480 <STACK_SIZE+0x480>)
    2416:	4798      	blx	r3
    2418:	e66a      	b.n	20f0 <STACK_SIZE+0xf0>
    241a:	4b10      	ldr	r3, [pc, #64]	; (245c <STACK_SIZE+0x45c>)
    241c:	785b      	ldrb	r3, [r3, #1]
    241e:	2b04      	cmp	r3, #4
    2420:	d003      	beq.n	242a <STACK_SIZE+0x42a>
    2422:	2200      	movs	r2, #0
    2424:	4b0e      	ldr	r3, [pc, #56]	; (2460 <STACK_SIZE+0x460>)
    2426:	701a      	strb	r2, [r3, #0]
    2428:	e662      	b.n	20f0 <STACK_SIZE+0xf0>
    242a:	4b0c      	ldr	r3, [pc, #48]	; (245c <STACK_SIZE+0x45c>)
    242c:	791a      	ldrb	r2, [r3, #4]
    242e:	0212      	lsls	r2, r2, #8
    2430:	78d8      	ldrb	r0, [r3, #3]
    2432:	4310      	orrs	r0, r2
    2434:	7959      	ldrb	r1, [r3, #5]
    2436:	4a13      	ldr	r2, [pc, #76]	; (2484 <STACK_SIZE+0x484>)
    2438:	8011      	strh	r1, [r2, #0]
    243a:	2100      	movs	r1, #0
    243c:	2282      	movs	r2, #130	; 0x82
    243e:	5499      	strb	r1, [r3, r2]
    2440:	789a      	ldrb	r2, [r3, #2]
    2442:	4b11      	ldr	r3, [pc, #68]	; (2488 <STACK_SIZE+0x488>)
    2444:	701a      	strb	r2, [r3, #0]
    2446:	4b11      	ldr	r3, [pc, #68]	; (248c <STACK_SIZE+0x48c>)
    2448:	4798      	blx	r3
    244a:	e651      	b.n	20f0 <STACK_SIZE+0xf0>
    244c:	2300      	movs	r3, #0
    244e:	2282      	movs	r2, #130	; 0x82
    2450:	4902      	ldr	r1, [pc, #8]	; (245c <STACK_SIZE+0x45c>)
    2452:	548b      	strb	r3, [r1, r2]
    2454:	4a02      	ldr	r2, [pc, #8]	; (2460 <STACK_SIZE+0x460>)
    2456:	7013      	strb	r3, [r2, #0]
    2458:	e64a      	b.n	20f0 <STACK_SIZE+0xf0>
    245a:	46c0      	nop			; (mov r8, r8)
    245c:	200011e0 	.word	0x200011e0
    2460:	20001364 	.word	0x20001364
    2464:	000035e5 	.word	0x000035e5
    2468:	0000c2a8 	.word	0x0000c2a8
    246c:	00003451 	.word	0x00003451
    2470:	41004400 	.word	0x41004400
    2474:	00000875 	.word	0x00000875
    2478:	00003099 	.word	0x00003099
    247c:	00000865 	.word	0x00000865
    2480:	0000084d 	.word	0x0000084d
    2484:	20000022 	.word	0x20000022
    2488:	20000020 	.word	0x20000020
    248c:	000017bd 	.word	0x000017bd

00002490 <fSerial_Write>:
    2490:	b510      	push	{r4, lr}
    2492:	0004      	movs	r4, r0
    2494:	4b04      	ldr	r3, [pc, #16]	; (24a8 <fSerial_Write+0x18>)
    2496:	6818      	ldr	r0, [r3, #0]
    2498:	2800      	cmp	r0, #0
    249a:	d003      	beq.n	24a4 <fSerial_Write+0x14>
    249c:	b28a      	uxth	r2, r1
    249e:	0021      	movs	r1, r4
    24a0:	4b02      	ldr	r3, [pc, #8]	; (24ac <fSerial_Write+0x1c>)
    24a2:	4798      	blx	r3
    24a4:	bd10      	pop	{r4, pc}
    24a6:	46c0      	nop			; (mov r8, r8)
    24a8:	20000e60 	.word	0x20000e60
    24ac:	00006a35 	.word	0x00006a35

000024b0 <fSerial_sendNack>:
    24b0:	b510      	push	{r4, lr}
    24b2:	b082      	sub	sp, #8
    24b4:	ac01      	add	r4, sp, #4
    24b6:	4b07      	ldr	r3, [pc, #28]	; (24d4 <fSerial_sendNack+0x24>)
    24b8:	881b      	ldrh	r3, [r3, #0]
    24ba:	8023      	strh	r3, [r4, #0]
    24bc:	4b06      	ldr	r3, [pc, #24]	; (24d8 <fSerial_sendNack+0x28>)
    24be:	6818      	ldr	r0, [r3, #0]
    24c0:	2100      	movs	r1, #0
    24c2:	4b06      	ldr	r3, [pc, #24]	; (24dc <fSerial_sendNack+0x2c>)
    24c4:	4798      	blx	r3
    24c6:	2102      	movs	r1, #2
    24c8:	0020      	movs	r0, r4
    24ca:	4b05      	ldr	r3, [pc, #20]	; (24e0 <fSerial_sendNack+0x30>)
    24cc:	4798      	blx	r3
    24ce:	b002      	add	sp, #8
    24d0:	bd10      	pop	{r4, pc}
    24d2:	46c0      	nop			; (mov r8, r8)
    24d4:	0000c2d0 	.word	0x0000c2d0
    24d8:	20000e60 	.word	0x20000e60
    24dc:	00006b65 	.word	0x00006b65
    24e0:	00002491 	.word	0x00002491

000024e4 <fSerial_sendResponse>:
    24e4:	b570      	push	{r4, r5, r6, lr}
    24e6:	b0c0      	sub	sp, #256	; 0x100
    24e8:	4b28      	ldr	r3, [pc, #160]	; (258c <fSerial_sendResponse+0xa8>)
    24ea:	781b      	ldrb	r3, [r3, #0]
    24ec:	2b00      	cmp	r3, #0
    24ee:	d047      	beq.n	2580 <fSerial_sendResponse+0x9c>
    24f0:	22ff      	movs	r2, #255	; 0xff
    24f2:	ab20      	add	r3, sp, #128	; 0x80
    24f4:	701a      	strb	r2, [r3, #0]
    24f6:	4b26      	ldr	r3, [pc, #152]	; (2590 <fSerial_sendResponse+0xac>)
    24f8:	781a      	ldrb	r2, [r3, #0]
    24fa:	4669      	mov	r1, sp
    24fc:	700a      	strb	r2, [r1, #0]
    24fe:	2282      	movs	r2, #130	; 0x82
    2500:	5c9d      	ldrb	r5, [r3, r2]
    2502:	704d      	strb	r5, [r1, #1]
    2504:	1e28      	subs	r0, r5, #0
    2506:	dd0a      	ble.n	251e <fSerial_sendResponse+0x3a>
    2508:	2300      	movs	r3, #0
    250a:	4c21      	ldr	r4, [pc, #132]	; (2590 <fSerial_sendResponse+0xac>)
    250c:	001a      	movs	r2, r3
    250e:	446a      	add	r2, sp
    2510:	0019      	movs	r1, r3
    2512:	3183      	adds	r1, #131	; 0x83
    2514:	5c61      	ldrb	r1, [r4, r1]
    2516:	7091      	strb	r1, [r2, #2]
    2518:	3301      	adds	r3, #1
    251a:	4283      	cmp	r3, r0
    251c:	d1f6      	bne.n	250c <fSerial_sendResponse+0x28>
    251e:	1ca9      	adds	r1, r5, #2
    2520:	b2c9      	uxtb	r1, r1
    2522:	4668      	mov	r0, sp
    2524:	4b1b      	ldr	r3, [pc, #108]	; (2594 <fSerial_sendResponse+0xb0>)
    2526:	4798      	blx	r3
    2528:	002b      	movs	r3, r5
    252a:	446b      	add	r3, sp
    252c:	7098      	strb	r0, [r3, #2]
    252e:	3503      	adds	r5, #3
    2530:	2200      	movs	r2, #0
    2532:	2401      	movs	r4, #1
    2534:	a820      	add	r0, sp, #128	; 0x80
    2536:	26fd      	movs	r6, #253	; 0xfd
    2538:	e009      	b.n	254e <fSerial_sendResponse+0x6a>
    253a:	5506      	strb	r6, [r0, r4]
    253c:	1c61      	adds	r1, r4, #1
    253e:	b2c9      	uxtb	r1, r1
    2540:	3b02      	subs	r3, #2
    2542:	5443      	strb	r3, [r0, r1]
    2544:	3402      	adds	r4, #2
    2546:	b2e4      	uxtb	r4, r4
    2548:	3201      	adds	r2, #1
    254a:	42aa      	cmp	r2, r5
    254c:	da09      	bge.n	2562 <fSerial_sendResponse+0x7e>
    254e:	466b      	mov	r3, sp
    2550:	5cd3      	ldrb	r3, [r2, r3]
    2552:	1cd9      	adds	r1, r3, #3
    2554:	b2c9      	uxtb	r1, r1
    2556:	2902      	cmp	r1, #2
    2558:	d9ef      	bls.n	253a <fSerial_sendResponse+0x56>
    255a:	5503      	strb	r3, [r0, r4]
    255c:	3401      	adds	r4, #1
    255e:	b2e4      	uxtb	r4, r4
    2560:	e7f2      	b.n	2548 <fSerial_sendResponse+0x64>
    2562:	ad20      	add	r5, sp, #128	; 0x80
    2564:	23fe      	movs	r3, #254	; 0xfe
    2566:	552b      	strb	r3, [r5, r4]
    2568:	4b0b      	ldr	r3, [pc, #44]	; (2598 <fSerial_sendResponse+0xb4>)
    256a:	6818      	ldr	r0, [r3, #0]
    256c:	2100      	movs	r1, #0
    256e:	4b0b      	ldr	r3, [pc, #44]	; (259c <fSerial_sendResponse+0xb8>)
    2570:	4798      	blx	r3
    2572:	3401      	adds	r4, #1
    2574:	b2e1      	uxtb	r1, r4
    2576:	0028      	movs	r0, r5
    2578:	4b09      	ldr	r3, [pc, #36]	; (25a0 <fSerial_sendResponse+0xbc>)
    257a:	4798      	blx	r3
    257c:	b040      	add	sp, #256	; 0x100
    257e:	bd70      	pop	{r4, r5, r6, pc}
    2580:	4b08      	ldr	r3, [pc, #32]	; (25a4 <fSerial_sendResponse+0xc0>)
    2582:	4798      	blx	r3
    2584:	2201      	movs	r2, #1
    2586:	4b01      	ldr	r3, [pc, #4]	; (258c <fSerial_sendResponse+0xa8>)
    2588:	701a      	strb	r2, [r3, #0]
    258a:	e7f7      	b.n	257c <fSerial_sendResponse+0x98>
    258c:	20001364 	.word	0x20001364
    2590:	200011e0 	.word	0x200011e0
    2594:	00001d3d 	.word	0x00001d3d
    2598:	20000e60 	.word	0x20000e60
    259c:	00006b65 	.word	0x00006b65
    25a0:	00002491 	.word	0x00002491
    25a4:	000024b1 	.word	0x000024b1

000025a8 <fSerial_processSerial>:
    25a8:	b510      	push	{r4, lr}
    25aa:	4b23      	ldr	r3, [pc, #140]	; (2638 <fSerial_processSerial+0x90>)
    25ac:	681b      	ldr	r3, [r3, #0]
    25ae:	2b00      	cmp	r3, #0
    25b0:	d040      	beq.n	2634 <fSerial_processSerial+0x8c>
    25b2:	8d9a      	ldrh	r2, [r3, #44]	; 0x2c
    25b4:	b292      	uxth	r2, r2
    25b6:	4921      	ldr	r1, [pc, #132]	; (263c <fSerial_processSerial+0x94>)
    25b8:	6809      	ldr	r1, [r1, #0]
    25ba:	428a      	cmp	r2, r1
    25bc:	d03a      	beq.n	2634 <fSerial_processSerial+0x8c>
    25be:	6a58      	ldr	r0, [r3, #36]	; 0x24
    25c0:	1e41      	subs	r1, r0, #1
    25c2:	8d9c      	ldrh	r4, [r3, #44]	; 0x2c
    25c4:	4a1d      	ldr	r2, [pc, #116]	; (263c <fSerial_processSerial+0x94>)
    25c6:	6014      	str	r4, [r2, #0]
    25c8:	780a      	ldrb	r2, [r1, #0]
    25ca:	2aff      	cmp	r2, #255	; 0xff
    25cc:	d00c      	beq.n	25e8 <fSerial_processSerial+0x40>
    25ce:	2afe      	cmp	r2, #254	; 0xfe
    25d0:	d00d      	beq.n	25ee <fSerial_processSerial+0x46>
    25d2:	4c1b      	ldr	r4, [pc, #108]	; (2640 <fSerial_processSerial+0x98>)
    25d4:	7824      	ldrb	r4, [r4, #0]
    25d6:	2c00      	cmp	r4, #0
    25d8:	d126      	bne.n	2628 <fSerial_processSerial+0x80>
    25da:	2afd      	cmp	r2, #253	; 0xfd
    25dc:	d12a      	bne.n	2634 <fSerial_processSerial+0x8c>
    25de:	6259      	str	r1, [r3, #36]	; 0x24
    25e0:	3afc      	subs	r2, #252	; 0xfc
    25e2:	4b17      	ldr	r3, [pc, #92]	; (2640 <fSerial_processSerial+0x98>)
    25e4:	701a      	strb	r2, [r3, #0]
    25e6:	e025      	b.n	2634 <fSerial_processSerial+0x8c>
    25e8:	4b16      	ldr	r3, [pc, #88]	; (2644 <fSerial_processSerial+0x9c>)
    25ea:	6019      	str	r1, [r3, #0]
    25ec:	e022      	b.n	2634 <fSerial_processSerial+0x8c>
    25ee:	4b15      	ldr	r3, [pc, #84]	; (2644 <fSerial_processSerial+0x9c>)
    25f0:	6818      	ldr	r0, [r3, #0]
    25f2:	1a09      	subs	r1, r1, r0
    25f4:	3101      	adds	r1, #1
    25f6:	b2c9      	uxtb	r1, r1
    25f8:	4b13      	ldr	r3, [pc, #76]	; (2648 <fSerial_processSerial+0xa0>)
    25fa:	4798      	blx	r3
    25fc:	2800      	cmp	r0, #0
    25fe:	d010      	beq.n	2622 <fSerial_processSerial+0x7a>
    2600:	4b12      	ldr	r3, [pc, #72]	; (264c <fSerial_processSerial+0xa4>)
    2602:	4798      	blx	r3
    2604:	4b12      	ldr	r3, [pc, #72]	; (2650 <fSerial_processSerial+0xa8>)
    2606:	4798      	blx	r3
    2608:	4c12      	ldr	r4, [pc, #72]	; (2654 <fSerial_processSerial+0xac>)
    260a:	4b0b      	ldr	r3, [pc, #44]	; (2638 <fSerial_processSerial+0x90>)
    260c:	6818      	ldr	r0, [r3, #0]
    260e:	2280      	movs	r2, #128	; 0x80
    2610:	0021      	movs	r1, r4
    2612:	4b11      	ldr	r3, [pc, #68]	; (2658 <fSerial_processSerial+0xb0>)
    2614:	4798      	blx	r3
    2616:	4b0b      	ldr	r3, [pc, #44]	; (2644 <fSerial_processSerial+0x9c>)
    2618:	601c      	str	r4, [r3, #0]
    261a:	2280      	movs	r2, #128	; 0x80
    261c:	4b07      	ldr	r3, [pc, #28]	; (263c <fSerial_processSerial+0x94>)
    261e:	601a      	str	r2, [r3, #0]
    2620:	e008      	b.n	2634 <fSerial_processSerial+0x8c>
    2622:	4b0e      	ldr	r3, [pc, #56]	; (265c <fSerial_processSerial+0xb4>)
    2624:	4798      	blx	r3
    2626:	e7ef      	b.n	2608 <fSerial_processSerial+0x60>
    2628:	3801      	subs	r0, #1
    262a:	3202      	adds	r2, #2
    262c:	7002      	strb	r2, [r0, #0]
    262e:	2200      	movs	r2, #0
    2630:	4b03      	ldr	r3, [pc, #12]	; (2640 <fSerial_processSerial+0x98>)
    2632:	701a      	strb	r2, [r3, #0]
    2634:	bd10      	pop	{r4, pc}
    2636:	46c0      	nop			; (mov r8, r8)
    2638:	20000e60 	.word	0x20000e60
    263c:	200014b0 	.word	0x200014b0
    2640:	200011dc 	.word	0x200011dc
    2644:	2000142c 	.word	0x2000142c
    2648:	00001dad 	.word	0x00001dad
    264c:	00001e1d 	.word	0x00001e1d
    2650:	000024e5 	.word	0x000024e5
    2654:	20001430 	.word	0x20001430
    2658:	00006b45 	.word	0x00006b45
    265c:	000024b1 	.word	0x000024b1

00002660 <DAC_transfer_done>:
    2660:	b510      	push	{r4, lr}
    2662:	4b0c      	ldr	r3, [pc, #48]	; (2694 <DAC_transfer_done+0x34>)
    2664:	681b      	ldr	r3, [r3, #0]
    2666:	061a      	lsls	r2, r3, #24
    2668:	d408      	bmi.n	267c <DAC_transfer_done+0x1c>
    266a:	2201      	movs	r2, #1
    266c:	4b0a      	ldr	r3, [pc, #40]	; (2698 <DAC_transfer_done+0x38>)
    266e:	601a      	str	r2, [r3, #0]
    2670:	4a08      	ldr	r2, [pc, #32]	; (2694 <DAC_transfer_done+0x34>)
    2672:	2301      	movs	r3, #1
    2674:	6811      	ldr	r1, [r2, #0]
    2676:	400b      	ands	r3, r1
    2678:	6013      	str	r3, [r2, #0]
    267a:	bd10      	pop	{r4, pc}
    267c:	6981      	ldr	r1, [r0, #24]
    267e:	2201      	movs	r2, #1
    2680:	4013      	ands	r3, r2
    2682:	009b      	lsls	r3, r3, #2
    2684:	4a05      	ldr	r2, [pc, #20]	; (269c <DAC_transfer_done+0x3c>)
    2686:	589b      	ldr	r3, [r3, r2]
    2688:	604b      	str	r3, [r1, #4]
    268a:	4805      	ldr	r0, [pc, #20]	; (26a0 <DAC_transfer_done+0x40>)
    268c:	4b05      	ldr	r3, [pc, #20]	; (26a4 <DAC_transfer_done+0x44>)
    268e:	4798      	blx	r3
    2690:	e7ee      	b.n	2670 <DAC_transfer_done+0x10>
    2692:	46c0      	nop			; (mov r8, r8)
    2694:	20000e68 	.word	0x20000e68
    2698:	20000024 	.word	0x20000024
    269c:	20001b68 	.word	0x20001b68
    26a0:	200014c8 	.word	0x200014c8
    26a4:	00001395 	.word	0x00001395

000026a8 <i2s_RX_Done>:
    26a8:	b570      	push	{r4, r5, r6, lr}
    26aa:	4a2e      	ldr	r2, [pc, #184]	; (2764 <i2s_RX_Done+0xbc>)
    26ac:	8a13      	ldrh	r3, [r2, #16]
    26ae:	08db      	lsrs	r3, r3, #3
    26b0:	492d      	ldr	r1, [pc, #180]	; (2768 <i2s_RX_Done+0xc0>)
    26b2:	600b      	str	r3, [r1, #0]
    26b4:	2300      	movs	r3, #0
    26b6:	8213      	strh	r3, [r2, #16]
    26b8:	492c      	ldr	r1, [pc, #176]	; (276c <i2s_RX_Done+0xc4>)
    26ba:	680a      	ldr	r2, [r1, #0]
    26bc:	4c2c      	ldr	r4, [pc, #176]	; (2770 <i2s_RX_Done+0xc8>)
    26be:	3301      	adds	r3, #1
    26c0:	001d      	movs	r5, r3
    26c2:	4015      	ands	r5, r2
    26c4:	6025      	str	r5, [r4, #0]
    26c6:	6980      	ldr	r0, [r0, #24]
    26c8:	3201      	adds	r2, #1
    26ca:	600a      	str	r2, [r1, #0]
    26cc:	4013      	ands	r3, r2
    26ce:	009b      	lsls	r3, r3, #2
    26d0:	4a28      	ldr	r2, [pc, #160]	; (2774 <i2s_RX_Done+0xcc>)
    26d2:	589b      	ldr	r3, [r3, r2]
    26d4:	6083      	str	r3, [r0, #8]
    26d6:	4828      	ldr	r0, [pc, #160]	; (2778 <i2s_RX_Done+0xd0>)
    26d8:	4b28      	ldr	r3, [pc, #160]	; (277c <i2s_RX_Done+0xd4>)
    26da:	4798      	blx	r3
    26dc:	6821      	ldr	r1, [r4, #0]
    26de:	024a      	lsls	r2, r1, #9
    26e0:	4b27      	ldr	r3, [pc, #156]	; (2780 <i2s_RX_Done+0xd8>)
    26e2:	18d2      	adds	r2, r2, r3
    26e4:	0209      	lsls	r1, r1, #8
    26e6:	4b27      	ldr	r3, [pc, #156]	; (2784 <i2s_RX_Done+0xdc>)
    26e8:	18c9      	adds	r1, r1, r3
    26ea:	2380      	movs	r3, #128	; 0x80
    26ec:	009b      	lsls	r3, r3, #2
    26ee:	18d5      	adds	r5, r2, r3
    26f0:	2000      	movs	r0, #0
    26f2:	4c25      	ldr	r4, [pc, #148]	; (2788 <i2s_RX_Done+0xe0>)
    26f4:	e007      	b.n	2706 <i2s_RX_Done+0x5e>
    26f6:	4e25      	ldr	r6, [pc, #148]	; (278c <i2s_RX_Done+0xe4>)
    26f8:	46b4      	mov	ip, r6
    26fa:	4463      	add	r3, ip
    26fc:	800b      	strh	r3, [r1, #0]
    26fe:	3102      	adds	r1, #2
    2700:	3204      	adds	r2, #4
    2702:	4295      	cmp	r5, r2
    2704:	d006      	beq.n	2714 <i2s_RX_Done+0x6c>
    2706:	2600      	movs	r6, #0
    2708:	5f93      	ldrsh	r3, [r2, r6]
    270a:	42a3      	cmp	r3, r4
    270c:	ddf3      	ble.n	26f6 <i2s_RX_Done+0x4e>
    270e:	3001      	adds	r0, #1
    2710:	b200      	sxth	r0, r0
    2712:	e7f0      	b.n	26f6 <i2s_RX_Done+0x4e>
    2714:	2809      	cmp	r0, #9
    2716:	dc14      	bgt.n	2742 <i2s_RX_Done+0x9a>
    2718:	4b13      	ldr	r3, [pc, #76]	; (2768 <i2s_RX_Done+0xc0>)
    271a:	681b      	ldr	r3, [r3, #0]
    271c:	4a1c      	ldr	r2, [pc, #112]	; (2790 <i2s_RX_Done+0xe8>)
    271e:	1899      	adds	r1, r3, r2
    2720:	222c      	movs	r2, #44	; 0x2c
    2722:	32ff      	adds	r2, #255	; 0xff
    2724:	4291      	cmp	r1, r2
    2726:	d802      	bhi.n	272e <i2s_RX_Done+0x86>
    2728:	b29b      	uxth	r3, r3
    272a:	4a1a      	ldr	r2, [pc, #104]	; (2794 <i2s_RX_Done+0xec>)
    272c:	8313      	strh	r3, [r2, #24]
    272e:	4b1a      	ldr	r3, [pc, #104]	; (2798 <i2s_RX_Done+0xf0>)
    2730:	681b      	ldr	r3, [r3, #0]
    2732:	2b00      	cmp	r3, #0
    2734:	d108      	bne.n	2748 <i2s_RX_Done+0xa0>
    2736:	4a0e      	ldr	r2, [pc, #56]	; (2770 <i2s_RX_Done+0xc8>)
    2738:	2380      	movs	r3, #128	; 0x80
    273a:	6811      	ldr	r1, [r2, #0]
    273c:	430b      	orrs	r3, r1
    273e:	6013      	str	r3, [r2, #0]
    2740:	bd70      	pop	{r4, r5, r6, pc}
    2742:	4b16      	ldr	r3, [pc, #88]	; (279c <i2s_RX_Done+0xf4>)
    2744:	4798      	blx	r3
    2746:	e7e7      	b.n	2718 <i2s_RX_Done+0x70>
    2748:	4815      	ldr	r0, [pc, #84]	; (27a0 <i2s_RX_Done+0xf8>)
    274a:	6982      	ldr	r2, [r0, #24]
    274c:	4b08      	ldr	r3, [pc, #32]	; (2770 <i2s_RX_Done+0xc8>)
    274e:	681b      	ldr	r3, [r3, #0]
    2750:	009b      	lsls	r3, r3, #2
    2752:	4914      	ldr	r1, [pc, #80]	; (27a4 <i2s_RX_Done+0xfc>)
    2754:	585b      	ldr	r3, [r3, r1]
    2756:	6053      	str	r3, [r2, #4]
    2758:	4b08      	ldr	r3, [pc, #32]	; (277c <i2s_RX_Done+0xd4>)
    275a:	4798      	blx	r3
    275c:	2200      	movs	r2, #0
    275e:	4b0e      	ldr	r3, [pc, #56]	; (2798 <i2s_RX_Done+0xf0>)
    2760:	601a      	str	r2, [r3, #0]
    2762:	e7ed      	b.n	2740 <i2s_RX_Done+0x98>
    2764:	42003400 	.word	0x42003400
    2768:	20000e64 	.word	0x20000e64
    276c:	20000e6c 	.word	0x20000e6c
    2770:	20000e68 	.word	0x20000e68
    2774:	200014c0 	.word	0x200014c0
    2778:	20001b30 	.word	0x20001b30
    277c:	00001395 	.word	0x00001395
    2780:	20001500 	.word	0x20001500
    2784:	2000191c 	.word	0x2000191c
    2788:	00000ccc 	.word	0x00000ccc
    278c:	ffff8000 	.word	0xffff8000
    2790:	fffff4de 	.word	0xfffff4de
    2794:	42003000 	.word	0x42003000
    2798:	20000024 	.word	0x20000024
    279c:	00001c79 	.word	0x00001c79
    27a0:	200014c8 	.word	0x200014c8
    27a4:	20001b68 	.word	0x20001b68

000027a8 <i2s_callback_RX>:
    27a8:	4b0f      	ldr	r3, [pc, #60]	; (27e8 <i2s_callback_RX+0x40>)
    27aa:	8a9b      	ldrh	r3, [r3, #20]
    27ac:	06db      	lsls	r3, r3, #27
    27ae:	d519      	bpl.n	27e4 <i2s_callback_RX+0x3c>
    27b0:	4a0d      	ldr	r2, [pc, #52]	; (27e8 <i2s_callback_RX+0x40>)
    27b2:	8a93      	ldrh	r3, [r2, #20]
    27b4:	2110      	movs	r1, #16
    27b6:	430b      	orrs	r3, r1
    27b8:	8293      	strh	r3, [r2, #20]
    27ba:	4b0c      	ldr	r3, [pc, #48]	; (27ec <i2s_callback_RX+0x44>)
    27bc:	681b      	ldr	r3, [r3, #0]
    27be:	2b00      	cmp	r3, #0
    27c0:	d010      	beq.n	27e4 <i2s_callback_RX+0x3c>
    27c2:	4b0b      	ldr	r3, [pc, #44]	; (27f0 <i2s_callback_RX+0x48>)
    27c4:	7c5b      	ldrb	r3, [r3, #17]
    27c6:	2b00      	cmp	r3, #0
    27c8:	d00c      	beq.n	27e4 <i2s_callback_RX+0x3c>
    27ca:	4b09      	ldr	r3, [pc, #36]	; (27f0 <i2s_callback_RX+0x48>)
    27cc:	781a      	ldrb	r2, [r3, #0]
    27ce:	4b09      	ldr	r3, [pc, #36]	; (27f4 <i2s_callback_RX+0x4c>)
    27d0:	214d      	movs	r1, #77	; 0x4d
    27d2:	545a      	strb	r2, [r3, r1]
    27d4:	3102      	adds	r1, #2
    27d6:	5c5b      	ldrb	r3, [r3, r1]
    27d8:	07db      	lsls	r3, r3, #31
    27da:	d403      	bmi.n	27e4 <i2s_callback_RX+0x3c>
    27dc:	2301      	movs	r3, #1
    27de:	4093      	lsls	r3, r2
    27e0:	4a04      	ldr	r2, [pc, #16]	; (27f4 <i2s_callback_RX+0x4c>)
    27e2:	6113      	str	r3, [r2, #16]
    27e4:	4770      	bx	lr
    27e6:	46c0      	nop			; (mov r8, r8)
    27e8:	42005000 	.word	0x42005000
    27ec:	20000024 	.word	0x20000024
    27f0:	20001b30 	.word	0x20001b30
    27f4:	41004800 	.word	0x41004800

000027f8 <config_dma_for_RX>:
    27f8:	b5f0      	push	{r4, r5, r6, r7, lr}
    27fa:	b089      	sub	sp, #36	; 0x24
    27fc:	ae06      	add	r6, sp, #24
    27fe:	0030      	movs	r0, r6
    2800:	4b20      	ldr	r3, [pc, #128]	; (2884 <config_dma_for_RX+0x8c>)
    2802:	4798      	blx	r3
    2804:	2702      	movs	r7, #2
    2806:	2302      	movs	r3, #2
    2808:	70b3      	strb	r3, [r6, #2]
    280a:	3327      	adds	r3, #39	; 0x27
    280c:	7073      	strb	r3, [r6, #1]
    280e:	2500      	movs	r5, #0
    2810:	7035      	strb	r5, [r6, #0]
    2812:	4c1d      	ldr	r4, [pc, #116]	; (2888 <config_dma_for_RX+0x90>)
    2814:	0031      	movs	r1, r6
    2816:	0020      	movs	r0, r4
    2818:	4b1c      	ldr	r3, [pc, #112]	; (288c <config_dma_for_RX+0x94>)
    281a:	4798      	blx	r3
    281c:	4b1c      	ldr	r3, [pc, #112]	; (2890 <config_dma_for_RX+0x98>)
    281e:	2280      	movs	r2, #128	; 0x80
    2820:	0092      	lsls	r2, r2, #2
    2822:	4694      	mov	ip, r2
    2824:	4463      	add	r3, ip
    2826:	4a1b      	ldr	r2, [pc, #108]	; (2894 <config_dma_for_RX+0x9c>)
    2828:	6013      	str	r3, [r2, #0]
    282a:	4661      	mov	r1, ip
    282c:	1859      	adds	r1, r3, r1
    282e:	6051      	str	r1, [r2, #4]
    2830:	2201      	movs	r2, #1
    2832:	4669      	mov	r1, sp
    2834:	700a      	strb	r2, [r1, #0]
    2836:	704d      	strb	r5, [r1, #1]
    2838:	708d      	strb	r5, [r1, #2]
    283a:	714a      	strb	r2, [r1, #5]
    283c:	718d      	strb	r5, [r1, #6]
    283e:	71cd      	strb	r5, [r1, #7]
    2840:	9505      	str	r5, [sp, #20]
    2842:	2180      	movs	r1, #128	; 0x80
    2844:	0049      	lsls	r1, r1, #1
    2846:	4668      	mov	r0, sp
    2848:	8101      	strh	r1, [r0, #8]
    284a:	4669      	mov	r1, sp
    284c:	70c2      	strb	r2, [r0, #3]
    284e:	7105      	strb	r5, [r0, #4]
    2850:	4a11      	ldr	r2, [pc, #68]	; (2898 <config_dma_for_RX+0xa0>)
    2852:	9203      	str	r2, [sp, #12]
    2854:	9304      	str	r3, [sp, #16]
    2856:	4d11      	ldr	r5, [pc, #68]	; (289c <config_dma_for_RX+0xa4>)
    2858:	0028      	movs	r0, r5
    285a:	4b11      	ldr	r3, [pc, #68]	; (28a0 <config_dma_for_RX+0xa8>)
    285c:	4798      	blx	r3
    285e:	0029      	movs	r1, r5
    2860:	0020      	movs	r0, r4
    2862:	4b10      	ldr	r3, [pc, #64]	; (28a4 <config_dma_for_RX+0xac>)
    2864:	4798      	blx	r3
    2866:	4b10      	ldr	r3, [pc, #64]	; (28a8 <config_dma_for_RX+0xb0>)
    2868:	60a3      	str	r3, [r4, #8]
    286a:	7c23      	ldrb	r3, [r4, #16]
    286c:	433b      	orrs	r3, r7
    286e:	7423      	strb	r3, [r4, #16]
    2870:	7822      	ldrb	r2, [r4, #0]
    2872:	490e      	ldr	r1, [pc, #56]	; (28ac <config_dma_for_RX+0xb4>)
    2874:	5c8b      	ldrb	r3, [r1, r2]
    2876:	433b      	orrs	r3, r7
    2878:	548b      	strb	r3, [r1, r2]
    287a:	0020      	movs	r0, r4
    287c:	4b0c      	ldr	r3, [pc, #48]	; (28b0 <config_dma_for_RX+0xb8>)
    287e:	4798      	blx	r3
    2880:	b009      	add	sp, #36	; 0x24
    2882:	bdf0      	pop	{r4, r5, r6, r7, pc}
    2884:	0000123d 	.word	0x0000123d
    2888:	20001b30 	.word	0x20001b30
    288c:	0000124d 	.word	0x0000124d
    2890:	20001500 	.word	0x20001500
    2894:	200014c0 	.word	0x200014c0
    2898:	42005030 	.word	0x42005030
    289c:	200014f0 	.word	0x200014f0
    28a0:	000014d1 	.word	0x000014d1
    28a4:	00001579 	.word	0x00001579
    28a8:	000026a9 	.word	0x000026a9
    28ac:	20000e40 	.word	0x20000e40
    28b0:	00001395 	.word	0x00001395

000028b4 <configure_DAC_trigger_dma>:
    28b4:	b510      	push	{r4, lr}
    28b6:	b08e      	sub	sp, #56	; 0x38
    28b8:	aa01      	add	r2, sp, #4
    28ba:	2300      	movs	r3, #0
    28bc:	7013      	strb	r3, [r2, #0]
    28be:	7093      	strb	r3, [r2, #2]
    28c0:	2100      	movs	r1, #0
    28c2:	8093      	strh	r3, [r2, #4]
    28c4:	8113      	strh	r3, [r2, #8]
    28c6:	7051      	strb	r1, [r2, #1]
    28c8:	7291      	strb	r1, [r2, #10]
    28ca:	72d1      	strb	r1, [r2, #11]
    28cc:	7311      	strb	r1, [r2, #12]
    28ce:	7391      	strb	r1, [r2, #14]
    28d0:	7351      	strb	r1, [r2, #13]
    28d2:	7411      	strb	r1, [r2, #16]
    28d4:	6153      	str	r3, [r2, #20]
    28d6:	6193      	str	r3, [r2, #24]
    28d8:	7711      	strb	r1, [r2, #28]
    28da:	6213      	str	r3, [r2, #32]
    28dc:	6253      	str	r3, [r2, #36]	; 0x24
    28de:	8513      	strh	r3, [r2, #40]	; 0x28
    28e0:	8593      	strh	r3, [r2, #44]	; 0x2c
    28e2:	3320      	adds	r3, #32
    28e4:	7193      	strb	r3, [r2, #6]
    28e6:	4b09      	ldr	r3, [pc, #36]	; (290c <configure_DAC_trigger_dma+0x58>)
    28e8:	8553      	strh	r3, [r2, #42]	; 0x2a
    28ea:	4c09      	ldr	r4, [pc, #36]	; (2910 <configure_DAC_trigger_dma+0x5c>)
    28ec:	4909      	ldr	r1, [pc, #36]	; (2914 <configure_DAC_trigger_dma+0x60>)
    28ee:	0020      	movs	r0, r4
    28f0:	4b09      	ldr	r3, [pc, #36]	; (2918 <configure_DAC_trigger_dma+0x64>)
    28f2:	4798      	blx	r3
    28f4:	6822      	ldr	r2, [r4, #0]
    28f6:	7bd3      	ldrb	r3, [r2, #15]
    28f8:	b25b      	sxtb	r3, r3
    28fa:	2b00      	cmp	r3, #0
    28fc:	dbfb      	blt.n	28f6 <configure_DAC_trigger_dma+0x42>
    28fe:	8813      	ldrh	r3, [r2, #0]
    2900:	2102      	movs	r1, #2
    2902:	430b      	orrs	r3, r1
    2904:	8013      	strh	r3, [r2, #0]
    2906:	b00e      	add	sp, #56	; 0x38
    2908:	bd10      	pop	{r4, pc}
    290a:	46c0      	nop			; (mov r8, r8)
    290c:	00000bb7 	.word	0x00000bb7
    2910:	20001b4c 	.word	0x20001b4c
    2914:	42003000 	.word	0x42003000
    2918:	0000492d 	.word	0x0000492d

0000291c <config_dma_for_DAC>:
    291c:	b5f0      	push	{r4, r5, r6, r7, lr}
    291e:	46c6      	mov	lr, r8
    2920:	b500      	push	{lr}
    2922:	b096      	sub	sp, #88	; 0x58
    2924:	ac14      	add	r4, sp, #80	; 0x50
    2926:	0020      	movs	r0, r4
    2928:	4b34      	ldr	r3, [pc, #208]	; (29fc <config_dma_for_DAC+0xe0>)
    292a:	4798      	blx	r3
    292c:	2302      	movs	r3, #2
    292e:	4698      	mov	r8, r3
    2930:	2302      	movs	r3, #2
    2932:	70a3      	strb	r3, [r4, #2]
    2934:	3319      	adds	r3, #25
    2936:	7063      	strb	r3, [r4, #1]
    2938:	2601      	movs	r6, #1
    293a:	7026      	strb	r6, [r4, #0]
    293c:	4f30      	ldr	r7, [pc, #192]	; (2a00 <config_dma_for_DAC+0xe4>)
    293e:	0021      	movs	r1, r4
    2940:	0038      	movs	r0, r7
    2942:	4b30      	ldr	r3, [pc, #192]	; (2a04 <config_dma_for_DAC+0xe8>)
    2944:	4798      	blx	r3
    2946:	4b30      	ldr	r3, [pc, #192]	; (2a08 <config_dma_for_DAC+0xec>)
    2948:	3301      	adds	r3, #1
    294a:	33ff      	adds	r3, #255	; 0xff
    294c:	4a2f      	ldr	r2, [pc, #188]	; (2a0c <config_dma_for_DAC+0xf0>)
    294e:	6013      	str	r3, [r2, #0]
    2950:	1c59      	adds	r1, r3, #1
    2952:	31ff      	adds	r1, #255	; 0xff
    2954:	6051      	str	r1, [r2, #4]
    2956:	a90e      	add	r1, sp, #56	; 0x38
    2958:	700e      	strb	r6, [r1, #0]
    295a:	2400      	movs	r4, #0
    295c:	2500      	movs	r5, #0
    295e:	704c      	strb	r4, [r1, #1]
    2960:	708c      	strb	r4, [r1, #2]
    2962:	710e      	strb	r6, [r1, #4]
    2964:	718c      	strb	r4, [r1, #6]
    2966:	71cc      	strb	r4, [r1, #7]
    2968:	614c      	str	r4, [r1, #20]
    296a:	2280      	movs	r2, #128	; 0x80
    296c:	810a      	strh	r2, [r1, #8]
    296e:	70ce      	strb	r6, [r1, #3]
    2970:	714c      	strb	r4, [r1, #5]
    2972:	60cb      	str	r3, [r1, #12]
    2974:	4b26      	ldr	r3, [pc, #152]	; (2a10 <config_dma_for_DAC+0xf4>)
    2976:	610b      	str	r3, [r1, #16]
    2978:	4e26      	ldr	r6, [pc, #152]	; (2a14 <config_dma_for_DAC+0xf8>)
    297a:	0030      	movs	r0, r6
    297c:	4b26      	ldr	r3, [pc, #152]	; (2a18 <config_dma_for_DAC+0xfc>)
    297e:	4798      	blx	r3
    2980:	0031      	movs	r1, r6
    2982:	0038      	movs	r0, r7
    2984:	4b25      	ldr	r3, [pc, #148]	; (2a1c <config_dma_for_DAC+0x100>)
    2986:	4798      	blx	r3
    2988:	4b25      	ldr	r3, [pc, #148]	; (2a20 <config_dma_for_DAC+0x104>)
    298a:	60bb      	str	r3, [r7, #8]
    298c:	7c3b      	ldrb	r3, [r7, #16]
    298e:	4642      	mov	r2, r8
    2990:	4313      	orrs	r3, r2
    2992:	743b      	strb	r3, [r7, #16]
    2994:	783a      	ldrb	r2, [r7, #0]
    2996:	4923      	ldr	r1, [pc, #140]	; (2a24 <config_dma_for_DAC+0x108>)
    2998:	5c8b      	ldrb	r3, [r1, r2]
    299a:	4640      	mov	r0, r8
    299c:	4303      	orrs	r3, r0
    299e:	548b      	strb	r3, [r1, r2]
    29a0:	0038      	movs	r0, r7
    29a2:	4b21      	ldr	r3, [pc, #132]	; (2a28 <config_dma_for_DAC+0x10c>)
    29a4:	4798      	blx	r3
    29a6:	aa01      	add	r2, sp, #4
    29a8:	7014      	strb	r4, [r2, #0]
    29aa:	7094      	strb	r4, [r2, #2]
    29ac:	7194      	strb	r4, [r2, #6]
    29ae:	8114      	strh	r4, [r2, #8]
    29b0:	2300      	movs	r3, #0
    29b2:	7053      	strb	r3, [r2, #1]
    29b4:	7295      	strb	r5, [r2, #10]
    29b6:	72d5      	strb	r5, [r2, #11]
    29b8:	7315      	strb	r5, [r2, #12]
    29ba:	7395      	strb	r5, [r2, #14]
    29bc:	7355      	strb	r5, [r2, #13]
    29be:	7415      	strb	r5, [r2, #16]
    29c0:	6154      	str	r4, [r2, #20]
    29c2:	6194      	str	r4, [r2, #24]
    29c4:	7715      	strb	r5, [r2, #28]
    29c6:	6214      	str	r4, [r2, #32]
    29c8:	6254      	str	r4, [r2, #36]	; 0x24
    29ca:	8514      	strh	r4, [r2, #40]	; 0x28
    29cc:	8554      	strh	r4, [r2, #42]	; 0x2a
    29ce:	8594      	strh	r4, [r2, #44]	; 0x2c
    29d0:	2380      	movs	r3, #128	; 0x80
    29d2:	00db      	lsls	r3, r3, #3
    29d4:	8093      	strh	r3, [r2, #4]
    29d6:	4c15      	ldr	r4, [pc, #84]	; (2a2c <config_dma_for_DAC+0x110>)
    29d8:	4915      	ldr	r1, [pc, #84]	; (2a30 <config_dma_for_DAC+0x114>)
    29da:	0020      	movs	r0, r4
    29dc:	4b15      	ldr	r3, [pc, #84]	; (2a34 <config_dma_for_DAC+0x118>)
    29de:	4798      	blx	r3
    29e0:	6822      	ldr	r2, [r4, #0]
    29e2:	7bd3      	ldrb	r3, [r2, #15]
    29e4:	b25b      	sxtb	r3, r3
    29e6:	2b00      	cmp	r3, #0
    29e8:	dbfb      	blt.n	29e2 <config_dma_for_DAC+0xc6>
    29ea:	8813      	ldrh	r3, [r2, #0]
    29ec:	2102      	movs	r1, #2
    29ee:	430b      	orrs	r3, r1
    29f0:	8013      	strh	r3, [r2, #0]
    29f2:	b016      	add	sp, #88	; 0x58
    29f4:	bc04      	pop	{r2}
    29f6:	4690      	mov	r8, r2
    29f8:	bdf0      	pop	{r4, r5, r6, r7, pc}
    29fa:	46c0      	nop			; (mov r8, r8)
    29fc:	0000123d 	.word	0x0000123d
    2a00:	200014c8 	.word	0x200014c8
    2a04:	0000124d 	.word	0x0000124d
    2a08:	2000191c 	.word	0x2000191c
    2a0c:	20001b68 	.word	0x20001b68
    2a10:	42004808 	.word	0x42004808
    2a14:	20001b20 	.word	0x20001b20
    2a18:	000014d1 	.word	0x000014d1
    2a1c:	00001579 	.word	0x00001579
    2a20:	00002661 	.word	0x00002661
    2a24:	20000e40 	.word	0x20000e40
    2a28:	00001395 	.word	0x00001395
    2a2c:	20001900 	.word	0x20001900
    2a30:	42003400 	.word	0x42003400
    2a34:	0000492d 	.word	0x0000492d

00002a38 <i2s_TX_Done>:
    2a38:	b510      	push	{r4, lr}
    2a3a:	6981      	ldr	r1, [r0, #24]
    2a3c:	4a09      	ldr	r2, [pc, #36]	; (2a64 <i2s_TX_Done+0x2c>)
    2a3e:	6813      	ldr	r3, [r2, #0]
    2a40:	009c      	lsls	r4, r3, #2
    2a42:	4809      	ldr	r0, [pc, #36]	; (2a68 <i2s_TX_Done+0x30>)
    2a44:	5820      	ldr	r0, [r4, r0]
    2a46:	6048      	str	r0, [r1, #4]
    2a48:	3301      	adds	r3, #1
    2a4a:	2401      	movs	r4, #1
    2a4c:	4023      	ands	r3, r4
    2a4e:	6013      	str	r3, [r2, #0]
    2a50:	4806      	ldr	r0, [pc, #24]	; (2a6c <i2s_TX_Done+0x34>)
    2a52:	4b07      	ldr	r3, [pc, #28]	; (2a70 <i2s_TX_Done+0x38>)
    2a54:	4798      	blx	r3
    2a56:	2200      	movs	r2, #0
    2a58:	4b06      	ldr	r3, [pc, #24]	; (2a74 <i2s_TX_Done+0x3c>)
    2a5a:	701a      	strb	r2, [r3, #0]
    2a5c:	4b06      	ldr	r3, [pc, #24]	; (2a78 <i2s_TX_Done+0x40>)
    2a5e:	701c      	strb	r4, [r3, #0]
    2a60:	bd10      	pop	{r4, pc}
    2a62:	46c0      	nop			; (mov r8, r8)
    2a64:	20000e74 	.word	0x20000e74
    2a68:	20001b70 	.word	0x20001b70
    2a6c:	20001b78 	.word	0x20001b78
    2a70:	00001395 	.word	0x00001395
    2a74:	20000e70 	.word	0x20000e70
    2a78:	20000e71 	.word	0x20000e71

00002a7c <i2s_txDMAerror>:
    2a7c:	b510      	push	{r4, lr}
    2a7e:	4b01      	ldr	r3, [pc, #4]	; (2a84 <i2s_txDMAerror+0x8>)
    2a80:	4798      	blx	r3
    2a82:	bd10      	pop	{r4, pc}
    2a84:	00001469 	.word	0x00001469

00002a88 <GetI2S_TX_Buffer>:
    2a88:	0280      	lsls	r0, r0, #10
    2a8a:	4b01      	ldr	r3, [pc, #4]	; (2a90 <GetI2S_TX_Buffer+0x8>)
    2a8c:	18c0      	adds	r0, r0, r3
    2a8e:	4770      	bx	lr
    2a90:	20001b94 	.word	0x20001b94

00002a94 <SendI2Sdata>:
    2a94:	2200      	movs	r2, #0
    2a96:	4b02      	ldr	r3, [pc, #8]	; (2aa0 <SendI2Sdata+0xc>)
    2a98:	701a      	strb	r2, [r3, #0]
    2a9a:	4b02      	ldr	r3, [pc, #8]	; (2aa4 <SendI2Sdata+0x10>)
    2a9c:	6018      	str	r0, [r3, #0]
    2a9e:	4770      	bx	lr
    2aa0:	20000e71 	.word	0x20000e71
    2aa4:	20000e74 	.word	0x20000e74

00002aa8 <config_dma_for_TX>:
    2aa8:	b570      	push	{r4, r5, r6, lr}
    2aaa:	b088      	sub	sp, #32
    2aac:	ad06      	add	r5, sp, #24
    2aae:	0028      	movs	r0, r5
    2ab0:	4b22      	ldr	r3, [pc, #136]	; (2b3c <config_dma_for_TX+0x94>)
    2ab2:	4798      	blx	r3
    2ab4:	2302      	movs	r3, #2
    2ab6:	70ab      	strb	r3, [r5, #2]
    2ab8:	332a      	adds	r3, #42	; 0x2a
    2aba:	706b      	strb	r3, [r5, #1]
    2abc:	2601      	movs	r6, #1
    2abe:	702e      	strb	r6, [r5, #0]
    2ac0:	4c1f      	ldr	r4, [pc, #124]	; (2b40 <config_dma_for_TX+0x98>)
    2ac2:	0029      	movs	r1, r5
    2ac4:	0020      	movs	r0, r4
    2ac6:	4b1f      	ldr	r3, [pc, #124]	; (2b44 <config_dma_for_TX+0x9c>)
    2ac8:	4798      	blx	r3
    2aca:	4a1f      	ldr	r2, [pc, #124]	; (2b48 <config_dma_for_TX+0xa0>)
    2acc:	2380      	movs	r3, #128	; 0x80
    2ace:	00db      	lsls	r3, r3, #3
    2ad0:	469c      	mov	ip, r3
    2ad2:	4462      	add	r2, ip
    2ad4:	4b1d      	ldr	r3, [pc, #116]	; (2b4c <config_dma_for_TX+0xa4>)
    2ad6:	601a      	str	r2, [r3, #0]
    2ad8:	4661      	mov	r1, ip
    2ada:	1851      	adds	r1, r2, r1
    2adc:	6059      	str	r1, [r3, #4]
    2ade:	466b      	mov	r3, sp
    2ae0:	701e      	strb	r6, [r3, #0]
    2ae2:	2300      	movs	r3, #0
    2ae4:	4669      	mov	r1, sp
    2ae6:	704b      	strb	r3, [r1, #1]
    2ae8:	708b      	strb	r3, [r1, #2]
    2aea:	710e      	strb	r6, [r1, #4]
    2aec:	718b      	strb	r3, [r1, #6]
    2aee:	71cb      	strb	r3, [r1, #7]
    2af0:	9305      	str	r3, [sp, #20]
    2af2:	2180      	movs	r1, #128	; 0x80
    2af4:	0089      	lsls	r1, r1, #2
    2af6:	4668      	mov	r0, sp
    2af8:	8101      	strh	r1, [r0, #8]
    2afa:	4669      	mov	r1, sp
    2afc:	70c6      	strb	r6, [r0, #3]
    2afe:	7143      	strb	r3, [r0, #5]
    2b00:	9203      	str	r2, [sp, #12]
    2b02:	4b13      	ldr	r3, [pc, #76]	; (2b50 <config_dma_for_TX+0xa8>)
    2b04:	9304      	str	r3, [sp, #16]
    2b06:	4d13      	ldr	r5, [pc, #76]	; (2b54 <config_dma_for_TX+0xac>)
    2b08:	0028      	movs	r0, r5
    2b0a:	4b13      	ldr	r3, [pc, #76]	; (2b58 <config_dma_for_TX+0xb0>)
    2b0c:	4798      	blx	r3
    2b0e:	0029      	movs	r1, r5
    2b10:	0020      	movs	r0, r4
    2b12:	4b12      	ldr	r3, [pc, #72]	; (2b5c <config_dma_for_TX+0xb4>)
    2b14:	4798      	blx	r3
    2b16:	4b12      	ldr	r3, [pc, #72]	; (2b60 <config_dma_for_TX+0xb8>)
    2b18:	60a3      	str	r3, [r4, #8]
    2b1a:	2210      	movs	r2, #16
    2b1c:	56a2      	ldrsb	r2, [r4, r2]
    2b1e:	7821      	ldrb	r1, [r4, #0]
    2b20:	4810      	ldr	r0, [pc, #64]	; (2b64 <config_dma_for_TX+0xbc>)
    2b22:	5c43      	ldrb	r3, [r0, r1]
    2b24:	4d10      	ldr	r5, [pc, #64]	; (2b68 <config_dma_for_TX+0xc0>)
    2b26:	6065      	str	r5, [r4, #4]
    2b28:	2503      	movs	r5, #3
    2b2a:	432a      	orrs	r2, r5
    2b2c:	7422      	strb	r2, [r4, #16]
    2b2e:	432b      	orrs	r3, r5
    2b30:	5443      	strb	r3, [r0, r1]
    2b32:	0020      	movs	r0, r4
    2b34:	4b0d      	ldr	r3, [pc, #52]	; (2b6c <config_dma_for_TX+0xc4>)
    2b36:	4798      	blx	r3
    2b38:	b008      	add	sp, #32
    2b3a:	bd70      	pop	{r4, r5, r6, pc}
    2b3c:	0000123d 	.word	0x0000123d
    2b40:	20001b78 	.word	0x20001b78
    2b44:	0000124d 	.word	0x0000124d
    2b48:	20001b94 	.word	0x20001b94
    2b4c:	20001b70 	.word	0x20001b70
    2b50:	42005034 	.word	0x42005034
    2b54:	200023a0 	.word	0x200023a0
    2b58:	000014d1 	.word	0x000014d1
    2b5c:	00001579 	.word	0x00001579
    2b60:	00002a39 	.word	0x00002a39
    2b64:	20000e40 	.word	0x20000e40
    2b68:	00002a7d 	.word	0x00002a7d
    2b6c:	00001395 	.word	0x00001395

00002b70 <rtc_ovf_callback>:
    2b70:	b510      	push	{r4, lr}
    2b72:	4a03      	ldr	r2, [pc, #12]	; (2b80 <rtc_ovf_callback+0x10>)
    2b74:	6813      	ldr	r3, [r2, #0]
    2b76:	3301      	adds	r3, #1
    2b78:	6013      	str	r3, [r2, #0]
    2b7a:	4b02      	ldr	r3, [pc, #8]	; (2b84 <rtc_ovf_callback+0x14>)
    2b7c:	4798      	blx	r3
    2b7e:	bd10      	pop	{r4, pc}
    2b80:	20000e78 	.word	0x20000e78
    2b84:	00001b7d 	.word	0x00001b7d

00002b88 <my_callback_cdc_enable>:
    2b88:	2001      	movs	r0, #1
    2b8a:	4770      	bx	lr

00002b8c <my_callback_cdc_disable>:
    2b8c:	4770      	bx	lr
	...

00002b90 <SystemRTC_Init>:
    2b90:	b510      	push	{r4, lr}
    2b92:	b084      	sub	sp, #16
    2b94:	2300      	movs	r3, #0
    2b96:	466a      	mov	r2, sp
    2b98:	70d3      	strb	r3, [r2, #3]
    2b9a:	9302      	str	r3, [sp, #8]
    2b9c:	9303      	str	r3, [sp, #12]
    2b9e:	8013      	strh	r3, [r2, #0]
    2ba0:	7093      	strb	r3, [r2, #2]
    2ba2:	2301      	movs	r3, #1
    2ba4:	7113      	strb	r3, [r2, #4]
    2ba6:	4c0b      	ldr	r4, [pc, #44]	; (2bd4 <SystemRTC_Init+0x44>)
    2ba8:	490b      	ldr	r1, [pc, #44]	; (2bd8 <SystemRTC_Init+0x48>)
    2baa:	0020      	movs	r0, r4
    2bac:	4b0b      	ldr	r3, [pc, #44]	; (2bdc <SystemRTC_Init+0x4c>)
    2bae:	4798      	blx	r3
    2bb0:	0020      	movs	r0, r4
    2bb2:	4b0b      	ldr	r3, [pc, #44]	; (2be0 <SystemRTC_Init+0x50>)
    2bb4:	4798      	blx	r3
    2bb6:	2202      	movs	r2, #2
    2bb8:	490a      	ldr	r1, [pc, #40]	; (2be4 <SystemRTC_Init+0x54>)
    2bba:	0020      	movs	r0, r4
    2bbc:	4b0a      	ldr	r3, [pc, #40]	; (2be8 <SystemRTC_Init+0x58>)
    2bbe:	4798      	blx	r3
    2bc0:	2102      	movs	r1, #2
    2bc2:	0020      	movs	r0, r4
    2bc4:	4b09      	ldr	r3, [pc, #36]	; (2bec <SystemRTC_Init+0x5c>)
    2bc6:	4798      	blx	r3
    2bc8:	2120      	movs	r1, #32
    2bca:	0020      	movs	r0, r4
    2bcc:	4b08      	ldr	r3, [pc, #32]	; (2bf0 <SystemRTC_Init+0x60>)
    2bce:	4798      	blx	r3
    2bd0:	b004      	add	sp, #16
    2bd2:	bd10      	pop	{r4, pc}
    2bd4:	200023b0 	.word	0x200023b0
    2bd8:	40001400 	.word	0x40001400
    2bdc:	00003d91 	.word	0x00003d91
    2be0:	00003cb1 	.word	0x00003cb1
    2be4:	00002b71 	.word	0x00002b71
    2be8:	00003e95 	.word	0x00003e95
    2bec:	00003ecd 	.word	0x00003ecd
    2bf0:	00003e71 	.word	0x00003e71

00002bf4 <GetTickCount>:
    2bf4:	4b01      	ldr	r3, [pc, #4]	; (2bfc <GetTickCount+0x8>)
    2bf6:	6818      	ldr	r0, [r3, #0]
    2bf8:	4770      	bx	lr
    2bfa:	46c0      	nop			; (mov r8, r8)
    2bfc:	20000e78 	.word	0x20000e78

00002c00 <TimeDiff>:
    2c00:	1a08      	subs	r0, r1, r0
    2c02:	4770      	bx	lr

00002c04 <Delay_ms>:
    2c04:	4b03      	ldr	r3, [pc, #12]	; (2c14 <Delay_ms+0x10>)
    2c06:	6819      	ldr	r1, [r3, #0]
    2c08:	001a      	movs	r2, r3
    2c0a:	6813      	ldr	r3, [r2, #0]
    2c0c:	1a5b      	subs	r3, r3, r1
    2c0e:	4298      	cmp	r0, r3
    2c10:	d8fb      	bhi.n	2c0a <Delay_ms+0x6>
    2c12:	4770      	bx	lr
    2c14:	20000e78 	.word	0x20000e78

00002c18 <configure_i2c_master>:
    2c18:	b530      	push	{r4, r5, lr}
    2c1a:	b08f      	sub	sp, #60	; 0x3c
    2c1c:	aa01      	add	r2, sp, #4
    2c1e:	4b22      	ldr	r3, [pc, #136]	; (2ca8 <configure_i2c_master+0x90>)
    2c20:	6053      	str	r3, [r2, #4]
    2c22:	2300      	movs	r3, #0
    2c24:	6093      	str	r3, [r2, #8]
    2c26:	7613      	strb	r3, [r2, #24]
    2c28:	2180      	movs	r1, #128	; 0x80
    2c2a:	0389      	lsls	r1, r1, #14
    2c2c:	6111      	str	r1, [r2, #16]
    2c2e:	2101      	movs	r1, #1
    2c30:	4249      	negs	r1, r1
    2c32:	82d1      	strh	r1, [r2, #22]
    2c34:	8291      	strh	r1, [r2, #20]
    2c36:	3125      	adds	r1, #37	; 0x25
    2c38:	5453      	strb	r3, [r2, r1]
    2c3a:	6293      	str	r3, [r2, #40]	; 0x28
    2c3c:	3108      	adds	r1, #8
    2c3e:	5453      	strb	r3, [r2, r1]
    2c40:	3101      	adds	r1, #1
    2c42:	5453      	strb	r3, [r2, r1]
    2c44:	3101      	adds	r1, #1
    2c46:	5453      	strb	r3, [r2, r1]
    2c48:	33d7      	adds	r3, #215	; 0xd7
    2c4a:	8613      	strh	r3, [r2, #48]	; 0x30
    2c4c:	33b9      	adds	r3, #185	; 0xb9
    2c4e:	9301      	str	r3, [sp, #4]
    2c50:	4b16      	ldr	r3, [pc, #88]	; (2cac <configure_i2c_master+0x94>)
    2c52:	61d3      	str	r3, [r2, #28]
    2c54:	4b16      	ldr	r3, [pc, #88]	; (2cb0 <configure_i2c_master+0x98>)
    2c56:	6213      	str	r3, [r2, #32]
    2c58:	2303      	movs	r3, #3
    2c5a:	7313      	strb	r3, [r2, #12]
    2c5c:	4c15      	ldr	r4, [pc, #84]	; (2cb4 <configure_i2c_master+0x9c>)
    2c5e:	4916      	ldr	r1, [pc, #88]	; (2cb8 <configure_i2c_master+0xa0>)
    2c60:	0020      	movs	r0, r4
    2c62:	4b16      	ldr	r3, [pc, #88]	; (2cbc <configure_i2c_master+0xa4>)
    2c64:	4798      	blx	r3
    2c66:	6824      	ldr	r4, [r4, #0]
    2c68:	2207      	movs	r2, #7
    2c6a:	69e3      	ldr	r3, [r4, #28]
    2c6c:	421a      	tst	r2, r3
    2c6e:	d1fc      	bne.n	2c6a <configure_i2c_master+0x52>
    2c70:	6823      	ldr	r3, [r4, #0]
    2c72:	2202      	movs	r2, #2
    2c74:	4313      	orrs	r3, r2
    2c76:	6023      	str	r3, [r4, #0]
    2c78:	4d0e      	ldr	r5, [pc, #56]	; (2cb4 <configure_i2c_master+0x9c>)
    2c7a:	6828      	ldr	r0, [r5, #0]
    2c7c:	4b10      	ldr	r3, [pc, #64]	; (2cc0 <configure_i2c_master+0xa8>)
    2c7e:	4798      	blx	r3
    2c80:	231f      	movs	r3, #31
    2c82:	4018      	ands	r0, r3
    2c84:	3b1e      	subs	r3, #30
    2c86:	4083      	lsls	r3, r0
    2c88:	4a0e      	ldr	r2, [pc, #56]	; (2cc4 <configure_i2c_master+0xac>)
    2c8a:	6013      	str	r3, [r2, #0]
    2c8c:	88e8      	ldrh	r0, [r5, #6]
    2c8e:	2300      	movs	r3, #0
    2c90:	2110      	movs	r1, #16
    2c92:	8b62      	ldrh	r2, [r4, #26]
    2c94:	420a      	tst	r2, r1
    2c96:	d104      	bne.n	2ca2 <configure_i2c_master+0x8a>
    2c98:	3301      	adds	r3, #1
    2c9a:	4283      	cmp	r3, r0
    2c9c:	d3f9      	bcc.n	2c92 <configure_i2c_master+0x7a>
    2c9e:	2310      	movs	r3, #16
    2ca0:	8363      	strh	r3, [r4, #26]
    2ca2:	b00f      	add	sp, #60	; 0x3c
    2ca4:	bd30      	pop	{r4, r5, pc}
    2ca6:	46c0      	nop			; (mov r8, r8)
    2ca8:	00000d48 	.word	0x00000d48
    2cac:	00160002 	.word	0x00160002
    2cb0:	00170002 	.word	0x00170002
    2cb4:	200024b8 	.word	0x200024b8
    2cb8:	42001400 	.word	0x42001400
    2cbc:	00003f59 	.word	0x00003f59
    2cc0:	000070e9 	.word	0x000070e9
    2cc4:	e000e100 	.word	0xe000e100

00002cc8 <I2C_ReadData>:
    2cc8:	b530      	push	{r4, r5, lr}
    2cca:	b089      	sub	sp, #36	; 0x24
    2ccc:	0004      	movs	r4, r0
    2cce:	0015      	movs	r5, r2
    2cd0:	466b      	mov	r3, sp
    2cd2:	80d9      	strh	r1, [r3, #6]
    2cd4:	2000      	movs	r0, #0
    2cd6:	2a00      	cmp	r2, #0
    2cd8:	d004      	beq.n	2ce4 <I2C_ReadData+0x1c>
    2cda:	b28b      	uxth	r3, r1
    2cdc:	189b      	adds	r3, r3, r2
    2cde:	3b01      	subs	r3, #1
    2ce0:	2bff      	cmp	r3, #255	; 0xff
    2ce2:	dd01      	ble.n	2ce8 <I2C_ReadData+0x20>
    2ce4:	b009      	add	sp, #36	; 0x24
    2ce6:	bd30      	pop	{r4, r5, pc}
    2ce8:	a905      	add	r1, sp, #20
    2cea:	2328      	movs	r3, #40	; 0x28
    2cec:	800b      	strh	r3, [r1, #0]
    2cee:	3b27      	subs	r3, #39	; 0x27
    2cf0:	804b      	strh	r3, [r1, #2]
    2cf2:	466b      	mov	r3, sp
    2cf4:	3306      	adds	r3, #6
    2cf6:	604b      	str	r3, [r1, #4]
    2cf8:	2300      	movs	r3, #0
    2cfa:	720b      	strb	r3, [r1, #8]
    2cfc:	724b      	strb	r3, [r1, #9]
    2cfe:	728b      	strb	r3, [r1, #10]
    2d00:	480c      	ldr	r0, [pc, #48]	; (2d34 <I2C_ReadData+0x6c>)
    2d02:	4b0d      	ldr	r3, [pc, #52]	; (2d38 <I2C_ReadData+0x70>)
    2d04:	4798      	blx	r3
    2d06:	0003      	movs	r3, r0
    2d08:	2000      	movs	r0, #0
    2d0a:	2b00      	cmp	r3, #0
    2d0c:	d1ea      	bne.n	2ce4 <I2C_ReadData+0x1c>
    2d0e:	a902      	add	r1, sp, #8
    2d10:	3328      	adds	r3, #40	; 0x28
    2d12:	800b      	strh	r3, [r1, #0]
    2d14:	804d      	strh	r5, [r1, #2]
    2d16:	604c      	str	r4, [r1, #4]
    2d18:	2300      	movs	r3, #0
    2d1a:	720b      	strb	r3, [r1, #8]
    2d1c:	724b      	strb	r3, [r1, #9]
    2d1e:	728b      	strb	r3, [r1, #10]
    2d20:	4804      	ldr	r0, [pc, #16]	; (2d34 <I2C_ReadData+0x6c>)
    2d22:	4b06      	ldr	r3, [pc, #24]	; (2d3c <I2C_ReadData+0x74>)
    2d24:	4798      	blx	r3
    2d26:	0003      	movs	r3, r0
    2d28:	2000      	movs	r0, #0
    2d2a:	2b00      	cmp	r3, #0
    2d2c:	d1da      	bne.n	2ce4 <I2C_ReadData+0x1c>
    2d2e:	0028      	movs	r0, r5
    2d30:	e7d8      	b.n	2ce4 <I2C_ReadData+0x1c>
    2d32:	46c0      	nop			; (mov r8, r8)
    2d34:	200024b8 	.word	0x200024b8
    2d38:	00004581 	.word	0x00004581
    2d3c:	0000455d 	.word	0x0000455d

00002d40 <I2C_WriteData>:
    2d40:	b530      	push	{r4, r5, lr}
    2d42:	b0c5      	sub	sp, #276	; 0x114
    2d44:	000d      	movs	r5, r1
    2d46:	0014      	movs	r4, r2
    2d48:	2300      	movs	r3, #0
    2d4a:	2a00      	cmp	r2, #0
    2d4c:	d005      	beq.n	2d5a <I2C_WriteData+0x1a>
    2d4e:	188a      	adds	r2, r1, r2
    2d50:	3201      	adds	r2, #1
    2d52:	2180      	movs	r1, #128	; 0x80
    2d54:	0049      	lsls	r1, r1, #1
    2d56:	428a      	cmp	r2, r1
    2d58:	d902      	bls.n	2d60 <I2C_WriteData+0x20>
    2d5a:	0018      	movs	r0, r3
    2d5c:	b045      	add	sp, #276	; 0x114
    2d5e:	bd30      	pop	{r4, r5, pc}
    2d60:	0022      	movs	r2, r4
    2d62:	0001      	movs	r1, r0
    2d64:	466b      	mov	r3, sp
    2d66:	1d58      	adds	r0, r3, #5
    2d68:	4b09      	ldr	r3, [pc, #36]	; (2d90 <I2C_WriteData+0x50>)
    2d6a:	4798      	blx	r3
    2d6c:	ab01      	add	r3, sp, #4
    2d6e:	701d      	strb	r5, [r3, #0]
    2d70:	a941      	add	r1, sp, #260	; 0x104
    2d72:	2328      	movs	r3, #40	; 0x28
    2d74:	800b      	strh	r3, [r1, #0]
    2d76:	1c63      	adds	r3, r4, #1
    2d78:	804b      	strh	r3, [r1, #2]
    2d7a:	ab01      	add	r3, sp, #4
    2d7c:	604b      	str	r3, [r1, #4]
    2d7e:	4805      	ldr	r0, [pc, #20]	; (2d94 <I2C_WriteData+0x54>)
    2d80:	4b05      	ldr	r3, [pc, #20]	; (2d98 <I2C_WriteData+0x58>)
    2d82:	4798      	blx	r3
    2d84:	2300      	movs	r3, #0
    2d86:	2800      	cmp	r0, #0
    2d88:	d1e7      	bne.n	2d5a <I2C_WriteData+0x1a>
    2d8a:	0023      	movs	r3, r4
    2d8c:	e7e5      	b.n	2d5a <I2C_WriteData+0x1a>
    2d8e:	46c0      	nop			; (mov r8, r8)
    2d90:	0000bded 	.word	0x0000bded
    2d94:	200024b8 	.word	0x200024b8
    2d98:	00004581 	.word	0x00004581

00002d9c <configure_usart_Serial>:
    2d9c:	b530      	push	{r4, r5, lr}
    2d9e:	b091      	sub	sp, #68	; 0x44
    2da0:	2380      	movs	r3, #128	; 0x80
    2da2:	05db      	lsls	r3, r3, #23
    2da4:	9300      	str	r3, [sp, #0]
    2da6:	2300      	movs	r3, #0
    2da8:	9301      	str	r3, [sp, #4]
    2daa:	22ff      	movs	r2, #255	; 0xff
    2dac:	4669      	mov	r1, sp
    2dae:	810a      	strh	r2, [r1, #8]
    2db0:	728b      	strb	r3, [r1, #10]
    2db2:	72cb      	strb	r3, [r1, #11]
    2db4:	2201      	movs	r2, #1
    2db6:	2124      	movs	r1, #36	; 0x24
    2db8:	4668      	mov	r0, sp
    2dba:	5442      	strb	r2, [r0, r1]
    2dbc:	3101      	adds	r1, #1
    2dbe:	5442      	strb	r2, [r0, r1]
    2dc0:	3225      	adds	r2, #37	; 0x25
    2dc2:	5483      	strb	r3, [r0, r2]
    2dc4:	3201      	adds	r2, #1
    2dc6:	5483      	strb	r3, [r0, r2]
    2dc8:	930a      	str	r3, [sp, #40]	; 0x28
    2dca:	3205      	adds	r2, #5
    2dcc:	5483      	strb	r3, [r0, r2]
    2dce:	930c      	str	r3, [sp, #48]	; 0x30
    2dd0:	930d      	str	r3, [sp, #52]	; 0x34
    2dd2:	76c3      	strb	r3, [r0, #27]
    2dd4:	7603      	strb	r3, [r0, #24]
    2dd6:	7703      	strb	r3, [r0, #28]
    2dd8:	7643      	strb	r3, [r0, #25]
    2dda:	2213      	movs	r2, #19
    2ddc:	7682      	strb	r2, [r0, #26]
    2dde:	7743      	strb	r3, [r0, #29]
    2de0:	23e1      	movs	r3, #225	; 0xe1
    2de2:	025b      	lsls	r3, r3, #9
    2de4:	9308      	str	r3, [sp, #32]
    2de6:	23c4      	movs	r3, #196	; 0xc4
    2de8:	039b      	lsls	r3, r3, #14
    2dea:	9303      	str	r3, [sp, #12]
    2dec:	4b16      	ldr	r3, [pc, #88]	; (2e48 <configure_usart_Serial+0xac>)
    2dee:	930e      	str	r3, [sp, #56]	; 0x38
    2df0:	4b16      	ldr	r3, [pc, #88]	; (2e4c <configure_usart_Serial+0xb0>)
    2df2:	930f      	str	r3, [sp, #60]	; 0x3c
    2df4:	2380      	movs	r3, #128	; 0x80
    2df6:	019b      	lsls	r3, r3, #6
    2df8:	8203      	strh	r3, [r0, #16]
    2dfa:	2380      	movs	r3, #128	; 0x80
    2dfc:	03db      	lsls	r3, r3, #15
    2dfe:	9305      	str	r3, [sp, #20]
    2e00:	2203      	movs	r2, #3
    2e02:	232d      	movs	r3, #45	; 0x2d
    2e04:	54c2      	strb	r2, [r0, r3]
    2e06:	466a      	mov	r2, sp
    2e08:	4911      	ldr	r1, [pc, #68]	; (2e50 <configure_usart_Serial+0xb4>)
    2e0a:	4812      	ldr	r0, [pc, #72]	; (2e54 <configure_usart_Serial+0xb8>)
    2e0c:	4b12      	ldr	r3, [pc, #72]	; (2e58 <configure_usart_Serial+0xbc>)
    2e0e:	4798      	blx	r3
    2e10:	2800      	cmp	r0, #0
    2e12:	d000      	beq.n	2e16 <configure_usart_Serial+0x7a>
    2e14:	e7fe      	b.n	2e14 <configure_usart_Serial+0x78>
    2e16:	4d0f      	ldr	r5, [pc, #60]	; (2e54 <configure_usart_Serial+0xb8>)
    2e18:	682c      	ldr	r4, [r5, #0]
    2e1a:	0020      	movs	r0, r4
    2e1c:	4b0f      	ldr	r3, [pc, #60]	; (2e5c <configure_usart_Serial+0xc0>)
    2e1e:	4798      	blx	r3
    2e20:	231f      	movs	r3, #31
    2e22:	4018      	ands	r0, r3
    2e24:	3b1e      	subs	r3, #30
    2e26:	4083      	lsls	r3, r0
    2e28:	4a0d      	ldr	r2, [pc, #52]	; (2e60 <configure_usart_Serial+0xc4>)
    2e2a:	6013      	str	r3, [r2, #0]
    2e2c:	682a      	ldr	r2, [r5, #0]
    2e2e:	69d3      	ldr	r3, [r2, #28]
    2e30:	2b00      	cmp	r3, #0
    2e32:	d1fc      	bne.n	2e2e <configure_usart_Serial+0x92>
    2e34:	6823      	ldr	r3, [r4, #0]
    2e36:	2202      	movs	r2, #2
    2e38:	4313      	orrs	r3, r2
    2e3a:	6023      	str	r3, [r4, #0]
    2e3c:	4805      	ldr	r0, [pc, #20]	; (2e54 <configure_usart_Serial+0xb8>)
    2e3e:	4b09      	ldr	r3, [pc, #36]	; (2e64 <configure_usart_Serial+0xc8>)
    2e40:	4798      	blx	r3
    2e42:	b011      	add	sp, #68	; 0x44
    2e44:	bd30      	pop	{r4, r5, pc}
    2e46:	46c0      	nop			; (mov r8, r8)
    2e48:	00360003 	.word	0x00360003
    2e4c:	00370003 	.word	0x00370003
    2e50:	42001c00 	.word	0x42001c00
    2e54:	200024e0 	.word	0x200024e0
    2e58:	000066c5 	.word	0x000066c5
    2e5c:	000070e9 	.word	0x000070e9
    2e60:	e000e100 	.word	0xe000e100
    2e64:	00001d69 	.word	0x00001d69

00002e68 <GetServoInstance>:
    2e68:	4800      	ldr	r0, [pc, #0]	; (2e6c <GetServoInstance+0x4>)
    2e6a:	4770      	bx	lr
    2e6c:	20002408 	.word	0x20002408

00002e70 <configure_usart_Servo>:
    2e70:	b530      	push	{r4, r5, lr}
    2e72:	b093      	sub	sp, #76	; 0x4c
    2e74:	aa02      	add	r2, sp, #8
    2e76:	2380      	movs	r3, #128	; 0x80
    2e78:	05db      	lsls	r3, r3, #23
    2e7a:	9302      	str	r3, [sp, #8]
    2e7c:	2300      	movs	r3, #0
    2e7e:	6053      	str	r3, [r2, #4]
    2e80:	21ff      	movs	r1, #255	; 0xff
    2e82:	8111      	strh	r1, [r2, #8]
    2e84:	7293      	strb	r3, [r2, #10]
    2e86:	72d3      	strb	r3, [r2, #11]
    2e88:	39fe      	subs	r1, #254	; 0xfe
    2e8a:	2024      	movs	r0, #36	; 0x24
    2e8c:	5411      	strb	r1, [r2, r0]
    2e8e:	3001      	adds	r0, #1
    2e90:	5411      	strb	r1, [r2, r0]
    2e92:	3001      	adds	r0, #1
    2e94:	5413      	strb	r3, [r2, r0]
    2e96:	3001      	adds	r0, #1
    2e98:	5413      	strb	r3, [r2, r0]
    2e9a:	6293      	str	r3, [r2, #40]	; 0x28
    2e9c:	3005      	adds	r0, #5
    2e9e:	5413      	strb	r3, [r2, r0]
    2ea0:	6353      	str	r3, [r2, #52]	; 0x34
    2ea2:	6393      	str	r3, [r2, #56]	; 0x38
    2ea4:	63d3      	str	r3, [r2, #60]	; 0x3c
    2ea6:	6153      	str	r3, [r2, #20]
    2ea8:	76d3      	strb	r3, [r2, #27]
    2eaa:	7613      	strb	r3, [r2, #24]
    2eac:	7713      	strb	r3, [r2, #28]
    2eae:	7653      	strb	r3, [r2, #25]
    2eb0:	3313      	adds	r3, #19
    2eb2:	7693      	strb	r3, [r2, #26]
    2eb4:	4b1d      	ldr	r3, [pc, #116]	; (2f2c <configure_usart_Servo+0xbc>)
    2eb6:	6213      	str	r3, [r2, #32]
    2eb8:	2384      	movs	r3, #132	; 0x84
    2eba:	039b      	lsls	r3, r3, #14
    2ebc:	60d3      	str	r3, [r2, #12]
    2ebe:	4b1c      	ldr	r3, [pc, #112]	; (2f30 <configure_usart_Servo+0xc0>)
    2ec0:	6313      	str	r3, [r2, #48]	; 0x30
    2ec2:	7751      	strb	r1, [r2, #29]
    2ec4:	23c0      	movs	r3, #192	; 0xc0
    2ec6:	01db      	lsls	r3, r3, #7
    2ec8:	8213      	strh	r3, [r2, #16]
    2eca:	3102      	adds	r1, #2
    2ecc:	232d      	movs	r3, #45	; 0x2d
    2ece:	54d1      	strb	r1, [r2, r3]
    2ed0:	4918      	ldr	r1, [pc, #96]	; (2f34 <configure_usart_Servo+0xc4>)
    2ed2:	4819      	ldr	r0, [pc, #100]	; (2f38 <configure_usart_Servo+0xc8>)
    2ed4:	4b19      	ldr	r3, [pc, #100]	; (2f3c <configure_usart_Servo+0xcc>)
    2ed6:	4798      	blx	r3
    2ed8:	2800      	cmp	r0, #0
    2eda:	d013      	beq.n	2f04 <configure_usart_Servo+0x94>
    2edc:	ac01      	add	r4, sp, #4
    2ede:	2380      	movs	r3, #128	; 0x80
    2ee0:	7023      	strb	r3, [r4, #0]
    2ee2:	3b7f      	subs	r3, #127	; 0x7f
    2ee4:	7063      	strb	r3, [r4, #1]
    2ee6:	2300      	movs	r3, #0
    2ee8:	70a3      	strb	r3, [r4, #2]
    2eea:	70e3      	strb	r3, [r4, #3]
    2eec:	0021      	movs	r1, r4
    2eee:	200d      	movs	r0, #13
    2ef0:	4d13      	ldr	r5, [pc, #76]	; (2f40 <configure_usart_Servo+0xd0>)
    2ef2:	47a8      	blx	r5
    2ef4:	0021      	movs	r1, r4
    2ef6:	200e      	movs	r0, #14
    2ef8:	47a8      	blx	r5
    2efa:	0021      	movs	r1, r4
    2efc:	200f      	movs	r0, #15
    2efe:	47a8      	blx	r5
    2f00:	b013      	add	sp, #76	; 0x4c
    2f02:	bd30      	pop	{r4, r5, pc}
    2f04:	4d0c      	ldr	r5, [pc, #48]	; (2f38 <configure_usart_Servo+0xc8>)
    2f06:	682c      	ldr	r4, [r5, #0]
    2f08:	0020      	movs	r0, r4
    2f0a:	4b0e      	ldr	r3, [pc, #56]	; (2f44 <configure_usart_Servo+0xd4>)
    2f0c:	4798      	blx	r3
    2f0e:	231f      	movs	r3, #31
    2f10:	4018      	ands	r0, r3
    2f12:	3b1e      	subs	r3, #30
    2f14:	4083      	lsls	r3, r0
    2f16:	4a0c      	ldr	r2, [pc, #48]	; (2f48 <configure_usart_Servo+0xd8>)
    2f18:	6013      	str	r3, [r2, #0]
    2f1a:	682a      	ldr	r2, [r5, #0]
    2f1c:	69d3      	ldr	r3, [r2, #28]
    2f1e:	2b00      	cmp	r3, #0
    2f20:	d1fc      	bne.n	2f1c <configure_usart_Servo+0xac>
    2f22:	6823      	ldr	r3, [r4, #0]
    2f24:	2202      	movs	r2, #2
    2f26:	4313      	orrs	r3, r2
    2f28:	6023      	str	r3, [r4, #0]
    2f2a:	e7d7      	b.n	2edc <configure_usart_Servo+0x6c>
    2f2c:	000f4240 	.word	0x000f4240
    2f30:	002a0003 	.word	0x002a0003
    2f34:	42001800 	.word	0x42001800
    2f38:	20002408 	.word	0x20002408
    2f3c:	000066c5 	.word	0x000066c5
    2f40:	00008acd 	.word	0x00008acd
    2f44:	000070e9 	.word	0x000070e9
    2f48:	e000e100 	.word	0xe000e100

00002f4c <configure_i2s>:
    2f4c:	b5f0      	push	{r4, r5, r6, r7, lr}
    2f4e:	46c6      	mov	lr, r8
    2f50:	b500      	push	{lr}
    2f52:	b08c      	sub	sp, #48	; 0x30
    2f54:	4e4a      	ldr	r6, [pc, #296]	; (3080 <configure_i2s+0x134>)
    2f56:	494b      	ldr	r1, [pc, #300]	; (3084 <configure_i2s+0x138>)
    2f58:	0030      	movs	r0, r6
    2f5a:	4b4b      	ldr	r3, [pc, #300]	; (3088 <configure_i2s+0x13c>)
    2f5c:	4798      	blx	r3
    2f5e:	aa06      	add	r2, sp, #24
    2f60:	2400      	movs	r4, #0
    2f62:	71d4      	strb	r4, [r2, #7]
    2f64:	70d4      	strb	r4, [r2, #3]
    2f66:	2501      	movs	r5, #1
    2f68:	7015      	strb	r5, [r2, #0]
    2f6a:	7154      	strb	r4, [r2, #5]
    2f6c:	7055      	strb	r5, [r2, #1]
    2f6e:	7194      	strb	r4, [r2, #6]
    2f70:	7295      	strb	r5, [r2, #10]
    2f72:	7354      	strb	r4, [r2, #13]
    2f74:	7394      	strb	r4, [r2, #14]
    2f76:	7454      	strb	r4, [r2, #17]
    2f78:	7414      	strb	r4, [r2, #16]
    2f7a:	73d4      	strb	r4, [r2, #15]
    2f7c:	2303      	movs	r3, #3
    2f7e:	7093      	strb	r3, [r2, #2]
    2f80:	7115      	strb	r5, [r2, #4]
    2f82:	3b01      	subs	r3, #1
    2f84:	7213      	strb	r3, [r2, #8]
    2f86:	7255      	strb	r5, [r2, #9]
    2f88:	72d5      	strb	r5, [r2, #11]
    2f8a:	7314      	strb	r4, [r2, #12]
    2f8c:	7515      	strb	r5, [r2, #20]
    2f8e:	3308      	adds	r3, #8
    2f90:	7493      	strb	r3, [r2, #18]
    2f92:	2706      	movs	r7, #6
    2f94:	74d7      	strb	r7, [r2, #19]
    2f96:	75d5      	strb	r5, [r2, #23]
    2f98:	3301      	adds	r3, #1
    2f9a:	7553      	strb	r3, [r2, #21]
    2f9c:	7597      	strb	r7, [r2, #22]
    2f9e:	2100      	movs	r1, #0
    2fa0:	0030      	movs	r0, r6
    2fa2:	4b3a      	ldr	r3, [pc, #232]	; (308c <configure_i2s+0x140>)
    2fa4:	4798      	blx	r3
    2fa6:	466b      	mov	r3, sp
    2fa8:	70dc      	strb	r4, [r3, #3]
    2faa:	715c      	strb	r4, [r3, #5]
    2fac:	719c      	strb	r4, [r3, #6]
    2fae:	71dc      	strb	r4, [r3, #7]
    2fb0:	721c      	strb	r4, [r3, #8]
    2fb2:	725c      	strb	r4, [r3, #9]
    2fb4:	729c      	strb	r4, [r3, #10]
    2fb6:	72dc      	strb	r4, [r3, #11]
    2fb8:	731c      	strb	r4, [r3, #12]
    2fba:	735c      	strb	r4, [r3, #13]
    2fbc:	739c      	strb	r4, [r3, #14]
    2fbe:	73dd      	strb	r5, [r3, #15]
    2fc0:	2304      	movs	r3, #4
    2fc2:	466a      	mov	r2, sp
    2fc4:	7413      	strb	r3, [r2, #16]
    2fc6:	7454      	strb	r4, [r2, #17]
    2fc8:	7494      	strb	r4, [r2, #18]
    2fca:	74d4      	strb	r4, [r2, #19]
    2fcc:	7514      	strb	r4, [r2, #20]
    2fce:	7554      	strb	r4, [r2, #21]
    2fd0:	7595      	strb	r5, [r2, #22]
    2fd2:	7095      	strb	r5, [r2, #2]
    2fd4:	7115      	strb	r5, [r2, #4]
    2fd6:	2308      	movs	r3, #8
    2fd8:	7013      	strb	r3, [r2, #0]
    2fda:	7057      	strb	r7, [r2, #1]
    2fdc:	2101      	movs	r1, #1
    2fde:	0030      	movs	r0, r6
    2fe0:	4b2b      	ldr	r3, [pc, #172]	; (3090 <configure_i2s+0x144>)
    2fe2:	4698      	mov	r8, r3
    2fe4:	4798      	blx	r3
    2fe6:	466b      	mov	r3, sp
    2fe8:	759c      	strb	r4, [r3, #22]
    2fea:	709d      	strb	r5, [r3, #2]
    2fec:	74dc      	strb	r4, [r3, #19]
    2fee:	711d      	strb	r5, [r3, #4]
    2ff0:	73dd      	strb	r5, [r3, #15]
    2ff2:	2307      	movs	r3, #7
    2ff4:	466a      	mov	r2, sp
    2ff6:	7013      	strb	r3, [r2, #0]
    2ff8:	7057      	strb	r7, [r2, #1]
    2ffa:	7494      	strb	r4, [r2, #18]
    2ffc:	2100      	movs	r1, #0
    2ffe:	0030      	movs	r0, r6
    3000:	47c0      	blx	r8
    3002:	6832      	ldr	r2, [r6, #0]
    3004:	2102      	movs	r1, #2
    3006:	8b13      	ldrh	r3, [r2, #24]
    3008:	420b      	tst	r3, r1
    300a:	d1fc      	bne.n	3006 <configure_i2s+0xba>
    300c:	7813      	ldrb	r3, [r2, #0]
    300e:	2102      	movs	r1, #2
    3010:	430b      	orrs	r3, r1
    3012:	7013      	strb	r3, [r2, #0]
    3014:	4b1a      	ldr	r3, [pc, #104]	; (3080 <configure_i2s+0x134>)
    3016:	681a      	ldr	r2, [r3, #0]
    3018:	3102      	adds	r1, #2
    301a:	8b13      	ldrh	r3, [r2, #24]
    301c:	420b      	tst	r3, r1
    301e:	d1fc      	bne.n	301a <configure_i2s+0xce>
    3020:	7813      	ldrb	r3, [r2, #0]
    3022:	2104      	movs	r1, #4
    3024:	430b      	orrs	r3, r1
    3026:	7013      	strb	r3, [r2, #0]
    3028:	4b15      	ldr	r3, [pc, #84]	; (3080 <configure_i2s+0x134>)
    302a:	681a      	ldr	r2, [r3, #0]
    302c:	310c      	adds	r1, #12
    302e:	8b13      	ldrh	r3, [r2, #24]
    3030:	420b      	tst	r3, r1
    3032:	d1fc      	bne.n	302e <configure_i2s+0xe2>
    3034:	7813      	ldrb	r3, [r2, #0]
    3036:	2110      	movs	r1, #16
    3038:	430b      	orrs	r3, r1
    303a:	7013      	strb	r3, [r2, #0]
    303c:	4b10      	ldr	r3, [pc, #64]	; (3080 <configure_i2s+0x134>)
    303e:	681a      	ldr	r2, [r3, #0]
    3040:	3110      	adds	r1, #16
    3042:	8b13      	ldrh	r3, [r2, #24]
    3044:	420b      	tst	r3, r1
    3046:	d1fc      	bne.n	3042 <configure_i2s+0xf6>
    3048:	7813      	ldrb	r3, [r2, #0]
    304a:	2120      	movs	r1, #32
    304c:	430b      	orrs	r3, r1
    304e:	7013      	strb	r3, [r2, #0]
    3050:	4b0b      	ldr	r3, [pc, #44]	; (3080 <configure_i2s+0x134>)
    3052:	4a10      	ldr	r2, [pc, #64]	; (3094 <configure_i2s+0x148>)
    3054:	609a      	str	r2, [r3, #8]
    3056:	2002      	movs	r0, #2
    3058:	7e19      	ldrb	r1, [r3, #24]
    305a:	4301      	orrs	r1, r0
    305c:	7619      	strb	r1, [r3, #24]
    305e:	7e5a      	ldrb	r2, [r3, #25]
    3060:	4302      	orrs	r2, r0
    3062:	765a      	strb	r2, [r3, #25]
    3064:	681a      	ldr	r2, [r3, #0]
    3066:	7edb      	ldrb	r3, [r3, #27]
    3068:	2b01      	cmp	r3, #1
    306a:	d005      	beq.n	3078 <configure_i2s+0x12c>
    306c:	2310      	movs	r3, #16
    306e:	8213      	strh	r3, [r2, #16]
    3070:	b00c      	add	sp, #48	; 0x30
    3072:	bc04      	pop	{r2}
    3074:	4690      	mov	r8, r2
    3076:	bdf0      	pop	{r4, r5, r6, r7, pc}
    3078:	2380      	movs	r3, #128	; 0x80
    307a:	015b      	lsls	r3, r3, #5
    307c:	e7f7      	b.n	306e <configure_i2s+0x122>
    307e:	46c0      	nop			; (mov r8, r8)
    3080:	2000247c 	.word	0x2000247c
    3084:	42005000 	.word	0x42005000
    3088:	0000383d 	.word	0x0000383d
    308c:	000038b5 	.word	0x000038b5
    3090:	00003a9d 	.word	0x00003a9d
    3094:	000027a9 	.word	0x000027a9

00003098 <EnableUSBPortForwarding>:
    3098:	4b01      	ldr	r3, [pc, #4]	; (30a0 <EnableUSBPortForwarding+0x8>)
    309a:	6018      	str	r0, [r3, #0]
    309c:	4770      	bx	lr
    309e:	46c0      	nop			; (mov r8, r8)
    30a0:	20000e7c 	.word	0x20000e7c

000030a4 <USBFordwarding_runtime>:
    30a4:	b5f8      	push	{r3, r4, r5, r6, r7, lr}
    30a6:	4b23      	ldr	r3, [pc, #140]	; (3134 <USBFordwarding_runtime+0x90>)
    30a8:	681b      	ldr	r3, [r3, #0]
    30aa:	2b00      	cmp	r3, #0
    30ac:	d100      	bne.n	30b0 <USBFordwarding_runtime+0xc>
    30ae:	bdf8      	pop	{r3, r4, r5, r6, r7, pc}
    30b0:	2100      	movs	r1, #0
    30b2:	4821      	ldr	r0, [pc, #132]	; (3138 <USBFordwarding_runtime+0x94>)
    30b4:	4b21      	ldr	r3, [pc, #132]	; (313c <USBFordwarding_runtime+0x98>)
    30b6:	4798      	blx	r3
    30b8:	2805      	cmp	r0, #5
    30ba:	d021      	beq.n	3100 <USBFordwarding_runtime+0x5c>
    30bc:	4b20      	ldr	r3, [pc, #128]	; (3140 <USBFordwarding_runtime+0x9c>)
    30be:	4798      	blx	r3
    30c0:	4b20      	ldr	r3, [pc, #128]	; (3144 <USBFordwarding_runtime+0xa0>)
    30c2:	6018      	str	r0, [r3, #0]
    30c4:	681b      	ldr	r3, [r3, #0]
    30c6:	2b00      	cmp	r3, #0
    30c8:	d0f1      	beq.n	30ae <USBFordwarding_runtime+0xa>
    30ca:	4c1b      	ldr	r4, [pc, #108]	; (3138 <USBFordwarding_runtime+0x94>)
    30cc:	2100      	movs	r1, #0
    30ce:	0020      	movs	r0, r4
    30d0:	4b1d      	ldr	r3, [pc, #116]	; (3148 <USBFordwarding_runtime+0xa4>)
    30d2:	4798      	blx	r3
    30d4:	4f1b      	ldr	r7, [pc, #108]	; (3144 <USBFordwarding_runtime+0xa0>)
    30d6:	6839      	ldr	r1, [r7, #0]
    30d8:	4d1c      	ldr	r5, [pc, #112]	; (314c <USBFordwarding_runtime+0xa8>)
    30da:	0028      	movs	r0, r5
    30dc:	4b1c      	ldr	r3, [pc, #112]	; (3150 <USBFordwarding_runtime+0xac>)
    30de:	4798      	blx	r3
    30e0:	2001      	movs	r0, #1
    30e2:	4e1c      	ldr	r6, [pc, #112]	; (3154 <USBFordwarding_runtime+0xb0>)
    30e4:	47b0      	blx	r6
    30e6:	6839      	ldr	r1, [r7, #0]
    30e8:	b289      	uxth	r1, r1
    30ea:	0028      	movs	r0, r5
    30ec:	4b1a      	ldr	r3, [pc, #104]	; (3158 <USBFordwarding_runtime+0xb4>)
    30ee:	4798      	blx	r3
    30f0:	2000      	movs	r0, #0
    30f2:	47b0      	blx	r6
    30f4:	2240      	movs	r2, #64	; 0x40
    30f6:	4919      	ldr	r1, [pc, #100]	; (315c <USBFordwarding_runtime+0xb8>)
    30f8:	0020      	movs	r0, r4
    30fa:	4b19      	ldr	r3, [pc, #100]	; (3160 <USBFordwarding_runtime+0xbc>)
    30fc:	4798      	blx	r3
    30fe:	e7d6      	b.n	30ae <USBFordwarding_runtime+0xa>
    3100:	4b0d      	ldr	r3, [pc, #52]	; (3138 <USBFordwarding_runtime+0x94>)
    3102:	8d9a      	ldrh	r2, [r3, #44]	; 0x2c
    3104:	2340      	movs	r3, #64	; 0x40
    3106:	1a9b      	subs	r3, r3, r2
    3108:	4a0e      	ldr	r2, [pc, #56]	; (3144 <USBFordwarding_runtime+0xa0>)
    310a:	6013      	str	r3, [r2, #0]
    310c:	6813      	ldr	r3, [r2, #0]
    310e:	2b00      	cmp	r3, #0
    3110:	d0d4      	beq.n	30bc <USBFordwarding_runtime+0x18>
    3112:	4c09      	ldr	r4, [pc, #36]	; (3138 <USBFordwarding_runtime+0x94>)
    3114:	2100      	movs	r1, #0
    3116:	0020      	movs	r0, r4
    3118:	4b0b      	ldr	r3, [pc, #44]	; (3148 <USBFordwarding_runtime+0xa4>)
    311a:	4798      	blx	r3
    311c:	4b09      	ldr	r3, [pc, #36]	; (3144 <USBFordwarding_runtime+0xa0>)
    311e:	6819      	ldr	r1, [r3, #0]
    3120:	4d0e      	ldr	r5, [pc, #56]	; (315c <USBFordwarding_runtime+0xb8>)
    3122:	0028      	movs	r0, r5
    3124:	4b0f      	ldr	r3, [pc, #60]	; (3164 <USBFordwarding_runtime+0xc0>)
    3126:	4798      	blx	r3
    3128:	2240      	movs	r2, #64	; 0x40
    312a:	0029      	movs	r1, r5
    312c:	0020      	movs	r0, r4
    312e:	4b0c      	ldr	r3, [pc, #48]	; (3160 <USBFordwarding_runtime+0xbc>)
    3130:	4798      	blx	r3
    3132:	e7c3      	b.n	30bc <USBFordwarding_runtime+0x18>
    3134:	20000e7c 	.word	0x20000e7c
    3138:	20002408 	.word	0x20002408
    313c:	00006b85 	.word	0x00006b85
    3140:	0000774d 	.word	0x0000774d
    3144:	20000e80 	.word	0x20000e80
    3148:	00006b65 	.word	0x00006b65
    314c:	200023c8 	.word	0x200023c8
    3150:	000079e9 	.word	0x000079e9
    3154:	00003189 	.word	0x00003189
    3158:	00003169 	.word	0x00003169
    315c:	2000243c 	.word	0x2000243c
    3160:	00006b45 	.word	0x00006b45
    3164:	00007b59 	.word	0x00007b59

00003168 <sendData>:
    3168:	b510      	push	{r4, lr}
    316a:	0004      	movs	r4, r0
    316c:	4b04      	ldr	r3, [pc, #16]	; (3180 <sendData+0x18>)
    316e:	6818      	ldr	r0, [r3, #0]
    3170:	2800      	cmp	r0, #0
    3172:	d003      	beq.n	317c <sendData+0x14>
    3174:	000a      	movs	r2, r1
    3176:	0021      	movs	r1, r4
    3178:	4b02      	ldr	r3, [pc, #8]	; (3184 <sendData+0x1c>)
    317a:	4798      	blx	r3
    317c:	bd10      	pop	{r4, pc}
    317e:	46c0      	nop			; (mov r8, r8)
    3180:	200025dc 	.word	0x200025dc
    3184:	00006a35 	.word	0x00006a35

00003188 <SwitchComDir>:
    3188:	4b1b      	ldr	r3, [pc, #108]	; (31f8 <SwitchComDir+0x70>)
    318a:	6819      	ldr	r1, [r3, #0]
    318c:	2900      	cmp	r1, #0
    318e:	d019      	beq.n	31c4 <SwitchComDir+0x3c>
    3190:	2800      	cmp	r0, #0
    3192:	d018      	beq.n	31c6 <SwitchComDir+0x3e>
    3194:	680a      	ldr	r2, [r1, #0]
    3196:	69d3      	ldr	r3, [r2, #28]
    3198:	2b00      	cmp	r3, #0
    319a:	d1fc      	bne.n	3196 <SwitchComDir+0xe>
    319c:	6850      	ldr	r0, [r2, #4]
    319e:	2380      	movs	r3, #128	; 0x80
    31a0:	025b      	lsls	r3, r3, #9
    31a2:	4303      	orrs	r3, r0
    31a4:	6053      	str	r3, [r2, #4]
    31a6:	2301      	movs	r3, #1
    31a8:	71cb      	strb	r3, [r1, #7]
    31aa:	680b      	ldr	r3, [r1, #0]
    31ac:	69da      	ldr	r2, [r3, #28]
    31ae:	2a00      	cmp	r2, #0
    31b0:	d1fc      	bne.n	31ac <SwitchComDir+0x24>
    31b2:	69da      	ldr	r2, [r3, #28]
    31b4:	2a00      	cmp	r2, #0
    31b6:	d1fc      	bne.n	31b2 <SwitchComDir+0x2a>
    31b8:	685a      	ldr	r2, [r3, #4]
    31ba:	4810      	ldr	r0, [pc, #64]	; (31fc <SwitchComDir+0x74>)
    31bc:	4002      	ands	r2, r0
    31be:	605a      	str	r2, [r3, #4]
    31c0:	2300      	movs	r3, #0
    31c2:	718b      	strb	r3, [r1, #6]
    31c4:	4770      	bx	lr
    31c6:	680a      	ldr	r2, [r1, #0]
    31c8:	69d3      	ldr	r3, [r2, #28]
    31ca:	2b00      	cmp	r3, #0
    31cc:	d1fc      	bne.n	31c8 <SwitchComDir+0x40>
    31ce:	6850      	ldr	r0, [r2, #4]
    31d0:	2380      	movs	r3, #128	; 0x80
    31d2:	029b      	lsls	r3, r3, #10
    31d4:	4303      	orrs	r3, r0
    31d6:	6053      	str	r3, [r2, #4]
    31d8:	2301      	movs	r3, #1
    31da:	718b      	strb	r3, [r1, #6]
    31dc:	680b      	ldr	r3, [r1, #0]
    31de:	69da      	ldr	r2, [r3, #28]
    31e0:	2a00      	cmp	r2, #0
    31e2:	d1fc      	bne.n	31de <SwitchComDir+0x56>
    31e4:	69da      	ldr	r2, [r3, #28]
    31e6:	2a00      	cmp	r2, #0
    31e8:	d1fc      	bne.n	31e4 <SwitchComDir+0x5c>
    31ea:	685a      	ldr	r2, [r3, #4]
    31ec:	4804      	ldr	r0, [pc, #16]	; (3200 <SwitchComDir+0x78>)
    31ee:	4002      	ands	r2, r0
    31f0:	605a      	str	r2, [r3, #4]
    31f2:	2300      	movs	r3, #0
    31f4:	71cb      	strb	r3, [r1, #7]
    31f6:	e7e5      	b.n	31c4 <SwitchComDir+0x3c>
    31f8:	200025dc 	.word	0x200025dc
    31fc:	fffdffff 	.word	0xfffdffff
    3200:	fffeffff 	.word	0xfffeffff

00003204 <GetRegisterLength>:
    3204:	2832      	cmp	r0, #50	; 0x32
    3206:	d803      	bhi.n	3210 <GetRegisterLength+0xc>
    3208:	0080      	lsls	r0, r0, #2
    320a:	4b03      	ldr	r3, [pc, #12]	; (3218 <GetRegisterLength+0x14>)
    320c:	581b      	ldr	r3, [r3, r0]
    320e:	469f      	mov	pc, r3
    3210:	2002      	movs	r0, #2
    3212:	4770      	bx	lr
    3214:	2001      	movs	r0, #1
    3216:	e7fc      	b.n	3212 <GetRegisterLength+0xe>
    3218:	0000c3d4 	.word	0x0000c3d4

0000321c <MakePacket>:
    321c:	b5f8      	push	{r3, r4, r5, r6, r7, lr}
    321e:	0004      	movs	r4, r0
    3220:	a806      	add	r0, sp, #24
    3222:	7800      	ldrb	r0, [r0, #0]
    3224:	4684      	mov	ip, r0
    3226:	4838      	ldr	r0, [pc, #224]	; (3308 <MakePacket+0xec>)
    3228:	6800      	ldr	r0, [r0, #0]
    322a:	2800      	cmp	r0, #0
    322c:	d06a      	beq.n	3304 <MakePacket+0xe8>
    322e:	2000      	movs	r0, #0
    3230:	4665      	mov	r5, ip
    3232:	2d37      	cmp	r5, #55	; 0x37
    3234:	d849      	bhi.n	32ca <MakePacket+0xae>
    3236:	4835      	ldr	r0, [pc, #212]	; (330c <MakePacket+0xf0>)
    3238:	25ff      	movs	r5, #255	; 0xff
    323a:	7005      	strb	r5, [r0, #0]
    323c:	7045      	strb	r5, [r0, #1]
    323e:	3d02      	subs	r5, #2
    3240:	7085      	strb	r5, [r0, #2]
    3242:	2500      	movs	r5, #0
    3244:	70c5      	strb	r5, [r0, #3]
    3246:	7104      	strb	r4, [r0, #4]
    3248:	2903      	cmp	r1, #3
    324a:	d03f      	beq.n	32cc <MakePacket+0xb0>
    324c:	2906      	cmp	r1, #6
    324e:	d043      	beq.n	32d8 <MakePacket+0xbc>
    3250:	2902      	cmp	r1, #2
    3252:	d00d      	beq.n	3270 <MakePacket+0x54>
    3254:	482d      	ldr	r0, [pc, #180]	; (330c <MakePacket+0xf0>)
    3256:	2403      	movs	r4, #3
    3258:	7144      	strb	r4, [r0, #5]
    325a:	2400      	movs	r4, #0
    325c:	7184      	strb	r4, [r0, #6]
    325e:	71c1      	strb	r1, [r0, #7]
    3260:	2906      	cmp	r1, #6
    3262:	d842      	bhi.n	32ea <MakePacket+0xce>
    3264:	2905      	cmp	r1, #5
    3266:	d201      	bcs.n	326c <MakePacket+0x50>
    3268:	2901      	cmp	r1, #1
    326a:	d107      	bne.n	327c <MakePacket+0x60>
    326c:	2508      	movs	r5, #8
    326e:	e00a      	b.n	3286 <MakePacket+0x6a>
    3270:	2407      	movs	r4, #7
    3272:	7144      	strb	r4, [r0, #5]
    3274:	4825      	ldr	r0, [pc, #148]	; (330c <MakePacket+0xf0>)
    3276:	2400      	movs	r4, #0
    3278:	7184      	strb	r4, [r0, #6]
    327a:	71c1      	strb	r1, [r0, #7]
    327c:	4823      	ldr	r0, [pc, #140]	; (330c <MakePacket+0xf0>)
    327e:	7202      	strb	r2, [r0, #8]
    3280:	2200      	movs	r2, #0
    3282:	7242      	strb	r2, [r0, #9]
    3284:	250a      	movs	r5, #10
    3286:	2902      	cmp	r1, #2
    3288:	d032      	beq.n	32f0 <MakePacket+0xd4>
    328a:	2b00      	cmp	r3, #0
    328c:	d00e      	beq.n	32ac <MakePacket+0x90>
    328e:	4666      	mov	r6, ip
    3290:	2e00      	cmp	r6, #0
    3292:	d00b      	beq.n	32ac <MakePacket+0x90>
    3294:	0029      	movs	r1, r5
    3296:	2200      	movs	r2, #0
    3298:	4f1c      	ldr	r7, [pc, #112]	; (330c <MakePacket+0xf0>)
    329a:	1c48      	adds	r0, r1, #1
    329c:	5c9c      	ldrb	r4, [r3, r2]
    329e:	547c      	strb	r4, [r7, r1]
    32a0:	3201      	adds	r2, #1
    32a2:	b281      	uxth	r1, r0
    32a4:	42b2      	cmp	r2, r6
    32a6:	d3f8      	bcc.n	329a <MakePacket+0x7e>
    32a8:	4465      	add	r5, ip
    32aa:	b2ad      	uxth	r5, r5
    32ac:	4c17      	ldr	r4, [pc, #92]	; (330c <MakePacket+0xf0>)
    32ae:	002a      	movs	r2, r5
    32b0:	0021      	movs	r1, r4
    32b2:	2000      	movs	r0, #0
    32b4:	4b16      	ldr	r3, [pc, #88]	; (3310 <MakePacket+0xf4>)
    32b6:	4798      	blx	r3
    32b8:	b2c3      	uxtb	r3, r0
    32ba:	5563      	strb	r3, [r4, r5]
    32bc:	1c6b      	adds	r3, r5, #1
    32be:	b29b      	uxth	r3, r3
    32c0:	0a00      	lsrs	r0, r0, #8
    32c2:	b2c0      	uxtb	r0, r0
    32c4:	54e0      	strb	r0, [r4, r3]
    32c6:	3502      	adds	r5, #2
    32c8:	b2a8      	uxth	r0, r5
    32ca:	bdf8      	pop	{r3, r4, r5, r6, r7, pc}
    32cc:	4660      	mov	r0, ip
    32ce:	3005      	adds	r0, #5
    32d0:	b2c0      	uxtb	r0, r0
    32d2:	4c0e      	ldr	r4, [pc, #56]	; (330c <MakePacket+0xf0>)
    32d4:	7160      	strb	r0, [r4, #5]
    32d6:	e7cd      	b.n	3274 <MakePacket+0x58>
    32d8:	4a0c      	ldr	r2, [pc, #48]	; (330c <MakePacket+0xf0>)
    32da:	2104      	movs	r1, #4
    32dc:	7151      	strb	r1, [r2, #5]
    32de:	2100      	movs	r1, #0
    32e0:	7191      	strb	r1, [r2, #6]
    32e2:	3106      	adds	r1, #6
    32e4:	71d1      	strb	r1, [r2, #7]
    32e6:	2508      	movs	r5, #8
    32e8:	e7cf      	b.n	328a <MakePacket+0x6e>
    32ea:	2908      	cmp	r1, #8
    32ec:	d0be      	beq.n	326c <MakePacket+0x50>
    32ee:	e7c5      	b.n	327c <MakePacket+0x60>
    32f0:	1c6a      	adds	r2, r5, #1
    32f2:	b292      	uxth	r2, r2
    32f4:	4905      	ldr	r1, [pc, #20]	; (330c <MakePacket+0xf0>)
    32f6:	4660      	mov	r0, ip
    32f8:	5548      	strb	r0, [r1, r5]
    32fa:	3502      	adds	r5, #2
    32fc:	b2ad      	uxth	r5, r5
    32fe:	2000      	movs	r0, #0
    3300:	5488      	strb	r0, [r1, r2]
    3302:	e7c2      	b.n	328a <MakePacket+0x6e>
    3304:	2000      	movs	r0, #0
    3306:	e7e0      	b.n	32ca <MakePacket+0xae>
    3308:	200025dc 	.word	0x200025dc
    330c:	20002514 	.word	0x20002514
    3310:	00001901 	.word	0x00001901

00003314 <Process_rdPacket>:
    3314:	b5f8      	push	{r3, r4, r5, r6, r7, lr}
    3316:	0004      	movs	r4, r0
    3318:	000d      	movs	r5, r1
    331a:	7803      	ldrb	r3, [r0, #0]
    331c:	7846      	ldrb	r6, [r0, #1]
    331e:	7880      	ldrb	r0, [r0, #2]
    3320:	78e7      	ldrb	r7, [r4, #3]
    3322:	7922      	ldrb	r2, [r4, #4]
    3324:	800a      	strh	r2, [r1, #0]
    3326:	79a2      	ldrb	r2, [r4, #6]
    3328:	0212      	lsls	r2, r2, #8
    332a:	7961      	ldrb	r1, [r4, #5]
    332c:	430a      	orrs	r2, r1
    332e:	806a      	strh	r2, [r5, #2]
    3330:	2a3a      	cmp	r2, #58	; 0x3a
    3332:	d902      	bls.n	333a <Process_rdPacket+0x26>
    3334:	2001      	movs	r0, #1
    3336:	4240      	negs	r0, r0
    3338:	bdf8      	pop	{r3, r4, r5, r6, r7, pc}
    333a:	21ff      	movs	r1, #255	; 0xff
    333c:	7169      	strb	r1, [r5, #5]
    333e:	061b      	lsls	r3, r3, #24
    3340:	0436      	lsls	r6, r6, #16
    3342:	4333      	orrs	r3, r6
    3344:	433b      	orrs	r3, r7
    3346:	0200      	lsls	r0, r0, #8
    3348:	4303      	orrs	r3, r0
    334a:	490e      	ldr	r1, [pc, #56]	; (3384 <Process_rdPacket+0x70>)
    334c:	400b      	ands	r3, r1
    334e:	428b      	cmp	r3, r1
    3350:	d001      	beq.n	3356 <Process_rdPacket+0x42>
    3352:	7968      	ldrb	r0, [r5, #5]
    3354:	e7f0      	b.n	3338 <Process_rdPacket+0x24>
    3356:	79e3      	ldrb	r3, [r4, #7]
    3358:	712b      	strb	r3, [r5, #4]
    335a:	18a0      	adds	r0, r4, r2
    335c:	7981      	ldrb	r1, [r0, #6]
    335e:	0209      	lsls	r1, r1, #8
    3360:	7943      	ldrb	r3, [r0, #5]
    3362:	430b      	orrs	r3, r1
    3364:	80eb      	strh	r3, [r5, #6]
    3366:	3205      	adds	r2, #5
    3368:	b292      	uxth	r2, r2
    336a:	0021      	movs	r1, r4
    336c:	2000      	movs	r0, #0
    336e:	4b06      	ldr	r3, [pc, #24]	; (3388 <Process_rdPacket+0x74>)
    3370:	4798      	blx	r3
    3372:	88eb      	ldrh	r3, [r5, #6]
    3374:	4283      	cmp	r3, r0
    3376:	d1ec      	bne.n	3352 <Process_rdPacket+0x3e>
    3378:	7a23      	ldrb	r3, [r4, #8]
    337a:	716b      	strb	r3, [r5, #5]
    337c:	3409      	adds	r4, #9
    337e:	60ac      	str	r4, [r5, #8]
    3380:	e7e7      	b.n	3352 <Process_rdPacket+0x3e>
    3382:	46c0      	nop			; (mov r8, r8)
    3384:	fffffd00 	.word	0xfffffd00
    3388:	00001901 	.word	0x00001901

0000338c <sendPacket>:
    338c:	b530      	push	{r4, r5, lr}
    338e:	b083      	sub	sp, #12
    3390:	ac06      	add	r4, sp, #24
    3392:	7824      	ldrb	r4, [r4, #0]
    3394:	b2d2      	uxtb	r2, r2
    3396:	b2c0      	uxtb	r0, r0
    3398:	9400      	str	r4, [sp, #0]
    339a:	4c09      	ldr	r4, [pc, #36]	; (33c0 <sendPacket+0x34>)
    339c:	47a0      	blx	r4
    339e:	b2c4      	uxtb	r4, r0
    33a0:	2000      	movs	r0, #0
    33a2:	2c00      	cmp	r4, #0
    33a4:	d101      	bne.n	33aa <sendPacket+0x1e>
    33a6:	b003      	add	sp, #12
    33a8:	bd30      	pop	{r4, r5, pc}
    33aa:	3001      	adds	r0, #1
    33ac:	4d05      	ldr	r5, [pc, #20]	; (33c4 <sendPacket+0x38>)
    33ae:	47a8      	blx	r5
    33b0:	b2a1      	uxth	r1, r4
    33b2:	4805      	ldr	r0, [pc, #20]	; (33c8 <sendPacket+0x3c>)
    33b4:	4b05      	ldr	r3, [pc, #20]	; (33cc <sendPacket+0x40>)
    33b6:	4798      	blx	r3
    33b8:	2000      	movs	r0, #0
    33ba:	47a8      	blx	r5
    33bc:	2001      	movs	r0, #1
    33be:	e7f2      	b.n	33a6 <sendPacket+0x1a>
    33c0:	0000321d 	.word	0x0000321d
    33c4:	00003189 	.word	0x00003189
    33c8:	20002514 	.word	0x20002514
    33cc:	00003169 	.word	0x00003169

000033d0 <RXsendPacket>:
    33d0:	b5f0      	push	{r4, r5, r6, r7, lr}
    33d2:	b085      	sub	sp, #20
    33d4:	ac0a      	add	r4, sp, #40	; 0x28
    33d6:	7824      	ldrb	r4, [r4, #0]
    33d8:	9400      	str	r4, [sp, #0]
    33da:	4c16      	ldr	r4, [pc, #88]	; (3434 <RXsendPacket+0x64>)
    33dc:	47a0      	blx	r4
    33de:	2800      	cmp	r0, #0
    33e0:	d101      	bne.n	33e6 <RXsendPacket+0x16>
    33e2:	b005      	add	sp, #20
    33e4:	bdf0      	pop	{r4, r5, r6, r7, pc}
    33e6:	4b14      	ldr	r3, [pc, #80]	; (3438 <RXsendPacket+0x68>)
    33e8:	4798      	blx	r3
    33ea:	9003      	str	r0, [sp, #12]
    33ec:	4b13      	ldr	r3, [pc, #76]	; (343c <RXsendPacket+0x6c>)
    33ee:	6818      	ldr	r0, [r3, #0]
    33f0:	2240      	movs	r2, #64	; 0x40
    33f2:	4913      	ldr	r1, [pc, #76]	; (3440 <RXsendPacket+0x70>)
    33f4:	4b13      	ldr	r3, [pc, #76]	; (3444 <RXsendPacket+0x74>)
    33f6:	4798      	blx	r3
    33f8:	2500      	movs	r5, #0
    33fa:	4f0f      	ldr	r7, [pc, #60]	; (3438 <RXsendPacket+0x68>)
    33fc:	4c0f      	ldr	r4, [pc, #60]	; (343c <RXsendPacket+0x6c>)
    33fe:	4e12      	ldr	r6, [pc, #72]	; (3448 <RXsendPacket+0x78>)
    3400:	47b8      	blx	r7
    3402:	0001      	movs	r1, r0
    3404:	9803      	ldr	r0, [sp, #12]
    3406:	47b0      	blx	r6
    3408:	2801      	cmp	r0, #1
    340a:	d80a      	bhi.n	3422 <RXsendPacket+0x52>
    340c:	6822      	ldr	r2, [r4, #0]
    340e:	8d93      	ldrh	r3, [r2, #44]	; 0x2c
    3410:	b29b      	uxth	r3, r3
    3412:	429d      	cmp	r5, r3
    3414:	d0f4      	beq.n	3400 <RXsendPacket+0x30>
    3416:	8d95      	ldrh	r5, [r2, #44]	; 0x2c
    3418:	b2ad      	uxth	r5, r5
    341a:	4b07      	ldr	r3, [pc, #28]	; (3438 <RXsendPacket+0x68>)
    341c:	4798      	blx	r3
    341e:	9003      	str	r0, [sp, #12]
    3420:	e7ed      	b.n	33fe <RXsendPacket+0x2e>
    3422:	4b06      	ldr	r3, [pc, #24]	; (343c <RXsendPacket+0x6c>)
    3424:	6818      	ldr	r0, [r3, #0]
    3426:	2100      	movs	r1, #0
    3428:	4b08      	ldr	r3, [pc, #32]	; (344c <RXsendPacket+0x7c>)
    342a:	4798      	blx	r3
    342c:	2040      	movs	r0, #64	; 0x40
    342e:	1b40      	subs	r0, r0, r5
    3430:	e7d7      	b.n	33e2 <RXsendPacket+0x12>
    3432:	46c0      	nop			; (mov r8, r8)
    3434:	0000338d 	.word	0x0000338d
    3438:	00002bf5 	.word	0x00002bf5
    343c:	200025dc 	.word	0x200025dc
    3440:	20002560 	.word	0x20002560
    3444:	00006b45 	.word	0x00006b45
    3448:	00002c01 	.word	0x00002c01
    344c:	00006b65 	.word	0x00006b65

00003450 <ReadRegister>:
    3450:	b5f0      	push	{r4, r5, r6, r7, lr}
    3452:	b087      	sub	sp, #28
    3454:	9004      	str	r0, [sp, #16]
    3456:	9103      	str	r1, [sp, #12]
    3458:	0014      	movs	r4, r2
    345a:	0010      	movs	r0, r2
    345c:	4b1b      	ldr	r3, [pc, #108]	; (34cc <ReadRegister+0x7c>)
    345e:	4798      	blx	r3
    3460:	9005      	str	r0, [sp, #20]
    3462:	b2c5      	uxtb	r5, r0
    3464:	2603      	movs	r6, #3
    3466:	4f1a      	ldr	r7, [pc, #104]	; (34d0 <ReadRegister+0x80>)
    3468:	e010      	b.n	348c <ReadRegister+0x3c>
    346a:	4b1a      	ldr	r3, [pc, #104]	; (34d4 <ReadRegister+0x84>)
    346c:	689b      	ldr	r3, [r3, #8]
    346e:	7818      	ldrb	r0, [r3, #0]
    3470:	e02a      	b.n	34c8 <ReadRegister+0x78>
    3472:	4b18      	ldr	r3, [pc, #96]	; (34d4 <ReadRegister+0x84>)
    3474:	689b      	ldr	r3, [r3, #8]
    3476:	7858      	ldrb	r0, [r3, #1]
    3478:	0200      	lsls	r0, r0, #8
    347a:	781a      	ldrb	r2, [r3, #0]
    347c:	4310      	orrs	r0, r2
    347e:	789b      	ldrb	r3, [r3, #2]
    3480:	041b      	lsls	r3, r3, #16
    3482:	4318      	orrs	r0, r3
    3484:	e020      	b.n	34c8 <ReadRegister+0x78>
    3486:	3e01      	subs	r6, #1
    3488:	2e00      	cmp	r6, #0
    348a:	d01b      	beq.n	34c4 <ReadRegister+0x74>
    348c:	b2a2      	uxth	r2, r4
    348e:	466b      	mov	r3, sp
    3490:	8a18      	ldrh	r0, [r3, #16]
    3492:	9500      	str	r5, [sp, #0]
    3494:	2300      	movs	r3, #0
    3496:	9903      	ldr	r1, [sp, #12]
    3498:	47b8      	blx	r7
    349a:	2800      	cmp	r0, #0
    349c:	d0f3      	beq.n	3486 <ReadRegister+0x36>
    349e:	490d      	ldr	r1, [pc, #52]	; (34d4 <ReadRegister+0x84>)
    34a0:	480d      	ldr	r0, [pc, #52]	; (34d8 <ReadRegister+0x88>)
    34a2:	4b0e      	ldr	r3, [pc, #56]	; (34dc <ReadRegister+0x8c>)
    34a4:	4798      	blx	r3
    34a6:	2800      	cmp	r0, #0
    34a8:	d1ed      	bne.n	3486 <ReadRegister+0x36>
    34aa:	9b05      	ldr	r3, [sp, #20]
    34ac:	2b01      	cmp	r3, #1
    34ae:	d0dc      	beq.n	346a <ReadRegister+0x1a>
    34b0:	9b03      	ldr	r3, [sp, #12]
    34b2:	2b01      	cmp	r3, #1
    34b4:	d0dd      	beq.n	3472 <ReadRegister+0x22>
    34b6:	4b07      	ldr	r3, [pc, #28]	; (34d4 <ReadRegister+0x84>)
    34b8:	689b      	ldr	r3, [r3, #8]
    34ba:	7858      	ldrb	r0, [r3, #1]
    34bc:	0200      	lsls	r0, r0, #8
    34be:	781b      	ldrb	r3, [r3, #0]
    34c0:	4318      	orrs	r0, r3
    34c2:	e001      	b.n	34c8 <ReadRegister+0x78>
    34c4:	2001      	movs	r0, #1
    34c6:	4240      	negs	r0, r0
    34c8:	b007      	add	sp, #28
    34ca:	bdf0      	pop	{r4, r5, r6, r7, pc}
    34cc:	00003205 	.word	0x00003205
    34d0:	000033d1 	.word	0x000033d1
    34d4:	20002554 	.word	0x20002554
    34d8:	20002560 	.word	0x20002560
    34dc:	00003315 	.word	0x00003315

000034e0 <ReadServoEEPROM>:
    34e0:	b530      	push	{r4, r5, lr}
    34e2:	b083      	sub	sp, #12
    34e4:	000c      	movs	r4, r1
    34e6:	b280      	uxth	r0, r0
    34e8:	2314      	movs	r3, #20
    34ea:	9300      	str	r3, [sp, #0]
    34ec:	2300      	movs	r3, #0
    34ee:	2200      	movs	r2, #0
    34f0:	2102      	movs	r1, #2
    34f2:	4d0c      	ldr	r5, [pc, #48]	; (3524 <ReadServoEEPROM+0x44>)
    34f4:	47a8      	blx	r5
    34f6:	2800      	cmp	r0, #0
    34f8:	d00e      	beq.n	3518 <ReadServoEEPROM+0x38>
    34fa:	490b      	ldr	r1, [pc, #44]	; (3528 <ReadServoEEPROM+0x48>)
    34fc:	480b      	ldr	r0, [pc, #44]	; (352c <ReadServoEEPROM+0x4c>)
    34fe:	4b0c      	ldr	r3, [pc, #48]	; (3530 <ReadServoEEPROM+0x50>)
    3500:	4798      	blx	r3
    3502:	2800      	cmp	r0, #0
    3504:	d10b      	bne.n	351e <ReadServoEEPROM+0x3e>
    3506:	4b08      	ldr	r3, [pc, #32]	; (3528 <ReadServoEEPROM+0x48>)
    3508:	6899      	ldr	r1, [r3, #8]
    350a:	2214      	movs	r2, #20
    350c:	0020      	movs	r0, r4
    350e:	4b09      	ldr	r3, [pc, #36]	; (3534 <ReadServoEEPROM+0x54>)
    3510:	4798      	blx	r3
    3512:	2000      	movs	r0, #0
    3514:	b003      	add	sp, #12
    3516:	bd30      	pop	{r4, r5, pc}
    3518:	2001      	movs	r0, #1
    351a:	4240      	negs	r0, r0
    351c:	e7fa      	b.n	3514 <ReadServoEEPROM+0x34>
    351e:	2001      	movs	r0, #1
    3520:	4240      	negs	r0, r0
    3522:	e7f7      	b.n	3514 <ReadServoEEPROM+0x34>
    3524:	000033d1 	.word	0x000033d1
    3528:	20002554 	.word	0x20002554
    352c:	20002560 	.word	0x20002560
    3530:	00003315 	.word	0x00003315
    3534:	0000bded 	.word	0x0000bded

00003538 <ServoEnableTorque>:
    3538:	b530      	push	{r4, r5, lr}
    353a:	b085      	sub	sp, #20
    353c:	0004      	movs	r4, r0
    353e:	250e      	movs	r5, #14
    3540:	446d      	add	r5, sp
    3542:	2301      	movs	r3, #1
    3544:	4019      	ands	r1, r3
    3546:	8029      	strh	r1, [r5, #0]
    3548:	2018      	movs	r0, #24
    354a:	4b06      	ldr	r3, [pc, #24]	; (3564 <ServoEnableTorque+0x2c>)
    354c:	4798      	blx	r3
    354e:	0003      	movs	r3, r0
    3550:	b2a0      	uxth	r0, r4
    3552:	b2db      	uxtb	r3, r3
    3554:	9300      	str	r3, [sp, #0]
    3556:	002b      	movs	r3, r5
    3558:	2218      	movs	r2, #24
    355a:	2103      	movs	r1, #3
    355c:	4c02      	ldr	r4, [pc, #8]	; (3568 <ServoEnableTorque+0x30>)
    355e:	47a0      	blx	r4
    3560:	b005      	add	sp, #20
    3562:	bd30      	pop	{r4, r5, pc}
    3564:	00003205 	.word	0x00003205
    3568:	0000338d 	.word	0x0000338d

0000356c <moveServo>:
    356c:	b510      	push	{r4, lr}
    356e:	b084      	sub	sp, #16
    3570:	0004      	movs	r4, r0
    3572:	4b0d      	ldr	r3, [pc, #52]	; (35a8 <moveServo+0x3c>)
    3574:	4299      	cmp	r1, r3
    3576:	d912      	bls.n	359e <moveServo+0x32>
    3578:	4a0b      	ldr	r2, [pc, #44]	; (35a8 <moveServo+0x3c>)
    357a:	230e      	movs	r3, #14
    357c:	446b      	add	r3, sp
    357e:	801a      	strh	r2, [r3, #0]
    3580:	201e      	movs	r0, #30
    3582:	4b0a      	ldr	r3, [pc, #40]	; (35ac <moveServo+0x40>)
    3584:	4798      	blx	r3
    3586:	0003      	movs	r3, r0
    3588:	b2a0      	uxth	r0, r4
    358a:	b2db      	uxtb	r3, r3
    358c:	9300      	str	r3, [sp, #0]
    358e:	230e      	movs	r3, #14
    3590:	446b      	add	r3, sp
    3592:	221e      	movs	r2, #30
    3594:	2103      	movs	r1, #3
    3596:	4c06      	ldr	r4, [pc, #24]	; (35b0 <moveServo+0x44>)
    3598:	47a0      	blx	r4
    359a:	b004      	add	sp, #16
    359c:	bd10      	pop	{r4, pc}
    359e:	230e      	movs	r3, #14
    35a0:	446b      	add	r3, sp
    35a2:	8019      	strh	r1, [r3, #0]
    35a4:	e7ec      	b.n	3580 <moveServo+0x14>
    35a6:	46c0      	nop			; (mov r8, r8)
    35a8:	000003ff 	.word	0x000003ff
    35ac:	00003205 	.word	0x00003205
    35b0:	0000338d 	.word	0x0000338d

000035b4 <setServoSpeed>:
    35b4:	b530      	push	{r4, r5, lr}
    35b6:	b085      	sub	sp, #20
    35b8:	0004      	movs	r4, r0
    35ba:	250e      	movs	r5, #14
    35bc:	446d      	add	r5, sp
    35be:	8029      	strh	r1, [r5, #0]
    35c0:	2020      	movs	r0, #32
    35c2:	4b06      	ldr	r3, [pc, #24]	; (35dc <setServoSpeed+0x28>)
    35c4:	4798      	blx	r3
    35c6:	0003      	movs	r3, r0
    35c8:	b2a0      	uxth	r0, r4
    35ca:	b2db      	uxtb	r3, r3
    35cc:	9300      	str	r3, [sp, #0]
    35ce:	002b      	movs	r3, r5
    35d0:	2220      	movs	r2, #32
    35d2:	2103      	movs	r1, #3
    35d4:	4c02      	ldr	r4, [pc, #8]	; (35e0 <setServoSpeed+0x2c>)
    35d6:	47a0      	blx	r4
    35d8:	b005      	add	sp, #20
    35da:	bd30      	pop	{r4, r5, pc}
    35dc:	00003205 	.word	0x00003205
    35e0:	0000338d 	.word	0x0000338d

000035e4 <setServoLED>:
    35e4:	b530      	push	{r4, r5, lr}
    35e6:	b085      	sub	sp, #20
    35e8:	0004      	movs	r4, r0
    35ea:	250e      	movs	r5, #14
    35ec:	446d      	add	r5, sp
    35ee:	8029      	strh	r1, [r5, #0]
    35f0:	2019      	movs	r0, #25
    35f2:	4b06      	ldr	r3, [pc, #24]	; (360c <setServoLED+0x28>)
    35f4:	4798      	blx	r3
    35f6:	0003      	movs	r3, r0
    35f8:	b2a0      	uxth	r0, r4
    35fa:	b2db      	uxtb	r3, r3
    35fc:	9300      	str	r3, [sp, #0]
    35fe:	002b      	movs	r3, r5
    3600:	2219      	movs	r2, #25
    3602:	2103      	movs	r1, #3
    3604:	4c02      	ldr	r4, [pc, #8]	; (3610 <setServoLED+0x2c>)
    3606:	47a0      	blx	r4
    3608:	b005      	add	sp, #20
    360a:	bd30      	pop	{r4, r5, pc}
    360c:	00003205 	.word	0x00003205
    3610:	0000338d 	.word	0x0000338d

00003614 <setServoPID>:
    3614:	b5f0      	push	{r4, r5, r6, r7, lr}
    3616:	b087      	sub	sp, #28
    3618:	ae05      	add	r6, sp, #20
    361a:	7031      	strb	r1, [r6, #0]
    361c:	7073      	strb	r3, [r6, #1]
    361e:	70b2      	strb	r2, [r6, #2]
    3620:	241b      	movs	r4, #27
    3622:	4d0a      	ldr	r5, [pc, #40]	; (364c <setServoPID+0x38>)
    3624:	b283      	uxth	r3, r0
    3626:	9303      	str	r3, [sp, #12]
    3628:	4f09      	ldr	r7, [pc, #36]	; (3650 <setServoPID+0x3c>)
    362a:	b2e0      	uxtb	r0, r4
    362c:	47a8      	blx	r5
    362e:	b2c0      	uxtb	r0, r0
    3630:	9000      	str	r0, [sp, #0]
    3632:	0033      	movs	r3, r6
    3634:	0022      	movs	r2, r4
    3636:	2103      	movs	r1, #3
    3638:	9803      	ldr	r0, [sp, #12]
    363a:	47b8      	blx	r7
    363c:	3401      	adds	r4, #1
    363e:	b2a4      	uxth	r4, r4
    3640:	3601      	adds	r6, #1
    3642:	2c1e      	cmp	r4, #30
    3644:	d1f1      	bne.n	362a <setServoPID+0x16>
    3646:	b007      	add	sp, #28
    3648:	bdf0      	pop	{r4, r5, r6, r7, pc}
    364a:	46c0      	nop			; (mov r8, r8)
    364c:	00003205 	.word	0x00003205
    3650:	0000338d 	.word	0x0000338d

00003654 <ResetServo>:
    3654:	b510      	push	{r4, lr}
    3656:	b082      	sub	sp, #8
    3658:	b280      	uxth	r0, r0
    365a:	2300      	movs	r3, #0
    365c:	9300      	str	r3, [sp, #0]
    365e:	2200      	movs	r2, #0
    3660:	2108      	movs	r1, #8
    3662:	4c02      	ldr	r4, [pc, #8]	; (366c <ResetServo+0x18>)
    3664:	47a0      	blx	r4
    3666:	b002      	add	sp, #8
    3668:	bd10      	pop	{r4, pc}
    366a:	46c0      	nop			; (mov r8, r8)
    366c:	0000338d 	.word	0x0000338d

00003670 <XL320_Init>:
    3670:	b570      	push	{r4, r5, r6, lr}
    3672:	4b0b      	ldr	r3, [pc, #44]	; (36a0 <XL320_Init+0x30>)
    3674:	6018      	str	r0, [r3, #0]
    3676:	4c0b      	ldr	r4, [pc, #44]	; (36a4 <XL320_Init+0x34>)
    3678:	0021      	movs	r1, r4
    367a:	2001      	movs	r0, #1
    367c:	4d0a      	ldr	r5, [pc, #40]	; (36a8 <XL320_Init+0x38>)
    367e:	47a8      	blx	r5
    3680:	0021      	movs	r1, r4
    3682:	311e      	adds	r1, #30
    3684:	2002      	movs	r0, #2
    3686:	47a8      	blx	r5
    3688:	2302      	movs	r3, #2
    368a:	2201      	movs	r2, #1
    368c:	210a      	movs	r1, #10
    368e:	2001      	movs	r0, #1
    3690:	4c06      	ldr	r4, [pc, #24]	; (36ac <XL320_Init+0x3c>)
    3692:	47a0      	blx	r4
    3694:	2302      	movs	r3, #2
    3696:	2201      	movs	r2, #1
    3698:	210a      	movs	r1, #10
    369a:	2002      	movs	r0, #2
    369c:	47a0      	blx	r4
    369e:	bd70      	pop	{r4, r5, r6, pc}
    36a0:	200025dc 	.word	0x200025dc
    36a4:	200025a0 	.word	0x200025a0
    36a8:	000034e1 	.word	0x000034e1
    36ac:	00003615 	.word	0x00003615

000036b0 <_system_events_init>:
    36b0:	4a06      	ldr	r2, [pc, #24]	; (36cc <_system_events_init+0x1c>)
    36b2:	6a13      	ldr	r3, [r2, #32]
    36b4:	2102      	movs	r1, #2
    36b6:	430b      	orrs	r3, r1
    36b8:	6213      	str	r3, [r2, #32]
    36ba:	2201      	movs	r2, #1
    36bc:	4b04      	ldr	r3, [pc, #16]	; (36d0 <_system_events_init+0x20>)
    36be:	701a      	strb	r2, [r3, #0]
    36c0:	0019      	movs	r1, r3
    36c2:	780b      	ldrb	r3, [r1, #0]
    36c4:	4213      	tst	r3, r2
    36c6:	d1fc      	bne.n	36c2 <_system_events_init+0x12>
    36c8:	4770      	bx	lr
    36ca:	46c0      	nop			; (mov r8, r8)
    36cc:	40000400 	.word	0x40000400
    36d0:	42000400 	.word	0x42000400

000036d4 <events_get_config_defaults>:
    36d4:	2301      	movs	r3, #1
    36d6:	7003      	strb	r3, [r0, #0]
    36d8:	2300      	movs	r3, #0
    36da:	7043      	strb	r3, [r0, #1]
    36dc:	7083      	strb	r3, [r0, #2]
    36de:	70c3      	strb	r3, [r0, #3]
    36e0:	4770      	bx	lr
	...

000036e4 <events_allocate>:
    36e4:	b5f0      	push	{r4, r5, r6, r7, lr}
    36e6:	b083      	sub	sp, #12
    36e8:	0005      	movs	r5, r0
    36ea:	000e      	movs	r6, r1
    36ec:	4b24      	ldr	r3, [pc, #144]	; (3780 <events_allocate+0x9c>)
    36ee:	4798      	blx	r3
    36f0:	4b24      	ldr	r3, [pc, #144]	; (3784 <events_allocate+0xa0>)
    36f2:	681b      	ldr	r3, [r3, #0]
    36f4:	07da      	lsls	r2, r3, #31
    36f6:	d50e      	bpl.n	3716 <events_allocate+0x32>
    36f8:	085b      	lsrs	r3, r3, #1
    36fa:	2401      	movs	r4, #1
    36fc:	2201      	movs	r2, #1
    36fe:	421a      	tst	r2, r3
    3700:	d00a      	beq.n	3718 <events_allocate+0x34>
    3702:	085b      	lsrs	r3, r3, #1
    3704:	3401      	adds	r4, #1
    3706:	b2e4      	uxtb	r4, r4
    3708:	2c0c      	cmp	r4, #12
    370a:	d1f8      	bne.n	36fe <events_allocate+0x1a>
    370c:	4b1e      	ldr	r3, [pc, #120]	; (3788 <events_allocate+0xa4>)
    370e:	4798      	blx	r3
    3710:	2014      	movs	r0, #20
    3712:	b003      	add	sp, #12
    3714:	bdf0      	pop	{r4, r5, r6, r7, pc}
    3716:	2400      	movs	r4, #0
    3718:	4a1a      	ldr	r2, [pc, #104]	; (3784 <events_allocate+0xa0>)
    371a:	6811      	ldr	r1, [r2, #0]
    371c:	2301      	movs	r3, #1
    371e:	40a3      	lsls	r3, r4
    3720:	430b      	orrs	r3, r1
    3722:	6013      	str	r3, [r2, #0]
    3724:	7913      	ldrb	r3, [r2, #4]
    3726:	3b01      	subs	r3, #1
    3728:	7113      	strb	r3, [r2, #4]
    372a:	4b17      	ldr	r3, [pc, #92]	; (3788 <events_allocate+0xa4>)
    372c:	4798      	blx	r3
    372e:	2014      	movs	r0, #20
    3730:	2cff      	cmp	r4, #255	; 0xff
    3732:	d0ee      	beq.n	3712 <events_allocate+0x2e>
    3734:	702c      	strb	r4, [r5, #0]
    3736:	7873      	ldrb	r3, [r6, #1]
    3738:	2b02      	cmp	r3, #2
    373a:	d00a      	beq.n	3752 <events_allocate+0x6e>
    373c:	a901      	add	r1, sp, #4
    373e:	78f3      	ldrb	r3, [r6, #3]
    3740:	700b      	strb	r3, [r1, #0]
    3742:	1de7      	adds	r7, r4, #7
    3744:	b2ff      	uxtb	r7, r7
    3746:	0038      	movs	r0, r7
    3748:	4b10      	ldr	r3, [pc, #64]	; (378c <events_allocate+0xa8>)
    374a:	4798      	blx	r3
    374c:	0038      	movs	r0, r7
    374e:	4b10      	ldr	r3, [pc, #64]	; (3790 <events_allocate+0xac>)
    3750:	4798      	blx	r3
    3752:	78b3      	ldrb	r3, [r6, #2]
    3754:	041b      	lsls	r3, r3, #16
    3756:	22fe      	movs	r2, #254	; 0xfe
    3758:	03d2      	lsls	r2, r2, #15
    375a:	4013      	ands	r3, r2
    375c:	7872      	ldrb	r2, [r6, #1]
    375e:	0612      	lsls	r2, r2, #24
    3760:	21c0      	movs	r1, #192	; 0xc0
    3762:	0489      	lsls	r1, r1, #18
    3764:	400a      	ands	r2, r1
    3766:	4313      	orrs	r3, r2
    3768:	7832      	ldrb	r2, [r6, #0]
    376a:	0692      	lsls	r2, r2, #26
    376c:	21c0      	movs	r1, #192	; 0xc0
    376e:	0509      	lsls	r1, r1, #20
    3770:	400a      	ands	r2, r1
    3772:	4313      	orrs	r3, r2
    3774:	220f      	movs	r2, #15
    3776:	4014      	ands	r4, r2
    3778:	431c      	orrs	r4, r3
    377a:	606c      	str	r4, [r5, #4]
    377c:	2000      	movs	r0, #0
    377e:	e7c8      	b.n	3712 <events_allocate+0x2e>
    3780:	000082b9 	.word	0x000082b9
    3784:	20000028 	.word	0x20000028
    3788:	000082f9 	.word	0x000082f9
    378c:	000089d5 	.word	0x000089d5
    3790:	00008949 	.word	0x00008949

00003794 <events_attach_user>:
    3794:	7803      	ldrb	r3, [r0, #0]
    3796:	3301      	adds	r3, #1
    3798:	021b      	lsls	r3, r3, #8
    379a:	22f8      	movs	r2, #248	; 0xf8
    379c:	0152      	lsls	r2, r2, #5
    379e:	4013      	ands	r3, r2
    37a0:	221f      	movs	r2, #31
    37a2:	4011      	ands	r1, r2
    37a4:	430b      	orrs	r3, r1
    37a6:	4a03      	ldr	r2, [pc, #12]	; (37b4 <events_attach_user+0x20>)
    37a8:	8113      	strh	r3, [r2, #8]
    37aa:	6843      	ldr	r3, [r0, #4]
    37ac:	6053      	str	r3, [r2, #4]
    37ae:	2000      	movs	r0, #0
    37b0:	4770      	bx	lr
    37b2:	46c0      	nop			; (mov r8, r8)
    37b4:	42000400 	.word	0x42000400

000037b8 <_extint_enable>:
    37b8:	4a04      	ldr	r2, [pc, #16]	; (37cc <_extint_enable+0x14>)
    37ba:	7813      	ldrb	r3, [r2, #0]
    37bc:	2102      	movs	r1, #2
    37be:	430b      	orrs	r3, r1
    37c0:	7013      	strb	r3, [r2, #0]
    37c2:	7853      	ldrb	r3, [r2, #1]
    37c4:	b25b      	sxtb	r3, r3
    37c6:	2b00      	cmp	r3, #0
    37c8:	dbfb      	blt.n	37c2 <_extint_enable+0xa>
    37ca:	4770      	bx	lr
    37cc:	40001800 	.word	0x40001800

000037d0 <_system_extint_init>:
    37d0:	b500      	push	{lr}
    37d2:	b083      	sub	sp, #12
    37d4:	4a12      	ldr	r2, [pc, #72]	; (3820 <_system_extint_init+0x50>)
    37d6:	6993      	ldr	r3, [r2, #24]
    37d8:	2140      	movs	r1, #64	; 0x40
    37da:	430b      	orrs	r3, r1
    37dc:	6193      	str	r3, [r2, #24]
    37de:	a901      	add	r1, sp, #4
    37e0:	2300      	movs	r3, #0
    37e2:	700b      	strb	r3, [r1, #0]
    37e4:	2005      	movs	r0, #5
    37e6:	4b0f      	ldr	r3, [pc, #60]	; (3824 <_system_extint_init+0x54>)
    37e8:	4798      	blx	r3
    37ea:	2005      	movs	r0, #5
    37ec:	4b0e      	ldr	r3, [pc, #56]	; (3828 <_system_extint_init+0x58>)
    37ee:	4798      	blx	r3
    37f0:	4a0e      	ldr	r2, [pc, #56]	; (382c <_system_extint_init+0x5c>)
    37f2:	7813      	ldrb	r3, [r2, #0]
    37f4:	2101      	movs	r1, #1
    37f6:	430b      	orrs	r3, r1
    37f8:	7013      	strb	r3, [r2, #0]
    37fa:	7853      	ldrb	r3, [r2, #1]
    37fc:	b25b      	sxtb	r3, r3
    37fe:	2b00      	cmp	r3, #0
    3800:	dbfb      	blt.n	37fa <_system_extint_init+0x2a>
    3802:	4b0b      	ldr	r3, [pc, #44]	; (3830 <_system_extint_init+0x60>)
    3804:	0019      	movs	r1, r3
    3806:	3140      	adds	r1, #64	; 0x40
    3808:	2200      	movs	r2, #0
    380a:	c304      	stmia	r3!, {r2}
    380c:	4299      	cmp	r1, r3
    380e:	d1fc      	bne.n	380a <_system_extint_init+0x3a>
    3810:	2210      	movs	r2, #16
    3812:	4b08      	ldr	r3, [pc, #32]	; (3834 <_system_extint_init+0x64>)
    3814:	601a      	str	r2, [r3, #0]
    3816:	4b08      	ldr	r3, [pc, #32]	; (3838 <_system_extint_init+0x68>)
    3818:	4798      	blx	r3
    381a:	b003      	add	sp, #12
    381c:	bd00      	pop	{pc}
    381e:	46c0      	nop			; (mov r8, r8)
    3820:	40000400 	.word	0x40000400
    3824:	000089d5 	.word	0x000089d5
    3828:	00008949 	.word	0x00008949
    382c:	40001800 	.word	0x40001800
    3830:	200025e0 	.word	0x200025e0
    3834:	e000e100 	.word	0xe000e100
    3838:	000037b9 	.word	0x000037b9

0000383c <i2s_init>:
    383c:	b510      	push	{r4, lr}
    383e:	4a1a      	ldr	r2, [pc, #104]	; (38a8 <i2s_init+0x6c>)
    3840:	6a14      	ldr	r4, [r2, #32]
    3842:	2380      	movs	r3, #128	; 0x80
    3844:	035b      	lsls	r3, r3, #13
    3846:	4323      	orrs	r3, r4
    3848:	6213      	str	r3, [r2, #32]
    384a:	6803      	ldr	r3, [r0, #0]
    384c:	781b      	ldrb	r3, [r3, #0]
    384e:	b2db      	uxtb	r3, r3
    3850:	079a      	lsls	r2, r3, #30
    3852:	d505      	bpl.n	3860 <i2s_init+0x24>
    3854:	223c      	movs	r2, #60	; 0x3c
    3856:	2005      	movs	r0, #5
    3858:	421a      	tst	r2, r3
    385a:	d123      	bne.n	38a4 <i2s_init+0x68>
    385c:	3017      	adds	r0, #23
    385e:	e021      	b.n	38a4 <i2s_init+0x68>
    3860:	6001      	str	r1, [r0, #0]
    3862:	2300      	movs	r3, #0
    3864:	6043      	str	r3, [r0, #4]
    3866:	6083      	str	r3, [r0, #8]
    3868:	7603      	strb	r3, [r0, #24]
    386a:	7643      	strb	r3, [r0, #25]
    386c:	60c3      	str	r3, [r0, #12]
    386e:	7683      	strb	r3, [r0, #26]
    3870:	6103      	str	r3, [r0, #16]
    3872:	6143      	str	r3, [r0, #20]
    3874:	76c3      	strb	r3, [r0, #27]
    3876:	7703      	strb	r3, [r0, #28]
    3878:	6203      	str	r3, [r0, #32]
    387a:	6243      	str	r3, [r0, #36]	; 0x24
    387c:	2234      	movs	r2, #52	; 0x34
    387e:	5483      	strb	r3, [r0, r2]
    3880:	3201      	adds	r2, #1
    3882:	5483      	strb	r3, [r0, r2]
    3884:	6283      	str	r3, [r0, #40]	; 0x28
    3886:	3201      	adds	r2, #1
    3888:	5483      	strb	r3, [r0, r2]
    388a:	62c3      	str	r3, [r0, #44]	; 0x2c
    388c:	6303      	str	r3, [r0, #48]	; 0x30
    388e:	3201      	adds	r2, #1
    3890:	5483      	strb	r3, [r0, r2]
    3892:	3201      	adds	r2, #1
    3894:	5483      	strb	r3, [r0, r2]
    3896:	4b05      	ldr	r3, [pc, #20]	; (38ac <i2s_init+0x70>)
    3898:	6018      	str	r0, [r3, #0]
    389a:	2280      	movs	r2, #128	; 0x80
    389c:	0512      	lsls	r2, r2, #20
    389e:	4b04      	ldr	r3, [pc, #16]	; (38b0 <i2s_init+0x74>)
    38a0:	601a      	str	r2, [r3, #0]
    38a2:	2000      	movs	r0, #0
    38a4:	bd10      	pop	{r4, pc}
    38a6:	46c0      	nop			; (mov r8, r8)
    38a8:	40000400 	.word	0x40000400
    38ac:	200029cc 	.word	0x200029cc
    38b0:	e000e100 	.word	0xe000e100

000038b4 <i2s_clock_unit_set_config>:
    38b4:	b5f0      	push	{r4, r5, r6, r7, lr}
    38b6:	46de      	mov	lr, fp
    38b8:	4657      	mov	r7, sl
    38ba:	464e      	mov	r6, r9
    38bc:	4645      	mov	r5, r8
    38be:	b5e0      	push	{r5, r6, r7, lr}
    38c0:	b08d      	sub	sp, #52	; 0x34
    38c2:	000e      	movs	r6, r1
    38c4:	0014      	movs	r4, r2
    38c6:	6801      	ldr	r1, [r0, #0]
    38c8:	8b0d      	ldrh	r5, [r1, #24]
    38ca:	780a      	ldrb	r2, [r1, #0]
    38cc:	b2d2      	uxtb	r2, r2
    38ce:	2304      	movs	r3, #4
    38d0:	40b3      	lsls	r3, r6
    38d2:	2005      	movs	r0, #5
    38d4:	421d      	tst	r5, r3
    38d6:	d006      	beq.n	38e6 <i2s_clock_unit_set_config+0x32>
    38d8:	b00d      	add	sp, #52	; 0x34
    38da:	bc3c      	pop	{r2, r3, r4, r5}
    38dc:	4690      	mov	r8, r2
    38de:	4699      	mov	r9, r3
    38e0:	46a2      	mov	sl, r4
    38e2:	46ab      	mov	fp, r5
    38e4:	bdf0      	pop	{r4, r5, r6, r7, pc}
    38e6:	4013      	ands	r3, r2
    38e8:	3017      	adds	r0, #23
    38ea:	2b00      	cmp	r3, #0
    38ec:	d1f4      	bne.n	38d8 <i2s_clock_unit_set_config+0x24>
    38ee:	78e2      	ldrb	r2, [r4, #3]
    38f0:	2a00      	cmp	r2, #0
    38f2:	d003      	beq.n	38fc <i2s_clock_unit_set_config+0x48>
    38f4:	79e5      	ldrb	r5, [r4, #7]
    38f6:	3805      	subs	r0, #5
    38f8:	2d00      	cmp	r5, #0
    38fa:	d1ed      	bne.n	38d8 <i2s_clock_unit_set_config+0x24>
    38fc:	7960      	ldrb	r0, [r4, #5]
    38fe:	2800      	cmp	r0, #0
    3900:	d000      	beq.n	3904 <i2s_clock_unit_set_config+0x50>
    3902:	e09b      	b.n	3a3c <i2s_clock_unit_set_config+0x188>
    3904:	9301      	str	r3, [sp, #4]
    3906:	79a0      	ldrb	r0, [r4, #6]
    3908:	001f      	movs	r7, r3
    390a:	2800      	cmp	r0, #0
    390c:	d001      	beq.n	3912 <i2s_clock_unit_set_config+0x5e>
    390e:	2780      	movs	r7, #128	; 0x80
    3910:	05ff      	lsls	r7, r7, #23
    3912:	7ba0      	ldrb	r0, [r4, #14]
    3914:	2800      	cmp	r0, #0
    3916:	d000      	beq.n	391a <i2s_clock_unit_set_config+0x66>
    3918:	e094      	b.n	3a44 <i2s_clock_unit_set_config+0x190>
    391a:	9302      	str	r3, [sp, #8]
    391c:	79e0      	ldrb	r0, [r4, #7]
    391e:	2800      	cmp	r0, #0
    3920:	d000      	beq.n	3924 <i2s_clock_unit_set_config+0x70>
    3922:	e093      	b.n	3a4c <i2s_clock_unit_set_config+0x198>
    3924:	9303      	str	r3, [sp, #12]
    3926:	2a00      	cmp	r2, #0
    3928:	d000      	beq.n	392c <i2s_clock_unit_set_config+0x78>
    392a:	e093      	b.n	3a54 <i2s_clock_unit_set_config+0x1a0>
    392c:	9304      	str	r3, [sp, #16]
    392e:	7920      	ldrb	r0, [r4, #4]
    3930:	2800      	cmp	r0, #0
    3932:	d000      	beq.n	3936 <i2s_clock_unit_set_config+0x82>
    3934:	e092      	b.n	3a5c <i2s_clock_unit_set_config+0x1a8>
    3936:	9305      	str	r3, [sp, #20]
    3938:	7b60      	ldrb	r0, [r4, #13]
    393a:	2800      	cmp	r0, #0
    393c:	d000      	beq.n	3940 <i2s_clock_unit_set_config+0x8c>
    393e:	e091      	b.n	3a64 <i2s_clock_unit_set_config+0x1b0>
    3940:	9306      	str	r3, [sp, #24]
    3942:	7ae0      	ldrb	r0, [r4, #11]
    3944:	2800      	cmp	r0, #0
    3946:	d000      	beq.n	394a <i2s_clock_unit_set_config+0x96>
    3948:	e090      	b.n	3a6c <i2s_clock_unit_set_config+0x1b8>
    394a:	9307      	str	r3, [sp, #28]
    394c:	7aa0      	ldrb	r0, [r4, #10]
    394e:	2800      	cmp	r0, #0
    3950:	d000      	beq.n	3954 <i2s_clock_unit_set_config+0xa0>
    3952:	2380      	movs	r3, #128	; 0x80
    3954:	7820      	ldrb	r0, [r4, #0]
    3956:	3801      	subs	r0, #1
    3958:	b2c2      	uxtb	r2, r0
    395a:	2017      	movs	r0, #23
    395c:	2a20      	cmp	r2, #32
    395e:	d8bb      	bhi.n	38d8 <i2s_clock_unit_set_config+0x24>
    3960:	7860      	ldrb	r0, [r4, #1]
    3962:	3801      	subs	r0, #1
    3964:	b2c0      	uxtb	r0, r0
    3966:	4681      	mov	r9, r0
    3968:	2017      	movs	r0, #23
    396a:	464d      	mov	r5, r9
    396c:	2d20      	cmp	r5, #32
    396e:	d8b3      	bhi.n	38d8 <i2s_clock_unit_set_config+0x24>
    3970:	7a20      	ldrb	r0, [r4, #8]
    3972:	4683      	mov	fp, r0
    3974:	2017      	movs	r0, #23
    3976:	465d      	mov	r5, fp
    3978:	2d08      	cmp	r5, #8
    397a:	d8ad      	bhi.n	38d8 <i2s_clock_unit_set_config+0x24>
    397c:	4658      	mov	r0, fp
    397e:	2d00      	cmp	r5, #0
    3980:	d002      	beq.n	3988 <i2s_clock_unit_set_config+0xd4>
    3982:	3801      	subs	r0, #1
    3984:	b2c0      	uxtb	r0, r0
    3986:	4683      	mov	fp, r0
    3988:	7b20      	ldrb	r0, [r4, #12]
    398a:	0140      	lsls	r0, r0, #5
    398c:	2560      	movs	r5, #96	; 0x60
    398e:	4005      	ands	r5, r0
    3990:	46ac      	mov	ip, r5
    3992:	7a60      	ldrb	r0, [r4, #9]
    3994:	4682      	mov	sl, r0
    3996:	2003      	movs	r0, #3
    3998:	4655      	mov	r5, sl
    399a:	4028      	ands	r0, r5
    399c:	4665      	mov	r5, ip
    399e:	4305      	orrs	r5, r0
    39a0:	0610      	lsls	r0, r2, #24
    39a2:	22f8      	movs	r2, #248	; 0xf8
    39a4:	0552      	lsls	r2, r2, #21
    39a6:	4010      	ands	r0, r2
    39a8:	002a      	movs	r2, r5
    39aa:	4302      	orrs	r2, r0
    39ac:	4692      	mov	sl, r2
    39ae:	464a      	mov	r2, r9
    39b0:	04d0      	lsls	r0, r2, #19
    39b2:	22f8      	movs	r2, #248	; 0xf8
    39b4:	0412      	lsls	r2, r2, #16
    39b6:	4010      	ands	r0, r2
    39b8:	4652      	mov	r2, sl
    39ba:	4310      	orrs	r0, r2
    39bc:	9a01      	ldr	r2, [sp, #4]
    39be:	4310      	orrs	r0, r2
    39c0:	4307      	orrs	r7, r0
    39c2:	9a02      	ldr	r2, [sp, #8]
    39c4:	433a      	orrs	r2, r7
    39c6:	9d03      	ldr	r5, [sp, #12]
    39c8:	4315      	orrs	r5, r2
    39ca:	9a04      	ldr	r2, [sp, #16]
    39cc:	432a      	orrs	r2, r5
    39ce:	9805      	ldr	r0, [sp, #20]
    39d0:	4302      	orrs	r2, r0
    39d2:	9806      	ldr	r0, [sp, #24]
    39d4:	4302      	orrs	r2, r0
    39d6:	9807      	ldr	r0, [sp, #28]
    39d8:	4302      	orrs	r2, r0
    39da:	4313      	orrs	r3, r2
    39dc:	465a      	mov	r2, fp
    39de:	0090      	lsls	r0, r2, #2
    39e0:	221c      	movs	r2, #28
    39e2:	4010      	ands	r0, r2
    39e4:	4303      	orrs	r3, r0
    39e6:	00b2      	lsls	r2, r6, #2
    39e8:	1889      	adds	r1, r1, r2
    39ea:	604b      	str	r3, [r1, #4]
    39ec:	ab0b      	add	r3, sp, #44	; 0x2c
    39ee:	2223      	movs	r2, #35	; 0x23
    39f0:	701a      	strb	r2, [r3, #0]
    39f2:	3201      	adds	r2, #1
    39f4:	705a      	strb	r2, [r3, #1]
    39f6:	a90a      	add	r1, sp, #40	; 0x28
    39f8:	78a2      	ldrb	r2, [r4, #2]
    39fa:	700a      	strb	r2, [r1, #0]
    39fc:	5d9d      	ldrb	r5, [r3, r6]
    39fe:	0028      	movs	r0, r5
    3a00:	4b23      	ldr	r3, [pc, #140]	; (3a90 <i2s_clock_unit_set_config+0x1dc>)
    3a02:	4798      	blx	r3
    3a04:	0028      	movs	r0, r5
    3a06:	4b23      	ldr	r3, [pc, #140]	; (3a94 <i2s_clock_unit_set_config+0x1e0>)
    3a08:	4798      	blx	r3
    3a0a:	ab09      	add	r3, sp, #36	; 0x24
    3a0c:	2200      	movs	r2, #0
    3a0e:	705a      	strb	r2, [r3, #1]
    3a10:	2101      	movs	r1, #1
    3a12:	7099      	strb	r1, [r3, #2]
    3a14:	70da      	strb	r2, [r3, #3]
    3a16:	7c63      	ldrb	r3, [r4, #17]
    3a18:	2b00      	cmp	r3, #0
    3a1a:	d12b      	bne.n	3a74 <i2s_clock_unit_set_config+0x1c0>
    3a1c:	7d23      	ldrb	r3, [r4, #20]
    3a1e:	2b00      	cmp	r3, #0
    3a20:	d12f      	bne.n	3a82 <i2s_clock_unit_set_config+0x1ce>
    3a22:	7de3      	ldrb	r3, [r4, #23]
    3a24:	2000      	movs	r0, #0
    3a26:	2b00      	cmp	r3, #0
    3a28:	d100      	bne.n	3a2c <i2s_clock_unit_set_config+0x178>
    3a2a:	e755      	b.n	38d8 <i2s_clock_unit_set_config+0x24>
    3a2c:	a909      	add	r1, sp, #36	; 0x24
    3a2e:	7da3      	ldrb	r3, [r4, #22]
    3a30:	700b      	strb	r3, [r1, #0]
    3a32:	7d60      	ldrb	r0, [r4, #21]
    3a34:	4b18      	ldr	r3, [pc, #96]	; (3a98 <i2s_clock_unit_set_config+0x1e4>)
    3a36:	4798      	blx	r3
    3a38:	2000      	movs	r0, #0
    3a3a:	e74d      	b.n	38d8 <i2s_clock_unit_set_config+0x24>
    3a3c:	2080      	movs	r0, #128	; 0x80
    3a3e:	0600      	lsls	r0, r0, #24
    3a40:	9001      	str	r0, [sp, #4]
    3a42:	e760      	b.n	3906 <i2s_clock_unit_set_config+0x52>
    3a44:	2080      	movs	r0, #128	; 0x80
    3a46:	0580      	lsls	r0, r0, #22
    3a48:	9002      	str	r0, [sp, #8]
    3a4a:	e767      	b.n	391c <i2s_clock_unit_set_config+0x68>
    3a4c:	2080      	movs	r0, #128	; 0x80
    3a4e:	02c0      	lsls	r0, r0, #11
    3a50:	9003      	str	r0, [sp, #12]
    3a52:	e768      	b.n	3926 <i2s_clock_unit_set_config+0x72>
    3a54:	2280      	movs	r2, #128	; 0x80
    3a56:	0252      	lsls	r2, r2, #9
    3a58:	9204      	str	r2, [sp, #16]
    3a5a:	e768      	b.n	392e <i2s_clock_unit_set_config+0x7a>
    3a5c:	2280      	movs	r2, #128	; 0x80
    3a5e:	0152      	lsls	r2, r2, #5
    3a60:	9205      	str	r2, [sp, #20]
    3a62:	e769      	b.n	3938 <i2s_clock_unit_set_config+0x84>
    3a64:	2280      	movs	r2, #128	; 0x80
    3a66:	0112      	lsls	r2, r2, #4
    3a68:	9206      	str	r2, [sp, #24]
    3a6a:	e76a      	b.n	3942 <i2s_clock_unit_set_config+0x8e>
    3a6c:	2280      	movs	r2, #128	; 0x80
    3a6e:	0052      	lsls	r2, r2, #1
    3a70:	9207      	str	r2, [sp, #28]
    3a72:	e76b      	b.n	394c <i2s_clock_unit_set_config+0x98>
    3a74:	a909      	add	r1, sp, #36	; 0x24
    3a76:	7c23      	ldrb	r3, [r4, #16]
    3a78:	700b      	strb	r3, [r1, #0]
    3a7a:	7be0      	ldrb	r0, [r4, #15]
    3a7c:	4b06      	ldr	r3, [pc, #24]	; (3a98 <i2s_clock_unit_set_config+0x1e4>)
    3a7e:	4798      	blx	r3
    3a80:	e7cc      	b.n	3a1c <i2s_clock_unit_set_config+0x168>
    3a82:	a909      	add	r1, sp, #36	; 0x24
    3a84:	7ce3      	ldrb	r3, [r4, #19]
    3a86:	700b      	strb	r3, [r1, #0]
    3a88:	7ca0      	ldrb	r0, [r4, #18]
    3a8a:	4b03      	ldr	r3, [pc, #12]	; (3a98 <i2s_clock_unit_set_config+0x1e4>)
    3a8c:	4798      	blx	r3
    3a8e:	e7c8      	b.n	3a22 <i2s_clock_unit_set_config+0x16e>
    3a90:	000089d5 	.word	0x000089d5
    3a94:	00008949 	.word	0x00008949
    3a98:	00008acd 	.word	0x00008acd

00003a9c <i2s_serializer_set_config>:
    3a9c:	b5f0      	push	{r4, r5, r6, r7, lr}
    3a9e:	46de      	mov	lr, fp
    3aa0:	4657      	mov	r7, sl
    3aa2:	464e      	mov	r6, r9
    3aa4:	4645      	mov	r5, r8
    3aa6:	b5e0      	push	{r5, r6, r7, lr}
    3aa8:	b08f      	sub	sp, #60	; 0x3c
    3aaa:	0006      	movs	r6, r0
    3aac:	000d      	movs	r5, r1
    3aae:	0014      	movs	r4, r2
    3ab0:	6807      	ldr	r7, [r0, #0]
    3ab2:	8b39      	ldrh	r1, [r7, #24]
    3ab4:	783b      	ldrb	r3, [r7, #0]
    3ab6:	b2db      	uxtb	r3, r3
    3ab8:	2288      	movs	r2, #136	; 0x88
    3aba:	0052      	lsls	r2, r2, #1
    3abc:	40aa      	lsls	r2, r5
    3abe:	2005      	movs	r0, #5
    3ac0:	4211      	tst	r1, r2
    3ac2:	d006      	beq.n	3ad2 <i2s_serializer_set_config+0x36>
    3ac4:	b00f      	add	sp, #60	; 0x3c
    3ac6:	bc3c      	pop	{r2, r3, r4, r5}
    3ac8:	4690      	mov	r8, r2
    3aca:	4699      	mov	r9, r3
    3acc:	46a2      	mov	sl, r4
    3ace:	46ab      	mov	fp, r5
    3ad0:	bdf0      	pop	{r4, r5, r6, r7, pc}
    3ad2:	2204      	movs	r2, #4
    3ad4:	40aa      	lsls	r2, r5
    3ad6:	4013      	ands	r3, r2
    3ad8:	3017      	adds	r0, #23
    3ada:	2b00      	cmp	r3, #0
    3adc:	d1f2      	bne.n	3ac4 <i2s_serializer_set_config+0x28>
    3ade:	78e2      	ldrb	r2, [r4, #3]
    3ae0:	2a00      	cmp	r2, #0
    3ae2:	d000      	beq.n	3ae6 <i2s_serializer_set_config+0x4a>
    3ae4:	e0a6      	b.n	3c34 <i2s_serializer_set_config+0x198>
    3ae6:	9300      	str	r3, [sp, #0]
    3ae8:	7ce2      	ldrb	r2, [r4, #19]
    3aea:	2a00      	cmp	r2, #0
    3aec:	d000      	beq.n	3af0 <i2s_serializer_set_config+0x54>
    3aee:	e0a5      	b.n	3c3c <i2s_serializer_set_config+0x1a0>
    3af0:	9301      	str	r3, [sp, #4]
    3af2:	7922      	ldrb	r2, [r4, #4]
    3af4:	2a00      	cmp	r2, #0
    3af6:	d000      	beq.n	3afa <i2s_serializer_set_config+0x5e>
    3af8:	e0a4      	b.n	3c44 <i2s_serializer_set_config+0x1a8>
    3afa:	9302      	str	r3, [sp, #8]
    3afc:	7b22      	ldrb	r2, [r4, #12]
    3afe:	2a00      	cmp	r2, #0
    3b00:	d000      	beq.n	3b04 <i2s_serializer_set_config+0x68>
    3b02:	e0a3      	b.n	3c4c <i2s_serializer_set_config+0x1b0>
    3b04:	9303      	str	r3, [sp, #12]
    3b06:	7ae2      	ldrb	r2, [r4, #11]
    3b08:	2a00      	cmp	r2, #0
    3b0a:	d000      	beq.n	3b0e <i2s_serializer_set_config+0x72>
    3b0c:	e0a2      	b.n	3c54 <i2s_serializer_set_config+0x1b8>
    3b0e:	9304      	str	r3, [sp, #16]
    3b10:	7aa2      	ldrb	r2, [r4, #10]
    3b12:	2a00      	cmp	r2, #0
    3b14:	d000      	beq.n	3b18 <i2s_serializer_set_config+0x7c>
    3b16:	e0a1      	b.n	3c5c <i2s_serializer_set_config+0x1c0>
    3b18:	9305      	str	r3, [sp, #20]
    3b1a:	7a62      	ldrb	r2, [r4, #9]
    3b1c:	2a00      	cmp	r2, #0
    3b1e:	d000      	beq.n	3b22 <i2s_serializer_set_config+0x86>
    3b20:	e0a0      	b.n	3c64 <i2s_serializer_set_config+0x1c8>
    3b22:	9306      	str	r3, [sp, #24]
    3b24:	7a22      	ldrb	r2, [r4, #8]
    3b26:	2a00      	cmp	r2, #0
    3b28:	d000      	beq.n	3b2c <i2s_serializer_set_config+0x90>
    3b2a:	e09f      	b.n	3c6c <i2s_serializer_set_config+0x1d0>
    3b2c:	9307      	str	r3, [sp, #28]
    3b2e:	79e2      	ldrb	r2, [r4, #7]
    3b30:	2a00      	cmp	r2, #0
    3b32:	d000      	beq.n	3b36 <i2s_serializer_set_config+0x9a>
    3b34:	e09e      	b.n	3c74 <i2s_serializer_set_config+0x1d8>
    3b36:	9308      	str	r3, [sp, #32]
    3b38:	79a2      	ldrb	r2, [r4, #6]
    3b3a:	2a00      	cmp	r2, #0
    3b3c:	d000      	beq.n	3b40 <i2s_serializer_set_config+0xa4>
    3b3e:	e09d      	b.n	3c7c <i2s_serializer_set_config+0x1e0>
    3b40:	9309      	str	r3, [sp, #36]	; 0x24
    3b42:	7962      	ldrb	r2, [r4, #5]
    3b44:	2a00      	cmp	r2, #0
    3b46:	d000      	beq.n	3b4a <i2s_serializer_set_config+0xae>
    3b48:	e09c      	b.n	3c84 <i2s_serializer_set_config+0x1e8>
    3b4a:	930a      	str	r3, [sp, #40]	; 0x28
    3b4c:	7b62      	ldrb	r2, [r4, #13]
    3b4e:	0019      	movs	r1, r3
    3b50:	2a00      	cmp	r2, #0
    3b52:	d001      	beq.n	3b58 <i2s_serializer_set_config+0xbc>
    3b54:	2180      	movs	r1, #128	; 0x80
    3b56:	0209      	lsls	r1, r1, #8
    3b58:	7ba2      	ldrb	r2, [r4, #14]
    3b5a:	2a00      	cmp	r2, #0
    3b5c:	d000      	beq.n	3b60 <i2s_serializer_set_config+0xc4>
    3b5e:	e095      	b.n	3c8c <i2s_serializer_set_config+0x1f0>
    3b60:	930b      	str	r3, [sp, #44]	; 0x2c
    3b62:	7be0      	ldrb	r0, [r4, #15]
    3b64:	2280      	movs	r2, #128	; 0x80
    3b66:	4691      	mov	r9, r2
    3b68:	2800      	cmp	r0, #0
    3b6a:	d100      	bne.n	3b6e <i2s_serializer_set_config+0xd2>
    3b6c:	4699      	mov	r9, r3
    3b6e:	7ca0      	ldrb	r0, [r4, #18]
    3b70:	2210      	movs	r2, #16
    3b72:	4690      	mov	r8, r2
    3b74:	2800      	cmp	r0, #0
    3b76:	d100      	bne.n	3b7a <i2s_serializer_set_config+0xde>
    3b78:	4698      	mov	r8, r3
    3b7a:	7d22      	ldrb	r2, [r4, #20]
    3b7c:	2017      	movs	r0, #23
    3b7e:	2a01      	cmp	r2, #1
    3b80:	d8a0      	bhi.n	3ac4 <i2s_serializer_set_config+0x28>
    3b82:	2a00      	cmp	r2, #0
    3b84:	d000      	beq.n	3b88 <i2s_serializer_set_config+0xec>
    3b86:	2320      	movs	r3, #32
    3b88:	7d60      	ldrb	r0, [r4, #21]
    3b8a:	0080      	lsls	r0, r0, #2
    3b8c:	220c      	movs	r2, #12
    3b8e:	4002      	ands	r2, r0
    3b90:	4692      	mov	sl, r2
    3b92:	7c20      	ldrb	r0, [r4, #16]
    3b94:	0200      	lsls	r0, r0, #8
    3b96:	22e0      	movs	r2, #224	; 0xe0
    3b98:	00d2      	lsls	r2, r2, #3
    3b9a:	4010      	ands	r0, r2
    3b9c:	4652      	mov	r2, sl
    3b9e:	4302      	orrs	r2, r0
    3ba0:	4692      	mov	sl, r2
    3ba2:	7da2      	ldrb	r2, [r4, #22]
    3ba4:	2003      	movs	r0, #3
    3ba6:	4010      	ands	r0, r2
    3ba8:	4652      	mov	r2, sl
    3baa:	4310      	orrs	r0, r2
    3bac:	4684      	mov	ip, r0
    3bae:	7c62      	ldrb	r2, [r4, #17]
    3bb0:	0352      	lsls	r2, r2, #13
    3bb2:	4692      	mov	sl, r2
    3bb4:	22c0      	movs	r2, #192	; 0xc0
    3bb6:	01d2      	lsls	r2, r2, #7
    3bb8:	4693      	mov	fp, r2
    3bba:	4652      	mov	r2, sl
    3bbc:	4658      	mov	r0, fp
    3bbe:	4002      	ands	r2, r0
    3bc0:	4660      	mov	r0, ip
    3bc2:	4310      	orrs	r0, r2
    3bc4:	9a00      	ldr	r2, [sp, #0]
    3bc6:	4310      	orrs	r0, r2
    3bc8:	9a01      	ldr	r2, [sp, #4]
    3bca:	4310      	orrs	r0, r2
    3bcc:	9a02      	ldr	r2, [sp, #8]
    3bce:	4310      	orrs	r0, r2
    3bd0:	9a03      	ldr	r2, [sp, #12]
    3bd2:	4310      	orrs	r0, r2
    3bd4:	9a04      	ldr	r2, [sp, #16]
    3bd6:	4310      	orrs	r0, r2
    3bd8:	9a05      	ldr	r2, [sp, #20]
    3bda:	4310      	orrs	r0, r2
    3bdc:	9a06      	ldr	r2, [sp, #24]
    3bde:	4310      	orrs	r0, r2
    3be0:	9a07      	ldr	r2, [sp, #28]
    3be2:	4310      	orrs	r0, r2
    3be4:	9a08      	ldr	r2, [sp, #32]
    3be6:	4310      	orrs	r0, r2
    3be8:	9a09      	ldr	r2, [sp, #36]	; 0x24
    3bea:	4310      	orrs	r0, r2
    3bec:	9a0a      	ldr	r2, [sp, #40]	; 0x28
    3bee:	4310      	orrs	r0, r2
    3bf0:	4301      	orrs	r1, r0
    3bf2:	9a0b      	ldr	r2, [sp, #44]	; 0x2c
    3bf4:	430a      	orrs	r2, r1
    3bf6:	4649      	mov	r1, r9
    3bf8:	430a      	orrs	r2, r1
    3bfa:	4641      	mov	r1, r8
    3bfc:	430a      	orrs	r2, r1
    3bfe:	4313      	orrs	r3, r2
    3c00:	002a      	movs	r2, r5
    3c02:	3208      	adds	r2, #8
    3c04:	0092      	lsls	r2, r2, #2
    3c06:	51d3      	str	r3, [r2, r7]
    3c08:	ab0d      	add	r3, sp, #52	; 0x34
    3c0a:	2200      	movs	r2, #0
    3c0c:	705a      	strb	r2, [r3, #1]
    3c0e:	2101      	movs	r1, #1
    3c10:	7099      	strb	r1, [r3, #2]
    3c12:	70da      	strb	r2, [r3, #3]
    3c14:	78a3      	ldrb	r3, [r4, #2]
    3c16:	2b00      	cmp	r3, #0
    3c18:	d13c      	bne.n	3c94 <i2s_serializer_set_config+0x1f8>
    3c1a:	7da1      	ldrb	r1, [r4, #22]
    3c1c:	00eb      	lsls	r3, r5, #3
    3c1e:	1b5a      	subs	r2, r3, r5
    3c20:	0092      	lsls	r2, r2, #2
    3c22:	18b2      	adds	r2, r6, r2
    3c24:	76d1      	strb	r1, [r2, #27]
    3c26:	7c22      	ldrb	r2, [r4, #16]
    3c28:	1b5d      	subs	r5, r3, r5
    3c2a:	00ad      	lsls	r5, r5, #2
    3c2c:	1976      	adds	r6, r6, r5
    3c2e:	7732      	strb	r2, [r6, #28]
    3c30:	2000      	movs	r0, #0
    3c32:	e747      	b.n	3ac4 <i2s_serializer_set_config+0x28>
    3c34:	2280      	movs	r2, #128	; 0x80
    3c36:	04d2      	lsls	r2, r2, #19
    3c38:	9200      	str	r2, [sp, #0]
    3c3a:	e755      	b.n	3ae8 <i2s_serializer_set_config+0x4c>
    3c3c:	2280      	movs	r2, #128	; 0x80
    3c3e:	0492      	lsls	r2, r2, #18
    3c40:	9201      	str	r2, [sp, #4]
    3c42:	e756      	b.n	3af2 <i2s_serializer_set_config+0x56>
    3c44:	2280      	movs	r2, #128	; 0x80
    3c46:	0452      	lsls	r2, r2, #17
    3c48:	9202      	str	r2, [sp, #8]
    3c4a:	e757      	b.n	3afc <i2s_serializer_set_config+0x60>
    3c4c:	2280      	movs	r2, #128	; 0x80
    3c4e:	0412      	lsls	r2, r2, #16
    3c50:	9203      	str	r2, [sp, #12]
    3c52:	e758      	b.n	3b06 <i2s_serializer_set_config+0x6a>
    3c54:	2280      	movs	r2, #128	; 0x80
    3c56:	03d2      	lsls	r2, r2, #15
    3c58:	9204      	str	r2, [sp, #16]
    3c5a:	e759      	b.n	3b10 <i2s_serializer_set_config+0x74>
    3c5c:	2280      	movs	r2, #128	; 0x80
    3c5e:	0392      	lsls	r2, r2, #14
    3c60:	9205      	str	r2, [sp, #20]
    3c62:	e75a      	b.n	3b1a <i2s_serializer_set_config+0x7e>
    3c64:	2280      	movs	r2, #128	; 0x80
    3c66:	0352      	lsls	r2, r2, #13
    3c68:	9206      	str	r2, [sp, #24]
    3c6a:	e75b      	b.n	3b24 <i2s_serializer_set_config+0x88>
    3c6c:	2280      	movs	r2, #128	; 0x80
    3c6e:	0312      	lsls	r2, r2, #12
    3c70:	9207      	str	r2, [sp, #28]
    3c72:	e75c      	b.n	3b2e <i2s_serializer_set_config+0x92>
    3c74:	2280      	movs	r2, #128	; 0x80
    3c76:	02d2      	lsls	r2, r2, #11
    3c78:	9208      	str	r2, [sp, #32]
    3c7a:	e75d      	b.n	3b38 <i2s_serializer_set_config+0x9c>
    3c7c:	2280      	movs	r2, #128	; 0x80
    3c7e:	0292      	lsls	r2, r2, #10
    3c80:	9209      	str	r2, [sp, #36]	; 0x24
    3c82:	e75e      	b.n	3b42 <i2s_serializer_set_config+0xa6>
    3c84:	2280      	movs	r2, #128	; 0x80
    3c86:	0252      	lsls	r2, r2, #9
    3c88:	920a      	str	r2, [sp, #40]	; 0x28
    3c8a:	e75f      	b.n	3b4c <i2s_serializer_set_config+0xb0>
    3c8c:	2280      	movs	r2, #128	; 0x80
    3c8e:	0152      	lsls	r2, r2, #5
    3c90:	920b      	str	r2, [sp, #44]	; 0x2c
    3c92:	e766      	b.n	3b62 <i2s_serializer_set_config+0xc6>
    3c94:	a90d      	add	r1, sp, #52	; 0x34
    3c96:	7863      	ldrb	r3, [r4, #1]
    3c98:	700b      	strb	r3, [r1, #0]
    3c9a:	7820      	ldrb	r0, [r4, #0]
    3c9c:	4b01      	ldr	r3, [pc, #4]	; (3ca4 <i2s_serializer_set_config+0x208>)
    3c9e:	4798      	blx	r3
    3ca0:	e7bb      	b.n	3c1a <i2s_serializer_set_config+0x17e>
    3ca2:	46c0      	nop			; (mov r8, r8)
    3ca4:	00008acd 	.word	0x00008acd

00003ca8 <rtc_count_is_syncing>:
    3ca8:	6803      	ldr	r3, [r0, #0]
    3caa:	7a98      	ldrb	r0, [r3, #10]
    3cac:	09c0      	lsrs	r0, r0, #7
    3cae:	4770      	bx	lr

00003cb0 <rtc_count_enable>:
    3cb0:	b570      	push	{r4, r5, r6, lr}
    3cb2:	0004      	movs	r4, r0
    3cb4:	6806      	ldr	r6, [r0, #0]
    3cb6:	2208      	movs	r2, #8
    3cb8:	4b05      	ldr	r3, [pc, #20]	; (3cd0 <rtc_count_enable+0x20>)
    3cba:	601a      	str	r2, [r3, #0]
    3cbc:	4d05      	ldr	r5, [pc, #20]	; (3cd4 <rtc_count_enable+0x24>)
    3cbe:	0020      	movs	r0, r4
    3cc0:	47a8      	blx	r5
    3cc2:	2800      	cmp	r0, #0
    3cc4:	d1fb      	bne.n	3cbe <rtc_count_enable+0xe>
    3cc6:	8833      	ldrh	r3, [r6, #0]
    3cc8:	2202      	movs	r2, #2
    3cca:	4313      	orrs	r3, r2
    3ccc:	8033      	strh	r3, [r6, #0]
    3cce:	bd70      	pop	{r4, r5, r6, pc}
    3cd0:	e000e100 	.word	0xe000e100
    3cd4:	00003ca9 	.word	0x00003ca9

00003cd8 <rtc_count_disable>:
    3cd8:	b570      	push	{r4, r5, r6, lr}
    3cda:	0004      	movs	r4, r0
    3cdc:	6806      	ldr	r6, [r0, #0]
    3cde:	2108      	movs	r1, #8
    3ce0:	2380      	movs	r3, #128	; 0x80
    3ce2:	4a07      	ldr	r2, [pc, #28]	; (3d00 <rtc_count_disable+0x28>)
    3ce4:	50d1      	str	r1, [r2, r3]
    3ce6:	4d07      	ldr	r5, [pc, #28]	; (3d04 <rtc_count_disable+0x2c>)
    3ce8:	0020      	movs	r0, r4
    3cea:	47a8      	blx	r5
    3cec:	2800      	cmp	r0, #0
    3cee:	d1fb      	bne.n	3ce8 <rtc_count_disable+0x10>
    3cf0:	23c1      	movs	r3, #193	; 0xc1
    3cf2:	71b3      	strb	r3, [r6, #6]
    3cf4:	7233      	strb	r3, [r6, #8]
    3cf6:	8833      	ldrh	r3, [r6, #0]
    3cf8:	2202      	movs	r2, #2
    3cfa:	4393      	bics	r3, r2
    3cfc:	8033      	strh	r3, [r6, #0]
    3cfe:	bd70      	pop	{r4, r5, r6, pc}
    3d00:	e000e100 	.word	0xe000e100
    3d04:	00003ca9 	.word	0x00003ca9

00003d08 <rtc_count_reset>:
    3d08:	b570      	push	{r4, r5, r6, lr}
    3d0a:	0004      	movs	r4, r0
    3d0c:	6806      	ldr	r6, [r0, #0]
    3d0e:	4b07      	ldr	r3, [pc, #28]	; (3d2c <rtc_count_reset+0x24>)
    3d10:	4798      	blx	r3
    3d12:	2300      	movs	r3, #0
    3d14:	82a3      	strh	r3, [r4, #20]
    3d16:	82e3      	strh	r3, [r4, #22]
    3d18:	4d05      	ldr	r5, [pc, #20]	; (3d30 <rtc_count_reset+0x28>)
    3d1a:	0020      	movs	r0, r4
    3d1c:	47a8      	blx	r5
    3d1e:	2800      	cmp	r0, #0
    3d20:	d1fb      	bne.n	3d1a <rtc_count_reset+0x12>
    3d22:	8833      	ldrh	r3, [r6, #0]
    3d24:	2201      	movs	r2, #1
    3d26:	4313      	orrs	r3, r2
    3d28:	8033      	strh	r3, [r6, #0]
    3d2a:	bd70      	pop	{r4, r5, r6, pc}
    3d2c:	00003cd9 	.word	0x00003cd9
    3d30:	00003ca9 	.word	0x00003ca9

00003d34 <rtc_count_set_compare>:
    3d34:	b5f0      	push	{r4, r5, r6, r7, lr}
    3d36:	b083      	sub	sp, #12
    3d38:	0004      	movs	r4, r0
    3d3a:	9101      	str	r1, [sp, #4]
    3d3c:	0015      	movs	r5, r2
    3d3e:	6806      	ldr	r6, [r0, #0]
    3d40:	4f11      	ldr	r7, [pc, #68]	; (3d88 <rtc_count_set_compare+0x54>)
    3d42:	0020      	movs	r0, r4
    3d44:	47b8      	blx	r7
    3d46:	2800      	cmp	r0, #0
    3d48:	d1fb      	bne.n	3d42 <rtc_count_set_compare+0xe>
    3d4a:	7923      	ldrb	r3, [r4, #4]
    3d4c:	2b00      	cmp	r3, #0
    3d4e:	d00a      	beq.n	3d66 <rtc_count_set_compare+0x32>
    3d50:	2b01      	cmp	r3, #1
    3d52:	d116      	bne.n	3d82 <rtc_count_set_compare+0x4e>
    3d54:	3017      	adds	r0, #23
    3d56:	2d01      	cmp	r5, #1
    3d58:	d814      	bhi.n	3d84 <rtc_count_set_compare+0x50>
    3d5a:	3506      	adds	r5, #6
    3d5c:	00ad      	lsls	r5, r5, #2
    3d5e:	9b01      	ldr	r3, [sp, #4]
    3d60:	51ab      	str	r3, [r5, r6]
    3d62:	2000      	movs	r0, #0
    3d64:	e00e      	b.n	3d84 <rtc_count_set_compare+0x50>
    3d66:	2017      	movs	r0, #23
    3d68:	2d02      	cmp	r5, #2
    3d6a:	d80b      	bhi.n	3d84 <rtc_count_set_compare+0x50>
    3d6c:	4b07      	ldr	r3, [pc, #28]	; (3d8c <rtc_count_set_compare+0x58>)
    3d6e:	9a01      	ldr	r2, [sp, #4]
    3d70:	429a      	cmp	r2, r3
    3d72:	d807      	bhi.n	3d84 <rtc_count_set_compare+0x50>
    3d74:	466b      	mov	r3, sp
    3d76:	889b      	ldrh	r3, [r3, #4]
    3d78:	350c      	adds	r5, #12
    3d7a:	006d      	lsls	r5, r5, #1
    3d7c:	53ab      	strh	r3, [r5, r6]
    3d7e:	2000      	movs	r0, #0
    3d80:	e000      	b.n	3d84 <rtc_count_set_compare+0x50>
    3d82:	201a      	movs	r0, #26
    3d84:	b003      	add	sp, #12
    3d86:	bdf0      	pop	{r4, r5, r6, r7, pc}
    3d88:	00003ca9 	.word	0x00003ca9
    3d8c:	0000ffff 	.word	0x0000ffff

00003d90 <rtc_count_init>:
    3d90:	b5f0      	push	{r4, r5, r6, r7, lr}
    3d92:	b083      	sub	sp, #12
    3d94:	0004      	movs	r4, r0
    3d96:	0016      	movs	r6, r2
    3d98:	6001      	str	r1, [r0, #0]
    3d9a:	4a2e      	ldr	r2, [pc, #184]	; (3e54 <rtc_count_init+0xc4>)
    3d9c:	6993      	ldr	r3, [r2, #24]
    3d9e:	2120      	movs	r1, #32
    3da0:	430b      	orrs	r3, r1
    3da2:	6193      	str	r3, [r2, #24]
    3da4:	a901      	add	r1, sp, #4
    3da6:	2302      	movs	r3, #2
    3da8:	700b      	strb	r3, [r1, #0]
    3daa:	2004      	movs	r0, #4
    3dac:	4b2a      	ldr	r3, [pc, #168]	; (3e58 <rtc_count_init+0xc8>)
    3dae:	4798      	blx	r3
    3db0:	2004      	movs	r0, #4
    3db2:	4b2a      	ldr	r3, [pc, #168]	; (3e5c <rtc_count_init+0xcc>)
    3db4:	4798      	blx	r3
    3db6:	0020      	movs	r0, r4
    3db8:	4b29      	ldr	r3, [pc, #164]	; (3e60 <rtc_count_init+0xd0>)
    3dba:	4798      	blx	r3
    3dbc:	78b3      	ldrb	r3, [r6, #2]
    3dbe:	7123      	strb	r3, [r4, #4]
    3dc0:	7933      	ldrb	r3, [r6, #4]
    3dc2:	7163      	strb	r3, [r4, #5]
    3dc4:	4b27      	ldr	r3, [pc, #156]	; (3e64 <rtc_count_init+0xd4>)
    3dc6:	601c      	str	r4, [r3, #0]
    3dc8:	6827      	ldr	r7, [r4, #0]
    3dca:	8833      	ldrh	r3, [r6, #0]
    3dcc:	803b      	strh	r3, [r7, #0]
    3dce:	78b3      	ldrb	r3, [r6, #2]
    3dd0:	2b00      	cmp	r3, #0
    3dd2:	d021      	beq.n	3e18 <rtc_count_init+0x88>
    3dd4:	2017      	movs	r0, #23
    3dd6:	2b01      	cmp	r3, #1
    3dd8:	d11c      	bne.n	3e14 <rtc_count_init+0x84>
    3dda:	883b      	ldrh	r3, [r7, #0]
    3ddc:	b29b      	uxth	r3, r3
    3dde:	803b      	strh	r3, [r7, #0]
    3de0:	78f3      	ldrb	r3, [r6, #3]
    3de2:	2b00      	cmp	r3, #0
    3de4:	d003      	beq.n	3dee <rtc_count_init+0x5e>
    3de6:	883b      	ldrh	r3, [r7, #0]
    3de8:	2280      	movs	r2, #128	; 0x80
    3dea:	4313      	orrs	r3, r2
    3dec:	803b      	strh	r3, [r7, #0]
    3dee:	4d1e      	ldr	r5, [pc, #120]	; (3e68 <rtc_count_init+0xd8>)
    3df0:	0020      	movs	r0, r4
    3df2:	47a8      	blx	r5
    3df4:	2800      	cmp	r0, #0
    3df6:	d1fb      	bne.n	3df0 <rtc_count_init+0x60>
    3df8:	2200      	movs	r2, #0
    3dfa:	68b1      	ldr	r1, [r6, #8]
    3dfc:	0020      	movs	r0, r4
    3dfe:	4b1b      	ldr	r3, [pc, #108]	; (3e6c <rtc_count_init+0xdc>)
    3e00:	4798      	blx	r3
    3e02:	7933      	ldrb	r3, [r6, #4]
    3e04:	2000      	movs	r0, #0
    3e06:	2b00      	cmp	r3, #0
    3e08:	d004      	beq.n	3e14 <rtc_count_init+0x84>
    3e0a:	887b      	ldrh	r3, [r7, #2]
    3e0c:	2280      	movs	r2, #128	; 0x80
    3e0e:	01d2      	lsls	r2, r2, #7
    3e10:	4313      	orrs	r3, r2
    3e12:	807b      	strh	r3, [r7, #2]
    3e14:	b003      	add	sp, #12
    3e16:	bdf0      	pop	{r4, r5, r6, r7, pc}
    3e18:	883b      	ldrh	r3, [r7, #0]
    3e1a:	2204      	movs	r2, #4
    3e1c:	4313      	orrs	r3, r2
    3e1e:	803b      	strh	r3, [r7, #0]
    3e20:	78f3      	ldrb	r3, [r6, #3]
    3e22:	2017      	movs	r0, #23
    3e24:	2b00      	cmp	r3, #0
    3e26:	d1f5      	bne.n	3e14 <rtc_count_init+0x84>
    3e28:	4d0f      	ldr	r5, [pc, #60]	; (3e68 <rtc_count_init+0xd8>)
    3e2a:	0020      	movs	r0, r4
    3e2c:	47a8      	blx	r5
    3e2e:	2800      	cmp	r0, #0
    3e30:	d1fb      	bne.n	3e2a <rtc_count_init+0x9a>
    3e32:	2200      	movs	r2, #0
    3e34:	68b1      	ldr	r1, [r6, #8]
    3e36:	0020      	movs	r0, r4
    3e38:	4b0c      	ldr	r3, [pc, #48]	; (3e6c <rtc_count_init+0xdc>)
    3e3a:	4798      	blx	r3
    3e3c:	4d0a      	ldr	r5, [pc, #40]	; (3e68 <rtc_count_init+0xd8>)
    3e3e:	0020      	movs	r0, r4
    3e40:	47a8      	blx	r5
    3e42:	2800      	cmp	r0, #0
    3e44:	d1fb      	bne.n	3e3e <rtc_count_init+0xae>
    3e46:	2201      	movs	r2, #1
    3e48:	68f1      	ldr	r1, [r6, #12]
    3e4a:	0020      	movs	r0, r4
    3e4c:	4b07      	ldr	r3, [pc, #28]	; (3e6c <rtc_count_init+0xdc>)
    3e4e:	4798      	blx	r3
    3e50:	e7d7      	b.n	3e02 <rtc_count_init+0x72>
    3e52:	46c0      	nop			; (mov r8, r8)
    3e54:	40000400 	.word	0x40000400
    3e58:	000089d5 	.word	0x000089d5
    3e5c:	00008949 	.word	0x00008949
    3e60:	00003d09 	.word	0x00003d09
    3e64:	20002620 	.word	0x20002620
    3e68:	00003ca9 	.word	0x00003ca9
    3e6c:	00003d35 	.word	0x00003d35

00003e70 <rtc_count_set_period>:
    3e70:	b5f8      	push	{r3, r4, r5, r6, r7, lr}
    3e72:	0004      	movs	r4, r0
    3e74:	000e      	movs	r6, r1
    3e76:	7903      	ldrb	r3, [r0, #4]
    3e78:	2015      	movs	r0, #21
    3e7a:	2b00      	cmp	r3, #0
    3e7c:	d000      	beq.n	3e80 <rtc_count_set_period+0x10>
    3e7e:	bdf8      	pop	{r3, r4, r5, r6, r7, pc}
    3e80:	6827      	ldr	r7, [r4, #0]
    3e82:	4d03      	ldr	r5, [pc, #12]	; (3e90 <rtc_count_set_period+0x20>)
    3e84:	0020      	movs	r0, r4
    3e86:	47a8      	blx	r5
    3e88:	2800      	cmp	r0, #0
    3e8a:	d1fb      	bne.n	3e84 <rtc_count_set_period+0x14>
    3e8c:	82be      	strh	r6, [r7, #20]
    3e8e:	e7f6      	b.n	3e7e <rtc_count_set_period+0xe>
    3e90:	00003ca9 	.word	0x00003ca9

00003e94 <rtc_count_register_callback>:
    3e94:	2a02      	cmp	r2, #2
    3e96:	d00b      	beq.n	3eb0 <rtc_count_register_callback+0x1c>
    3e98:	7903      	ldrb	r3, [r0, #4]
    3e9a:	2b00      	cmp	r3, #0
    3e9c:	d005      	beq.n	3eaa <rtc_count_register_callback+0x16>
    3e9e:	2b01      	cmp	r3, #1
    3ea0:	d112      	bne.n	3ec8 <rtc_count_register_callback+0x34>
    3ea2:	3316      	adds	r3, #22
    3ea4:	2a01      	cmp	r2, #1
    3ea6:	d80d      	bhi.n	3ec4 <rtc_count_register_callback+0x30>
    3ea8:	e002      	b.n	3eb0 <rtc_count_register_callback+0x1c>
    3eaa:	2317      	movs	r3, #23
    3eac:	2a02      	cmp	r2, #2
    3eae:	d809      	bhi.n	3ec4 <rtc_count_register_callback+0x30>
    3eb0:	1c93      	adds	r3, r2, #2
    3eb2:	009b      	lsls	r3, r3, #2
    3eb4:	5019      	str	r1, [r3, r0]
    3eb6:	8a83      	ldrh	r3, [r0, #20]
    3eb8:	2101      	movs	r1, #1
    3eba:	4091      	lsls	r1, r2
    3ebc:	430b      	orrs	r3, r1
    3ebe:	b29b      	uxth	r3, r3
    3ec0:	8283      	strh	r3, [r0, #20]
    3ec2:	2300      	movs	r3, #0
    3ec4:	0018      	movs	r0, r3
    3ec6:	4770      	bx	lr
    3ec8:	2317      	movs	r3, #23
    3eca:	e7fb      	b.n	3ec4 <rtc_count_register_callback+0x30>

00003ecc <rtc_count_enable_callback>:
    3ecc:	b510      	push	{r4, lr}
    3ece:	6804      	ldr	r4, [r0, #0]
    3ed0:	2902      	cmp	r1, #2
    3ed2:	d00b      	beq.n	3eec <rtc_count_enable_callback+0x20>
    3ed4:	2201      	movs	r2, #1
    3ed6:	408a      	lsls	r2, r1
    3ed8:	2303      	movs	r3, #3
    3eda:	4013      	ands	r3, r2
    3edc:	71e3      	strb	r3, [r4, #7]
    3ede:	8ac3      	ldrh	r3, [r0, #22]
    3ee0:	2201      	movs	r2, #1
    3ee2:	408a      	lsls	r2, r1
    3ee4:	4313      	orrs	r3, r2
    3ee6:	b29b      	uxth	r3, r3
    3ee8:	82c3      	strh	r3, [r0, #22]
    3eea:	bd10      	pop	{r4, pc}
    3eec:	2380      	movs	r3, #128	; 0x80
    3eee:	71e3      	strb	r3, [r4, #7]
    3ef0:	e7f5      	b.n	3ede <rtc_count_enable_callback+0x12>
	...

00003ef4 <RTC_Handler>:
    3ef4:	b510      	push	{r4, lr}
    3ef6:	4b14      	ldr	r3, [pc, #80]	; (3f48 <RTC_Handler+0x54>)
    3ef8:	681a      	ldr	r2, [r3, #0]
    3efa:	6814      	ldr	r4, [r2, #0]
    3efc:	8ad1      	ldrh	r1, [r2, #22]
    3efe:	8a93      	ldrh	r3, [r2, #20]
    3f00:	4019      	ands	r1, r3
    3f02:	7a20      	ldrb	r0, [r4, #8]
    3f04:	79e3      	ldrb	r3, [r4, #7]
    3f06:	4003      	ands	r3, r0
    3f08:	b258      	sxtb	r0, r3
    3f0a:	2800      	cmp	r0, #0
    3f0c:	db06      	blt.n	3f1c <RTC_Handler+0x28>
    3f0e:	07d8      	lsls	r0, r3, #31
    3f10:	d50f      	bpl.n	3f32 <RTC_Handler+0x3e>
    3f12:	07cb      	lsls	r3, r1, #31
    3f14:	d40a      	bmi.n	3f2c <RTC_Handler+0x38>
    3f16:	2301      	movs	r3, #1
    3f18:	7223      	strb	r3, [r4, #8]
    3f1a:	bd10      	pop	{r4, pc}
    3f1c:	074b      	lsls	r3, r1, #29
    3f1e:	d402      	bmi.n	3f26 <RTC_Handler+0x32>
    3f20:	2380      	movs	r3, #128	; 0x80
    3f22:	7223      	strb	r3, [r4, #8]
    3f24:	e7f9      	b.n	3f1a <RTC_Handler+0x26>
    3f26:	6913      	ldr	r3, [r2, #16]
    3f28:	4798      	blx	r3
    3f2a:	e7f9      	b.n	3f20 <RTC_Handler+0x2c>
    3f2c:	6893      	ldr	r3, [r2, #8]
    3f2e:	4798      	blx	r3
    3f30:	e7f1      	b.n	3f16 <RTC_Handler+0x22>
    3f32:	079b      	lsls	r3, r3, #30
    3f34:	d5f1      	bpl.n	3f1a <RTC_Handler+0x26>
    3f36:	078b      	lsls	r3, r1, #30
    3f38:	d402      	bmi.n	3f40 <RTC_Handler+0x4c>
    3f3a:	2302      	movs	r3, #2
    3f3c:	7223      	strb	r3, [r4, #8]
    3f3e:	e7ec      	b.n	3f1a <RTC_Handler+0x26>
    3f40:	68d3      	ldr	r3, [r2, #12]
    3f42:	4798      	blx	r3
    3f44:	e7f9      	b.n	3f3a <RTC_Handler+0x46>
    3f46:	46c0      	nop			; (mov r8, r8)
    3f48:	20002620 	.word	0x20002620

00003f4c <_i2c_master_wait_for_sync>:
    3f4c:	6801      	ldr	r1, [r0, #0]
    3f4e:	2207      	movs	r2, #7
    3f50:	69cb      	ldr	r3, [r1, #28]
    3f52:	421a      	tst	r2, r3
    3f54:	d1fc      	bne.n	3f50 <_i2c_master_wait_for_sync+0x4>
    3f56:	4770      	bx	lr

00003f58 <i2c_master_init>:
    3f58:	b5f0      	push	{r4, r5, r6, r7, lr}
    3f5a:	46de      	mov	lr, fp
    3f5c:	4657      	mov	r7, sl
    3f5e:	464e      	mov	r6, r9
    3f60:	4645      	mov	r5, r8
    3f62:	b5e0      	push	{r5, r6, r7, lr}
    3f64:	b08d      	sub	sp, #52	; 0x34
    3f66:	0006      	movs	r6, r0
    3f68:	000f      	movs	r7, r1
    3f6a:	0014      	movs	r4, r2
    3f6c:	6031      	str	r1, [r6, #0]
    3f6e:	0008      	movs	r0, r1
    3f70:	4b9e      	ldr	r3, [pc, #632]	; (41ec <i2c_master_init+0x294>)
    3f72:	4798      	blx	r3
    3f74:	4a9e      	ldr	r2, [pc, #632]	; (41f0 <i2c_master_init+0x298>)
    3f76:	6a11      	ldr	r1, [r2, #32]
    3f78:	1c85      	adds	r5, r0, #2
    3f7a:	2301      	movs	r3, #1
    3f7c:	40ab      	lsls	r3, r5
    3f7e:	430b      	orrs	r3, r1
    3f80:	6213      	str	r3, [r2, #32]
    3f82:	a90b      	add	r1, sp, #44	; 0x2c
    3f84:	7b23      	ldrb	r3, [r4, #12]
    3f86:	700b      	strb	r3, [r1, #0]
    3f88:	3014      	adds	r0, #20
    3f8a:	b2c5      	uxtb	r5, r0
    3f8c:	0028      	movs	r0, r5
    3f8e:	4b99      	ldr	r3, [pc, #612]	; (41f4 <i2c_master_init+0x29c>)
    3f90:	4798      	blx	r3
    3f92:	0028      	movs	r0, r5
    3f94:	4b98      	ldr	r3, [pc, #608]	; (41f8 <i2c_master_init+0x2a0>)
    3f96:	4798      	blx	r3
    3f98:	7b20      	ldrb	r0, [r4, #12]
    3f9a:	2100      	movs	r1, #0
    3f9c:	4b97      	ldr	r3, [pc, #604]	; (41fc <i2c_master_init+0x2a4>)
    3f9e:	4798      	blx	r3
    3fa0:	683b      	ldr	r3, [r7, #0]
    3fa2:	201c      	movs	r0, #28
    3fa4:	079b      	lsls	r3, r3, #30
    3fa6:	d506      	bpl.n	3fb6 <i2c_master_init+0x5e>
    3fa8:	b00d      	add	sp, #52	; 0x34
    3faa:	bc3c      	pop	{r2, r3, r4, r5}
    3fac:	4690      	mov	r8, r2
    3fae:	4699      	mov	r9, r3
    3fb0:	46a2      	mov	sl, r4
    3fb2:	46ab      	mov	fp, r5
    3fb4:	bdf0      	pop	{r4, r5, r6, r7, pc}
    3fb6:	683b      	ldr	r3, [r7, #0]
    3fb8:	3817      	subs	r0, #23
    3fba:	07db      	lsls	r3, r3, #31
    3fbc:	d4f4      	bmi.n	3fa8 <i2c_master_init+0x50>
    3fbe:	6830      	ldr	r0, [r6, #0]
    3fc0:	4b8a      	ldr	r3, [pc, #552]	; (41ec <i2c_master_init+0x294>)
    3fc2:	4699      	mov	r9, r3
    3fc4:	4798      	blx	r3
    3fc6:	0005      	movs	r5, r0
    3fc8:	498d      	ldr	r1, [pc, #564]	; (4200 <i2c_master_init+0x2a8>)
    3fca:	4b8e      	ldr	r3, [pc, #568]	; (4204 <i2c_master_init+0x2ac>)
    3fcc:	4798      	blx	r3
    3fce:	00ad      	lsls	r5, r5, #2
    3fd0:	4b8d      	ldr	r3, [pc, #564]	; (4208 <i2c_master_init+0x2b0>)
    3fd2:	50ee      	str	r6, [r5, r3]
    3fd4:	2300      	movs	r3, #0
    3fd6:	7633      	strb	r3, [r6, #24]
    3fd8:	7673      	strb	r3, [r6, #25]
    3fda:	2500      	movs	r5, #0
    3fdc:	8373      	strh	r3, [r6, #26]
    3fde:	83b3      	strh	r3, [r6, #28]
    3fe0:	2225      	movs	r2, #37	; 0x25
    3fe2:	54b5      	strb	r5, [r6, r2]
    3fe4:	6233      	str	r3, [r6, #32]
    3fe6:	3314      	adds	r3, #20
    3fe8:	603b      	str	r3, [r7, #0]
    3fea:	6833      	ldr	r3, [r6, #0]
    3fec:	4698      	mov	r8, r3
    3fee:	0018      	movs	r0, r3
    3ff0:	47c8      	blx	r9
    3ff2:	4681      	mov	r9, r0
    3ff4:	2380      	movs	r3, #128	; 0x80
    3ff6:	aa0a      	add	r2, sp, #40	; 0x28
    3ff8:	7013      	strb	r3, [r2, #0]
    3ffa:	7055      	strb	r5, [r2, #1]
    3ffc:	2301      	movs	r3, #1
    3ffe:	7093      	strb	r3, [r2, #2]
    4000:	70d5      	strb	r5, [r2, #3]
    4002:	69e0      	ldr	r0, [r4, #28]
    4004:	6a27      	ldr	r7, [r4, #32]
    4006:	2800      	cmp	r0, #0
    4008:	d100      	bne.n	400c <i2c_master_init+0xb4>
    400a:	e0ac      	b.n	4166 <i2c_master_init+0x20e>
    400c:	ab0a      	add	r3, sp, #40	; 0x28
    400e:	7018      	strb	r0, [r3, #0]
    4010:	2302      	movs	r3, #2
    4012:	aa0a      	add	r2, sp, #40	; 0x28
    4014:	7053      	strb	r3, [r2, #1]
    4016:	0c00      	lsrs	r0, r0, #16
    4018:	b2c0      	uxtb	r0, r0
    401a:	0011      	movs	r1, r2
    401c:	4b7b      	ldr	r3, [pc, #492]	; (420c <i2c_master_init+0x2b4>)
    401e:	4798      	blx	r3
    4020:	2f00      	cmp	r7, #0
    4022:	d100      	bne.n	4026 <i2c_master_init+0xce>
    4024:	e0a4      	b.n	4170 <i2c_master_init+0x218>
    4026:	ab0a      	add	r3, sp, #40	; 0x28
    4028:	701f      	strb	r7, [r3, #0]
    402a:	2302      	movs	r3, #2
    402c:	aa0a      	add	r2, sp, #40	; 0x28
    402e:	7053      	strb	r3, [r2, #1]
    4030:	0c3f      	lsrs	r7, r7, #16
    4032:	b2f8      	uxtb	r0, r7
    4034:	0011      	movs	r1, r2
    4036:	4b75      	ldr	r3, [pc, #468]	; (420c <i2c_master_init+0x2b4>)
    4038:	4798      	blx	r3
    403a:	8aa3      	ldrh	r3, [r4, #20]
    403c:	80f3      	strh	r3, [r6, #6]
    403e:	8ae3      	ldrh	r3, [r4, #22]
    4040:	8133      	strh	r3, [r6, #8]
    4042:	7e23      	ldrb	r3, [r4, #24]
    4044:	2280      	movs	r2, #128	; 0x80
    4046:	2b00      	cmp	r3, #0
    4048:	d104      	bne.n	4054 <i2c_master_init+0xfc>
    404a:	4b71      	ldr	r3, [pc, #452]	; (4210 <i2c_master_init+0x2b8>)
    404c:	789b      	ldrb	r3, [r3, #2]
    404e:	079b      	lsls	r3, r3, #30
    4050:	0fdb      	lsrs	r3, r3, #31
    4052:	01da      	lsls	r2, r3, #7
    4054:	68a1      	ldr	r1, [r4, #8]
    4056:	6923      	ldr	r3, [r4, #16]
    4058:	430b      	orrs	r3, r1
    405a:	4313      	orrs	r3, r2
    405c:	2224      	movs	r2, #36	; 0x24
    405e:	5ca2      	ldrb	r2, [r4, r2]
    4060:	2a00      	cmp	r2, #0
    4062:	d002      	beq.n	406a <i2c_master_init+0x112>
    4064:	2280      	movs	r2, #128	; 0x80
    4066:	05d2      	lsls	r2, r2, #23
    4068:	4313      	orrs	r3, r2
    406a:	6aa2      	ldr	r2, [r4, #40]	; 0x28
    406c:	4313      	orrs	r3, r2
    406e:	222c      	movs	r2, #44	; 0x2c
    4070:	5ca2      	ldrb	r2, [r4, r2]
    4072:	2a00      	cmp	r2, #0
    4074:	d103      	bne.n	407e <i2c_master_init+0x126>
    4076:	2280      	movs	r2, #128	; 0x80
    4078:	0492      	lsls	r2, r2, #18
    407a:	4291      	cmp	r1, r2
    407c:	d102      	bne.n	4084 <i2c_master_init+0x12c>
    407e:	2280      	movs	r2, #128	; 0x80
    4080:	0512      	lsls	r2, r2, #20
    4082:	4313      	orrs	r3, r2
    4084:	222d      	movs	r2, #45	; 0x2d
    4086:	5ca2      	ldrb	r2, [r4, r2]
    4088:	2a00      	cmp	r2, #0
    408a:	d002      	beq.n	4092 <i2c_master_init+0x13a>
    408c:	2280      	movs	r2, #128	; 0x80
    408e:	0412      	lsls	r2, r2, #16
    4090:	4313      	orrs	r3, r2
    4092:	222e      	movs	r2, #46	; 0x2e
    4094:	5ca2      	ldrb	r2, [r4, r2]
    4096:	2a00      	cmp	r2, #0
    4098:	d002      	beq.n	40a0 <i2c_master_init+0x148>
    409a:	2280      	movs	r2, #128	; 0x80
    409c:	03d2      	lsls	r2, r2, #15
    409e:	4313      	orrs	r3, r2
    40a0:	4642      	mov	r2, r8
    40a2:	6812      	ldr	r2, [r2, #0]
    40a4:	4313      	orrs	r3, r2
    40a6:	4642      	mov	r2, r8
    40a8:	6013      	str	r3, [r2, #0]
    40aa:	2380      	movs	r3, #128	; 0x80
    40ac:	005b      	lsls	r3, r3, #1
    40ae:	6053      	str	r3, [r2, #4]
    40b0:	4648      	mov	r0, r9
    40b2:	3014      	adds	r0, #20
    40b4:	b2c0      	uxtb	r0, r0
    40b6:	4b57      	ldr	r3, [pc, #348]	; (4214 <i2c_master_init+0x2bc>)
    40b8:	4798      	blx	r3
    40ba:	9009      	str	r0, [sp, #36]	; 0x24
    40bc:	23fa      	movs	r3, #250	; 0xfa
    40be:	009b      	lsls	r3, r3, #2
    40c0:	6822      	ldr	r2, [r4, #0]
    40c2:	435a      	muls	r2, r3
    40c4:	4691      	mov	r9, r2
    40c6:	6863      	ldr	r3, [r4, #4]
    40c8:	469b      	mov	fp, r3
    40ca:	4d53      	ldr	r5, [pc, #332]	; (4218 <i2c_master_init+0x2c0>)
    40cc:	47a8      	blx	r5
    40ce:	9000      	str	r0, [sp, #0]
    40d0:	9101      	str	r1, [sp, #4]
    40d2:	464b      	mov	r3, r9
    40d4:	0058      	lsls	r0, r3, #1
    40d6:	47a8      	blx	r5
    40d8:	4f50      	ldr	r7, [pc, #320]	; (421c <i2c_master_init+0x2c4>)
    40da:	2200      	movs	r2, #0
    40dc:	4b50      	ldr	r3, [pc, #320]	; (4220 <i2c_master_init+0x2c8>)
    40de:	9002      	str	r0, [sp, #8]
    40e0:	9103      	str	r1, [sp, #12]
    40e2:	47b8      	blx	r7
    40e4:	4e4f      	ldr	r6, [pc, #316]	; (4224 <i2c_master_init+0x2cc>)
    40e6:	9a00      	ldr	r2, [sp, #0]
    40e8:	9b01      	ldr	r3, [sp, #4]
    40ea:	47b0      	blx	r6
    40ec:	9004      	str	r0, [sp, #16]
    40ee:	9105      	str	r1, [sp, #20]
    40f0:	8e20      	ldrh	r0, [r4, #48]	; 0x30
    40f2:	47a8      	blx	r5
    40f4:	4b4c      	ldr	r3, [pc, #304]	; (4228 <i2c_master_init+0x2d0>)
    40f6:	469a      	mov	sl, r3
    40f8:	4a4c      	ldr	r2, [pc, #304]	; (422c <i2c_master_init+0x2d4>)
    40fa:	4b4d      	ldr	r3, [pc, #308]	; (4230 <i2c_master_init+0x2d8>)
    40fc:	47d0      	blx	sl
    40fe:	9a00      	ldr	r2, [sp, #0]
    4100:	9b01      	ldr	r3, [sp, #4]
    4102:	47d0      	blx	sl
    4104:	2200      	movs	r2, #0
    4106:	4b4b      	ldr	r3, [pc, #300]	; (4234 <i2c_master_init+0x2dc>)
    4108:	47b0      	blx	r6
    410a:	9006      	str	r0, [sp, #24]
    410c:	9107      	str	r1, [sp, #28]
    410e:	4648      	mov	r0, r9
    4110:	47a8      	blx	r5
    4112:	0002      	movs	r2, r0
    4114:	000b      	movs	r3, r1
    4116:	9806      	ldr	r0, [sp, #24]
    4118:	9907      	ldr	r1, [sp, #28]
    411a:	47d0      	blx	sl
    411c:	0002      	movs	r2, r0
    411e:	000b      	movs	r3, r1
    4120:	9804      	ldr	r0, [sp, #16]
    4122:	9905      	ldr	r1, [sp, #20]
    4124:	47b8      	blx	r7
    4126:	9a02      	ldr	r2, [sp, #8]
    4128:	9b03      	ldr	r3, [sp, #12]
    412a:	4d43      	ldr	r5, [pc, #268]	; (4238 <i2c_master_init+0x2e0>)
    412c:	47a8      	blx	r5
    412e:	4b43      	ldr	r3, [pc, #268]	; (423c <i2c_master_init+0x2e4>)
    4130:	4798      	blx	r3
    4132:	0005      	movs	r5, r0
    4134:	2380      	movs	r3, #128	; 0x80
    4136:	049b      	lsls	r3, r3, #18
    4138:	68a2      	ldr	r2, [r4, #8]
    413a:	429a      	cmp	r2, r3
    413c:	d01e      	beq.n	417c <i2c_master_init+0x224>
    413e:	0003      	movs	r3, r0
    4140:	2040      	movs	r0, #64	; 0x40
    4142:	2dff      	cmp	r5, #255	; 0xff
    4144:	d900      	bls.n	4148 <i2c_master_init+0x1f0>
    4146:	e72f      	b.n	3fa8 <i2c_master_init+0x50>
    4148:	2400      	movs	r4, #0
    414a:	2000      	movs	r0, #0
    414c:	25ff      	movs	r5, #255	; 0xff
    414e:	401d      	ands	r5, r3
    4150:	0624      	lsls	r4, r4, #24
    4152:	4325      	orrs	r5, r4
    4154:	0400      	lsls	r0, r0, #16
    4156:	23ff      	movs	r3, #255	; 0xff
    4158:	041b      	lsls	r3, r3, #16
    415a:	4018      	ands	r0, r3
    415c:	4305      	orrs	r5, r0
    415e:	4643      	mov	r3, r8
    4160:	60dd      	str	r5, [r3, #12]
    4162:	2000      	movs	r0, #0
    4164:	e720      	b.n	3fa8 <i2c_master_init+0x50>
    4166:	2100      	movs	r1, #0
    4168:	4640      	mov	r0, r8
    416a:	4b35      	ldr	r3, [pc, #212]	; (4240 <i2c_master_init+0x2e8>)
    416c:	4798      	blx	r3
    416e:	e74d      	b.n	400c <i2c_master_init+0xb4>
    4170:	2101      	movs	r1, #1
    4172:	4640      	mov	r0, r8
    4174:	4b32      	ldr	r3, [pc, #200]	; (4240 <i2c_master_init+0x2e8>)
    4176:	4798      	blx	r3
    4178:	0007      	movs	r7, r0
    417a:	e754      	b.n	4026 <i2c_master_init+0xce>
    417c:	26fa      	movs	r6, #250	; 0xfa
    417e:	00b6      	lsls	r6, r6, #2
    4180:	465b      	mov	r3, fp
    4182:	435e      	muls	r6, r3
    4184:	9800      	ldr	r0, [sp, #0]
    4186:	9901      	ldr	r1, [sp, #4]
    4188:	0002      	movs	r2, r0
    418a:	000b      	movs	r3, r1
    418c:	4c25      	ldr	r4, [pc, #148]	; (4224 <i2c_master_init+0x2cc>)
    418e:	47a0      	blx	r4
    4190:	9000      	str	r0, [sp, #0]
    4192:	9101      	str	r1, [sp, #4]
    4194:	0030      	movs	r0, r6
    4196:	4b20      	ldr	r3, [pc, #128]	; (4218 <i2c_master_init+0x2c0>)
    4198:	4798      	blx	r3
    419a:	2200      	movs	r2, #0
    419c:	4b29      	ldr	r3, [pc, #164]	; (4244 <i2c_master_init+0x2ec>)
    419e:	47d0      	blx	sl
    41a0:	0002      	movs	r2, r0
    41a2:	000b      	movs	r3, r1
    41a4:	9800      	ldr	r0, [sp, #0]
    41a6:	9901      	ldr	r1, [sp, #4]
    41a8:	4c23      	ldr	r4, [pc, #140]	; (4238 <i2c_master_init+0x2e0>)
    41aa:	47a0      	blx	r4
    41ac:	2200      	movs	r2, #0
    41ae:	4b1c      	ldr	r3, [pc, #112]	; (4220 <i2c_master_init+0x2c8>)
    41b0:	47b8      	blx	r7
    41b2:	4b22      	ldr	r3, [pc, #136]	; (423c <i2c_master_init+0x2e4>)
    41b4:	4798      	blx	r3
    41b6:	1e04      	subs	r4, r0, #0
    41b8:	d00c      	beq.n	41d4 <i2c_master_init+0x27c>
    41ba:	0031      	movs	r1, r6
    41bc:	9809      	ldr	r0, [sp, #36]	; 0x24
    41be:	4b22      	ldr	r3, [pc, #136]	; (4248 <i2c_master_init+0x2f0>)
    41c0:	4798      	blx	r3
    41c2:	3802      	subs	r0, #2
    41c4:	1b00      	subs	r0, r0, r4
    41c6:	002b      	movs	r3, r5
    41c8:	2dff      	cmp	r5, #255	; 0xff
    41ca:	d80c      	bhi.n	41e6 <i2c_master_init+0x28e>
    41cc:	28ff      	cmp	r0, #255	; 0xff
    41ce:	d9bd      	bls.n	414c <i2c_master_init+0x1f4>
    41d0:	2040      	movs	r0, #64	; 0x40
    41d2:	e6e9      	b.n	3fa8 <i2c_master_init+0x50>
    41d4:	0071      	lsls	r1, r6, #1
    41d6:	1e48      	subs	r0, r1, #1
    41d8:	9b09      	ldr	r3, [sp, #36]	; 0x24
    41da:	469c      	mov	ip, r3
    41dc:	4460      	add	r0, ip
    41de:	4b1a      	ldr	r3, [pc, #104]	; (4248 <i2c_master_init+0x2f0>)
    41e0:	4798      	blx	r3
    41e2:	3801      	subs	r0, #1
    41e4:	e7ef      	b.n	41c6 <i2c_master_init+0x26e>
    41e6:	2040      	movs	r0, #64	; 0x40
    41e8:	e6de      	b.n	3fa8 <i2c_master_init+0x50>
    41ea:	46c0      	nop			; (mov r8, r8)
    41ec:	00007071 	.word	0x00007071
    41f0:	40000400 	.word	0x40000400
    41f4:	000089d5 	.word	0x000089d5
    41f8:	00008949 	.word	0x00008949
    41fc:	00006ead 	.word	0x00006ead
    4200:	00004675 	.word	0x00004675
    4204:	000070ad 	.word	0x000070ad
    4208:	200029b4 	.word	0x200029b4
    420c:	00008acd 	.word	0x00008acd
    4210:	41002000 	.word	0x41002000
    4214:	000089f1 	.word	0x000089f1
    4218:	0000bb59 	.word	0x0000bb59
    421c:	0000b4c5 	.word	0x0000b4c5
    4220:	3ff00000 	.word	0x3ff00000
    4224:	0000a33d 	.word	0x0000a33d
    4228:	0000afc5 	.word	0x0000afc5
    422c:	e826d695 	.word	0xe826d695
    4230:	3e112e0b 	.word	0x3e112e0b
    4234:	40240000 	.word	0x40240000
    4238:	0000a95d 	.word	0x0000a95d
    423c:	0000baf1 	.word	0x0000baf1
    4240:	00006ef9 	.word	0x00006ef9
    4244:	40080000 	.word	0x40080000
    4248:	00008f5d 	.word	0x00008f5d

0000424c <_i2c_master_address_response>:
    424c:	6803      	ldr	r3, [r0, #0]
    424e:	7e1a      	ldrb	r2, [r3, #24]
    4250:	0792      	lsls	r2, r2, #30
    4252:	d507      	bpl.n	4264 <_i2c_master_address_response+0x18>
    4254:	2202      	movs	r2, #2
    4256:	761a      	strb	r2, [r3, #24]
    4258:	8b5b      	ldrh	r3, [r3, #26]
    425a:	079b      	lsls	r3, r3, #30
    425c:	2041      	movs	r0, #65	; 0x41
    425e:	17db      	asrs	r3, r3, #31
    4260:	4018      	ands	r0, r3
    4262:	4770      	bx	lr
    4264:	8b5a      	ldrh	r2, [r3, #26]
    4266:	0752      	lsls	r2, r2, #29
    4268:	d506      	bpl.n	4278 <_i2c_master_address_response+0x2c>
    426a:	6859      	ldr	r1, [r3, #4]
    426c:	22c0      	movs	r2, #192	; 0xc0
    426e:	0292      	lsls	r2, r2, #10
    4270:	430a      	orrs	r2, r1
    4272:	605a      	str	r2, [r3, #4]
    4274:	2018      	movs	r0, #24
    4276:	e7f4      	b.n	4262 <_i2c_master_address_response+0x16>
    4278:	2000      	movs	r0, #0
    427a:	e7f2      	b.n	4262 <_i2c_master_address_response+0x16>

0000427c <_i2c_master_wait_for_bus>:
    427c:	b530      	push	{r4, r5, lr}
    427e:	6802      	ldr	r2, [r0, #0]
    4280:	2300      	movs	r3, #0
    4282:	2401      	movs	r4, #1
    4284:	2502      	movs	r5, #2
    4286:	7e11      	ldrb	r1, [r2, #24]
    4288:	4221      	tst	r1, r4
    428a:	d10b      	bne.n	42a4 <_i2c_master_wait_for_bus+0x28>
    428c:	7e11      	ldrb	r1, [r2, #24]
    428e:	4229      	tst	r1, r5
    4290:	d106      	bne.n	42a0 <_i2c_master_wait_for_bus+0x24>
    4292:	3301      	adds	r3, #1
    4294:	b29b      	uxth	r3, r3
    4296:	8901      	ldrh	r1, [r0, #8]
    4298:	4299      	cmp	r1, r3
    429a:	d8f4      	bhi.n	4286 <_i2c_master_wait_for_bus+0xa>
    429c:	2012      	movs	r0, #18
    429e:	e002      	b.n	42a6 <_i2c_master_wait_for_bus+0x2a>
    42a0:	2000      	movs	r0, #0
    42a2:	e000      	b.n	42a6 <_i2c_master_wait_for_bus+0x2a>
    42a4:	2000      	movs	r0, #0
    42a6:	bd30      	pop	{r4, r5, pc}

000042a8 <_i2c_master_send_hs_master_code>:
    42a8:	b510      	push	{r4, lr}
    42aa:	6804      	ldr	r4, [r0, #0]
    42ac:	6862      	ldr	r2, [r4, #4]
    42ae:	2380      	movs	r3, #128	; 0x80
    42b0:	02db      	lsls	r3, r3, #11
    42b2:	4313      	orrs	r3, r2
    42b4:	6063      	str	r3, [r4, #4]
    42b6:	6261      	str	r1, [r4, #36]	; 0x24
    42b8:	4b02      	ldr	r3, [pc, #8]	; (42c4 <_i2c_master_send_hs_master_code+0x1c>)
    42ba:	4798      	blx	r3
    42bc:	2301      	movs	r3, #1
    42be:	7623      	strb	r3, [r4, #24]
    42c0:	bd10      	pop	{r4, pc}
    42c2:	46c0      	nop			; (mov r8, r8)
    42c4:	0000427d 	.word	0x0000427d

000042c8 <_i2c_master_read_packet>:
    42c8:	b5f0      	push	{r4, r5, r6, r7, lr}
    42ca:	46de      	mov	lr, fp
    42cc:	4657      	mov	r7, sl
    42ce:	464e      	mov	r6, r9
    42d0:	4645      	mov	r5, r8
    42d2:	b5e0      	push	{r5, r6, r7, lr}
    42d4:	b083      	sub	sp, #12
    42d6:	0006      	movs	r6, r0
    42d8:	4689      	mov	r9, r1
    42da:	6805      	ldr	r5, [r0, #0]
    42dc:	884c      	ldrh	r4, [r1, #2]
    42de:	682b      	ldr	r3, [r5, #0]
    42e0:	011b      	lsls	r3, r3, #4
    42e2:	0fdb      	lsrs	r3, r3, #31
    42e4:	469a      	mov	sl, r3
    42e6:	7a4b      	ldrb	r3, [r1, #9]
    42e8:	2b00      	cmp	r3, #0
    42ea:	d12b      	bne.n	4344 <_i2c_master_read_packet+0x7c>
    42ec:	686b      	ldr	r3, [r5, #4]
    42ee:	4a58      	ldr	r2, [pc, #352]	; (4450 <_i2c_master_read_packet+0x188>)
    42f0:	4013      	ands	r3, r2
    42f2:	606b      	str	r3, [r5, #4]
    42f4:	464b      	mov	r3, r9
    42f6:	7a1b      	ldrb	r3, [r3, #8]
    42f8:	2b00      	cmp	r3, #0
    42fa:	d127      	bne.n	434c <_i2c_master_read_packet+0x84>
    42fc:	464b      	mov	r3, r9
    42fe:	881b      	ldrh	r3, [r3, #0]
    4300:	005b      	lsls	r3, r3, #1
    4302:	464a      	mov	r2, r9
    4304:	7a52      	ldrb	r2, [r2, #9]
    4306:	0392      	lsls	r2, r2, #14
    4308:	4313      	orrs	r3, r2
    430a:	2201      	movs	r2, #1
    430c:	4313      	orrs	r3, r2
    430e:	626b      	str	r3, [r5, #36]	; 0x24
    4310:	0030      	movs	r0, r6
    4312:	4b50      	ldr	r3, [pc, #320]	; (4454 <_i2c_master_read_packet+0x18c>)
    4314:	4798      	blx	r3
    4316:	9001      	str	r0, [sp, #4]
    4318:	4653      	mov	r3, sl
    431a:	2b00      	cmp	r3, #0
    431c:	d003      	beq.n	4326 <_i2c_master_read_packet+0x5e>
    431e:	464b      	mov	r3, r9
    4320:	885b      	ldrh	r3, [r3, #2]
    4322:	2b01      	cmp	r3, #1
    4324:	d03b      	beq.n	439e <_i2c_master_read_packet+0xd6>
    4326:	686b      	ldr	r3, [r5, #4]
    4328:	4a49      	ldr	r2, [pc, #292]	; (4450 <_i2c_master_read_packet+0x188>)
    432a:	4013      	ands	r3, r2
    432c:	606b      	str	r3, [r5, #4]
    432e:	9b01      	ldr	r3, [sp, #4]
    4330:	2b00      	cmp	r3, #0
    4332:	d03a      	beq.n	43aa <_i2c_master_read_packet+0xe2>
    4334:	9801      	ldr	r0, [sp, #4]
    4336:	b003      	add	sp, #12
    4338:	bc3c      	pop	{r2, r3, r4, r5}
    433a:	4690      	mov	r8, r2
    433c:	4699      	mov	r9, r3
    433e:	46a2      	mov	sl, r4
    4340:	46ab      	mov	fp, r5
    4342:	bdf0      	pop	{r4, r5, r6, r7, pc}
    4344:	7a89      	ldrb	r1, [r1, #10]
    4346:	4b44      	ldr	r3, [pc, #272]	; (4458 <_i2c_master_read_packet+0x190>)
    4348:	4798      	blx	r3
    434a:	e7cf      	b.n	42ec <_i2c_master_read_packet+0x24>
    434c:	464b      	mov	r3, r9
    434e:	881b      	ldrh	r3, [r3, #0]
    4350:	005b      	lsls	r3, r3, #1
    4352:	464a      	mov	r2, r9
    4354:	7a52      	ldrb	r2, [r2, #9]
    4356:	0392      	lsls	r2, r2, #14
    4358:	4313      	orrs	r3, r2
    435a:	2280      	movs	r2, #128	; 0x80
    435c:	0212      	lsls	r2, r2, #8
    435e:	4313      	orrs	r3, r2
    4360:	626b      	str	r3, [r5, #36]	; 0x24
    4362:	0030      	movs	r0, r6
    4364:	4b3b      	ldr	r3, [pc, #236]	; (4454 <_i2c_master_read_packet+0x18c>)
    4366:	4798      	blx	r3
    4368:	9001      	str	r0, [sp, #4]
    436a:	686b      	ldr	r3, [r5, #4]
    436c:	4a38      	ldr	r2, [pc, #224]	; (4450 <_i2c_master_read_packet+0x188>)
    436e:	4013      	ands	r3, r2
    4370:	606b      	str	r3, [r5, #4]
    4372:	2800      	cmp	r0, #0
    4374:	d1de      	bne.n	4334 <_i2c_master_read_packet+0x6c>
    4376:	0030      	movs	r0, r6
    4378:	4b38      	ldr	r3, [pc, #224]	; (445c <_i2c_master_read_packet+0x194>)
    437a:	4798      	blx	r3
    437c:	9001      	str	r0, [sp, #4]
    437e:	2800      	cmp	r0, #0
    4380:	d1d8      	bne.n	4334 <_i2c_master_read_packet+0x6c>
    4382:	464b      	mov	r3, r9
    4384:	881b      	ldrh	r3, [r3, #0]
    4386:	0a1b      	lsrs	r3, r3, #8
    4388:	2278      	movs	r2, #120	; 0x78
    438a:	4313      	orrs	r3, r2
    438c:	005b      	lsls	r3, r3, #1
    438e:	464a      	mov	r2, r9
    4390:	7a52      	ldrb	r2, [r2, #9]
    4392:	0392      	lsls	r2, r2, #14
    4394:	2101      	movs	r1, #1
    4396:	430a      	orrs	r2, r1
    4398:	4313      	orrs	r3, r2
    439a:	626b      	str	r3, [r5, #36]	; 0x24
    439c:	e7b8      	b.n	4310 <_i2c_master_read_packet+0x48>
    439e:	686a      	ldr	r2, [r5, #4]
    43a0:	2380      	movs	r3, #128	; 0x80
    43a2:	02db      	lsls	r3, r3, #11
    43a4:	4313      	orrs	r3, r2
    43a6:	606b      	str	r3, [r5, #4]
    43a8:	e7c1      	b.n	432e <_i2c_master_read_packet+0x66>
    43aa:	0030      	movs	r0, r6
    43ac:	4b2b      	ldr	r3, [pc, #172]	; (445c <_i2c_master_read_packet+0x194>)
    43ae:	4798      	blx	r3
    43b0:	9001      	str	r0, [sp, #4]
    43b2:	2800      	cmp	r0, #0
    43b4:	d1be      	bne.n	4334 <_i2c_master_read_packet+0x6c>
    43b6:	3c01      	subs	r4, #1
    43b8:	b2a4      	uxth	r4, r4
    43ba:	4680      	mov	r8, r0
    43bc:	4b28      	ldr	r3, [pc, #160]	; (4460 <_i2c_master_read_packet+0x198>)
    43be:	469b      	mov	fp, r3
    43c0:	e015      	b.n	43ee <_i2c_master_read_packet+0x126>
    43c2:	2c01      	cmp	r4, #1
    43c4:	d020      	beq.n	4408 <_i2c_master_read_packet+0x140>
    43c6:	0030      	movs	r0, r6
    43c8:	4b26      	ldr	r3, [pc, #152]	; (4464 <_i2c_master_read_packet+0x19c>)
    43ca:	4798      	blx	r3
    43cc:	4643      	mov	r3, r8
    43ce:	1c5f      	adds	r7, r3, #1
    43d0:	b2bf      	uxth	r7, r7
    43d2:	2328      	movs	r3, #40	; 0x28
    43d4:	5ceb      	ldrb	r3, [r5, r3]
    43d6:	464a      	mov	r2, r9
    43d8:	6852      	ldr	r2, [r2, #4]
    43da:	4641      	mov	r1, r8
    43dc:	5453      	strb	r3, [r2, r1]
    43de:	0030      	movs	r0, r6
    43e0:	4b1c      	ldr	r3, [pc, #112]	; (4454 <_i2c_master_read_packet+0x18c>)
    43e2:	4798      	blx	r3
    43e4:	3c01      	subs	r4, #1
    43e6:	b2a4      	uxth	r4, r4
    43e8:	2800      	cmp	r0, #0
    43ea:	d115      	bne.n	4418 <_i2c_master_read_packet+0x150>
    43ec:	46b8      	mov	r8, r7
    43ee:	455c      	cmp	r4, fp
    43f0:	d014      	beq.n	441c <_i2c_master_read_packet+0x154>
    43f2:	8b6b      	ldrh	r3, [r5, #26]
    43f4:	069b      	lsls	r3, r3, #26
    43f6:	d527      	bpl.n	4448 <_i2c_master_read_packet+0x180>
    43f8:	7af3      	ldrb	r3, [r6, #11]
    43fa:	2b00      	cmp	r3, #0
    43fc:	d0e3      	beq.n	43c6 <_i2c_master_read_packet+0xfe>
    43fe:	4653      	mov	r3, sl
    4400:	2b00      	cmp	r3, #0
    4402:	d1de      	bne.n	43c2 <_i2c_master_read_packet+0xfa>
    4404:	2c00      	cmp	r4, #0
    4406:	d1de      	bne.n	43c6 <_i2c_master_read_packet+0xfe>
    4408:	686a      	ldr	r2, [r5, #4]
    440a:	2380      	movs	r3, #128	; 0x80
    440c:	02db      	lsls	r3, r3, #11
    440e:	4313      	orrs	r3, r2
    4410:	606b      	str	r3, [r5, #4]
    4412:	3c01      	subs	r4, #1
    4414:	b2a4      	uxth	r4, r4
    4416:	e7ea      	b.n	43ee <_i2c_master_read_packet+0x126>
    4418:	46b8      	mov	r8, r7
    441a:	9001      	str	r0, [sp, #4]
    441c:	7ab3      	ldrb	r3, [r6, #10]
    441e:	2b00      	cmp	r3, #0
    4420:	d109      	bne.n	4436 <_i2c_master_read_packet+0x16e>
    4422:	0030      	movs	r0, r6
    4424:	4b0f      	ldr	r3, [pc, #60]	; (4464 <_i2c_master_read_packet+0x19c>)
    4426:	4798      	blx	r3
    4428:	2328      	movs	r3, #40	; 0x28
    442a:	5cea      	ldrb	r2, [r5, r3]
    442c:	464b      	mov	r3, r9
    442e:	685b      	ldr	r3, [r3, #4]
    4430:	4641      	mov	r1, r8
    4432:	545a      	strb	r2, [r3, r1]
    4434:	e77e      	b.n	4334 <_i2c_master_read_packet+0x6c>
    4436:	0030      	movs	r0, r6
    4438:	4b0a      	ldr	r3, [pc, #40]	; (4464 <_i2c_master_read_packet+0x19c>)
    443a:	4798      	blx	r3
    443c:	686a      	ldr	r2, [r5, #4]
    443e:	23c0      	movs	r3, #192	; 0xc0
    4440:	029b      	lsls	r3, r3, #10
    4442:	4313      	orrs	r3, r2
    4444:	606b      	str	r3, [r5, #4]
    4446:	e7ec      	b.n	4422 <_i2c_master_read_packet+0x15a>
    4448:	2341      	movs	r3, #65	; 0x41
    444a:	9301      	str	r3, [sp, #4]
    444c:	e772      	b.n	4334 <_i2c_master_read_packet+0x6c>
    444e:	46c0      	nop			; (mov r8, r8)
    4450:	fffbffff 	.word	0xfffbffff
    4454:	0000427d 	.word	0x0000427d
    4458:	000042a9 	.word	0x000042a9
    445c:	0000424d 	.word	0x0000424d
    4460:	0000ffff 	.word	0x0000ffff
    4464:	00003f4d 	.word	0x00003f4d

00004468 <_i2c_master_write_packet>:
    4468:	b5f0      	push	{r4, r5, r6, r7, lr}
    446a:	46de      	mov	lr, fp
    446c:	4657      	mov	r7, sl
    446e:	464e      	mov	r6, r9
    4470:	4645      	mov	r5, r8
    4472:	b5e0      	push	{r5, r6, r7, lr}
    4474:	b083      	sub	sp, #12
    4476:	0006      	movs	r6, r0
    4478:	000f      	movs	r7, r1
    447a:	6805      	ldr	r5, [r0, #0]
    447c:	884c      	ldrh	r4, [r1, #2]
    447e:	4b32      	ldr	r3, [pc, #200]	; (4548 <_i2c_master_write_packet+0xe0>)
    4480:	4798      	blx	r3
    4482:	7a7b      	ldrb	r3, [r7, #9]
    4484:	2b00      	cmp	r3, #0
    4486:	d11d      	bne.n	44c4 <_i2c_master_write_packet+0x5c>
    4488:	686b      	ldr	r3, [r5, #4]
    448a:	4a30      	ldr	r2, [pc, #192]	; (454c <_i2c_master_write_packet+0xe4>)
    448c:	4013      	ands	r3, r2
    448e:	606b      	str	r3, [r5, #4]
    4490:	7a3b      	ldrb	r3, [r7, #8]
    4492:	2b00      	cmp	r3, #0
    4494:	d01b      	beq.n	44ce <_i2c_master_write_packet+0x66>
    4496:	883b      	ldrh	r3, [r7, #0]
    4498:	005b      	lsls	r3, r3, #1
    449a:	7a7a      	ldrb	r2, [r7, #9]
    449c:	0392      	lsls	r2, r2, #14
    449e:	4313      	orrs	r3, r2
    44a0:	2280      	movs	r2, #128	; 0x80
    44a2:	0212      	lsls	r2, r2, #8
    44a4:	4313      	orrs	r3, r2
    44a6:	626b      	str	r3, [r5, #36]	; 0x24
    44a8:	0030      	movs	r0, r6
    44aa:	4b29      	ldr	r3, [pc, #164]	; (4550 <_i2c_master_write_packet+0xe8>)
    44ac:	4798      	blx	r3
    44ae:	9001      	str	r0, [sp, #4]
    44b0:	2800      	cmp	r0, #0
    44b2:	d013      	beq.n	44dc <_i2c_master_write_packet+0x74>
    44b4:	9801      	ldr	r0, [sp, #4]
    44b6:	b003      	add	sp, #12
    44b8:	bc3c      	pop	{r2, r3, r4, r5}
    44ba:	4690      	mov	r8, r2
    44bc:	4699      	mov	r9, r3
    44be:	46a2      	mov	sl, r4
    44c0:	46ab      	mov	fp, r5
    44c2:	bdf0      	pop	{r4, r5, r6, r7, pc}
    44c4:	7ab9      	ldrb	r1, [r7, #10]
    44c6:	0030      	movs	r0, r6
    44c8:	4b22      	ldr	r3, [pc, #136]	; (4554 <_i2c_master_write_packet+0xec>)
    44ca:	4798      	blx	r3
    44cc:	e7dc      	b.n	4488 <_i2c_master_write_packet+0x20>
    44ce:	883b      	ldrh	r3, [r7, #0]
    44d0:	005b      	lsls	r3, r3, #1
    44d2:	7a7a      	ldrb	r2, [r7, #9]
    44d4:	0392      	lsls	r2, r2, #14
    44d6:	4313      	orrs	r3, r2
    44d8:	626b      	str	r3, [r5, #36]	; 0x24
    44da:	e7e5      	b.n	44a8 <_i2c_master_write_packet+0x40>
    44dc:	0030      	movs	r0, r6
    44de:	4b1e      	ldr	r3, [pc, #120]	; (4558 <_i2c_master_write_packet+0xf0>)
    44e0:	4798      	blx	r3
    44e2:	1e03      	subs	r3, r0, #0
    44e4:	9001      	str	r0, [sp, #4]
    44e6:	d1e5      	bne.n	44b4 <_i2c_master_write_packet+0x4c>
    44e8:	46a0      	mov	r8, r4
    44ea:	2400      	movs	r4, #0
    44ec:	3320      	adds	r3, #32
    44ee:	4699      	mov	r9, r3
    44f0:	4b15      	ldr	r3, [pc, #84]	; (4548 <_i2c_master_write_packet+0xe0>)
    44f2:	469b      	mov	fp, r3
    44f4:	4b16      	ldr	r3, [pc, #88]	; (4550 <_i2c_master_write_packet+0xe8>)
    44f6:	469a      	mov	sl, r3
    44f8:	4544      	cmp	r4, r8
    44fa:	d015      	beq.n	4528 <_i2c_master_write_packet+0xc0>
    44fc:	8b6b      	ldrh	r3, [r5, #26]
    44fe:	464a      	mov	r2, r9
    4500:	4213      	tst	r3, r2
    4502:	d01d      	beq.n	4540 <_i2c_master_write_packet+0xd8>
    4504:	0030      	movs	r0, r6
    4506:	47d8      	blx	fp
    4508:	687b      	ldr	r3, [r7, #4]
    450a:	5d1a      	ldrb	r2, [r3, r4]
    450c:	2328      	movs	r3, #40	; 0x28
    450e:	54ea      	strb	r2, [r5, r3]
    4510:	0030      	movs	r0, r6
    4512:	47d0      	blx	sl
    4514:	2800      	cmp	r0, #0
    4516:	d106      	bne.n	4526 <_i2c_master_write_packet+0xbe>
    4518:	8b6b      	ldrh	r3, [r5, #26]
    451a:	3401      	adds	r4, #1
    451c:	075b      	lsls	r3, r3, #29
    451e:	d5eb      	bpl.n	44f8 <_i2c_master_write_packet+0x90>
    4520:	231e      	movs	r3, #30
    4522:	9301      	str	r3, [sp, #4]
    4524:	e000      	b.n	4528 <_i2c_master_write_packet+0xc0>
    4526:	9001      	str	r0, [sp, #4]
    4528:	7ab3      	ldrb	r3, [r6, #10]
    452a:	2b00      	cmp	r3, #0
    452c:	d0c2      	beq.n	44b4 <_i2c_master_write_packet+0x4c>
    452e:	0030      	movs	r0, r6
    4530:	4b05      	ldr	r3, [pc, #20]	; (4548 <_i2c_master_write_packet+0xe0>)
    4532:	4798      	blx	r3
    4534:	686a      	ldr	r2, [r5, #4]
    4536:	23c0      	movs	r3, #192	; 0xc0
    4538:	029b      	lsls	r3, r3, #10
    453a:	4313      	orrs	r3, r2
    453c:	606b      	str	r3, [r5, #4]
    453e:	e7b9      	b.n	44b4 <_i2c_master_write_packet+0x4c>
    4540:	2341      	movs	r3, #65	; 0x41
    4542:	9301      	str	r3, [sp, #4]
    4544:	e7b6      	b.n	44b4 <_i2c_master_write_packet+0x4c>
    4546:	46c0      	nop			; (mov r8, r8)
    4548:	00003f4d 	.word	0x00003f4d
    454c:	fffbffff 	.word	0xfffbffff
    4550:	0000427d 	.word	0x0000427d
    4554:	000042a9 	.word	0x000042a9
    4558:	0000424d 	.word	0x0000424d

0000455c <i2c_master_read_packet_wait>:
    455c:	b510      	push	{r4, lr}
    455e:	8b83      	ldrh	r3, [r0, #28]
    4560:	b29b      	uxth	r3, r3
    4562:	2205      	movs	r2, #5
    4564:	2b00      	cmp	r3, #0
    4566:	d001      	beq.n	456c <i2c_master_read_packet_wait+0x10>
    4568:	0010      	movs	r0, r2
    456a:	bd10      	pop	{r4, pc}
    456c:	3301      	adds	r3, #1
    456e:	7283      	strb	r3, [r0, #10]
    4570:	72c3      	strb	r3, [r0, #11]
    4572:	4b02      	ldr	r3, [pc, #8]	; (457c <i2c_master_read_packet_wait+0x20>)
    4574:	4798      	blx	r3
    4576:	0002      	movs	r2, r0
    4578:	e7f6      	b.n	4568 <i2c_master_read_packet_wait+0xc>
    457a:	46c0      	nop			; (mov r8, r8)
    457c:	000042c9 	.word	0x000042c9

00004580 <i2c_master_write_packet_wait>:
    4580:	b510      	push	{r4, lr}
    4582:	8b83      	ldrh	r3, [r0, #28]
    4584:	b29b      	uxth	r3, r3
    4586:	2205      	movs	r2, #5
    4588:	2b00      	cmp	r3, #0
    458a:	d001      	beq.n	4590 <i2c_master_write_packet_wait+0x10>
    458c:	0010      	movs	r0, r2
    458e:	bd10      	pop	{r4, pc}
    4590:	3301      	adds	r3, #1
    4592:	7283      	strb	r3, [r0, #10]
    4594:	72c3      	strb	r3, [r0, #11]
    4596:	4b02      	ldr	r3, [pc, #8]	; (45a0 <i2c_master_write_packet_wait+0x20>)
    4598:	4798      	blx	r3
    459a:	0002      	movs	r2, r0
    459c:	e7f6      	b.n	458c <i2c_master_write_packet_wait+0xc>
    459e:	46c0      	nop			; (mov r8, r8)
    45a0:	00004469 	.word	0x00004469

000045a4 <_i2c_master_wait_for_sync>:
    45a4:	6801      	ldr	r1, [r0, #0]
    45a6:	2207      	movs	r2, #7
    45a8:	69cb      	ldr	r3, [r1, #28]
    45aa:	421a      	tst	r2, r3
    45ac:	d1fc      	bne.n	45a8 <_i2c_master_wait_for_sync+0x4>
    45ae:	4770      	bx	lr

000045b0 <_i2c_master_read>:
    45b0:	b570      	push	{r4, r5, r6, lr}
    45b2:	0004      	movs	r4, r0
    45b4:	6806      	ldr	r6, [r0, #0]
    45b6:	6832      	ldr	r2, [r6, #0]
    45b8:	8b45      	ldrh	r5, [r0, #26]
    45ba:	8b83      	ldrh	r3, [r0, #28]
    45bc:	1aed      	subs	r5, r5, r3
    45be:	b2ad      	uxth	r5, r5
    45c0:	8b83      	ldrh	r3, [r0, #28]
    45c2:	3b01      	subs	r3, #1
    45c4:	b29b      	uxth	r3, r3
    45c6:	8383      	strh	r3, [r0, #28]
    45c8:	0113      	lsls	r3, r2, #4
    45ca:	d51d      	bpl.n	4608 <_i2c_master_read+0x58>
    45cc:	7ac3      	ldrb	r3, [r0, #11]
    45ce:	2b00      	cmp	r3, #0
    45d0:	d003      	beq.n	45da <_i2c_master_read+0x2a>
    45d2:	8b83      	ldrh	r3, [r0, #28]
    45d4:	b29b      	uxth	r3, r3
    45d6:	2b01      	cmp	r3, #1
    45d8:	d010      	beq.n	45fc <_i2c_master_read+0x4c>
    45da:	8ba3      	ldrh	r3, [r4, #28]
    45dc:	b29b      	uxth	r3, r3
    45de:	2b00      	cmp	r3, #0
    45e0:	d102      	bne.n	45e8 <_i2c_master_read+0x38>
    45e2:	7aa3      	ldrb	r3, [r4, #10]
    45e4:	2b00      	cmp	r3, #0
    45e6:	d11c      	bne.n	4622 <_i2c_master_read+0x72>
    45e8:	0020      	movs	r0, r4
    45ea:	4b12      	ldr	r3, [pc, #72]	; (4634 <_i2c_master_read+0x84>)
    45ec:	4798      	blx	r3
    45ee:	6a23      	ldr	r3, [r4, #32]
    45f0:	195d      	adds	r5, r3, r5
    45f2:	2328      	movs	r3, #40	; 0x28
    45f4:	5cf3      	ldrb	r3, [r6, r3]
    45f6:	b2db      	uxtb	r3, r3
    45f8:	702b      	strb	r3, [r5, #0]
    45fa:	bd70      	pop	{r4, r5, r6, pc}
    45fc:	6872      	ldr	r2, [r6, #4]
    45fe:	2380      	movs	r3, #128	; 0x80
    4600:	02db      	lsls	r3, r3, #11
    4602:	4313      	orrs	r3, r2
    4604:	6073      	str	r3, [r6, #4]
    4606:	e7e8      	b.n	45da <_i2c_master_read+0x2a>
    4608:	7ac3      	ldrb	r3, [r0, #11]
    460a:	2b00      	cmp	r3, #0
    460c:	d0e5      	beq.n	45da <_i2c_master_read+0x2a>
    460e:	8b83      	ldrh	r3, [r0, #28]
    4610:	b29b      	uxth	r3, r3
    4612:	2b00      	cmp	r3, #0
    4614:	d1e1      	bne.n	45da <_i2c_master_read+0x2a>
    4616:	6872      	ldr	r2, [r6, #4]
    4618:	2380      	movs	r3, #128	; 0x80
    461a:	02db      	lsls	r3, r3, #11
    461c:	4313      	orrs	r3, r2
    461e:	6073      	str	r3, [r6, #4]
    4620:	e7db      	b.n	45da <_i2c_master_read+0x2a>
    4622:	0020      	movs	r0, r4
    4624:	4b03      	ldr	r3, [pc, #12]	; (4634 <_i2c_master_read+0x84>)
    4626:	4798      	blx	r3
    4628:	6872      	ldr	r2, [r6, #4]
    462a:	23c0      	movs	r3, #192	; 0xc0
    462c:	029b      	lsls	r3, r3, #10
    462e:	4313      	orrs	r3, r2
    4630:	6073      	str	r3, [r6, #4]
    4632:	e7d9      	b.n	45e8 <_i2c_master_read+0x38>
    4634:	000045a5 	.word	0x000045a5

00004638 <_i2c_master_write>:
    4638:	b570      	push	{r4, r5, r6, lr}
    463a:	0004      	movs	r4, r0
    463c:	6805      	ldr	r5, [r0, #0]
    463e:	8b6b      	ldrh	r3, [r5, #26]
    4640:	075b      	lsls	r3, r3, #29
    4642:	d503      	bpl.n	464c <_i2c_master_write+0x14>
    4644:	221e      	movs	r2, #30
    4646:	2325      	movs	r3, #37	; 0x25
    4648:	54c2      	strb	r2, [r0, r3]
    464a:	bd70      	pop	{r4, r5, r6, pc}
    464c:	8b46      	ldrh	r6, [r0, #26]
    464e:	8b83      	ldrh	r3, [r0, #28]
    4650:	1af6      	subs	r6, r6, r3
    4652:	b2b6      	uxth	r6, r6
    4654:	8b83      	ldrh	r3, [r0, #28]
    4656:	3b01      	subs	r3, #1
    4658:	b29b      	uxth	r3, r3
    465a:	8383      	strh	r3, [r0, #28]
    465c:	4b04      	ldr	r3, [pc, #16]	; (4670 <_i2c_master_write+0x38>)
    465e:	4798      	blx	r3
    4660:	6a23      	ldr	r3, [r4, #32]
    4662:	199e      	adds	r6, r3, r6
    4664:	7833      	ldrb	r3, [r6, #0]
    4666:	b2db      	uxtb	r3, r3
    4668:	2228      	movs	r2, #40	; 0x28
    466a:	54ab      	strb	r3, [r5, r2]
    466c:	e7ed      	b.n	464a <_i2c_master_write+0x12>
    466e:	46c0      	nop			; (mov r8, r8)
    4670:	000045a5 	.word	0x000045a5

00004674 <_i2c_master_interrupt_handler>:
    4674:	b570      	push	{r4, r5, r6, lr}
    4676:	0080      	lsls	r0, r0, #2
    4678:	4b75      	ldr	r3, [pc, #468]	; (4850 <_i2c_master_interrupt_handler+0x1dc>)
    467a:	58c4      	ldr	r4, [r0, r3]
    467c:	6825      	ldr	r5, [r4, #0]
    467e:	682b      	ldr	r3, [r5, #0]
    4680:	011b      	lsls	r3, r3, #4
    4682:	0fda      	lsrs	r2, r3, #31
    4684:	7e63      	ldrb	r3, [r4, #25]
    4686:	7e26      	ldrb	r6, [r4, #24]
    4688:	401e      	ands	r6, r3
    468a:	8b63      	ldrh	r3, [r4, #26]
    468c:	b29b      	uxth	r3, r3
    468e:	2b00      	cmp	r3, #0
    4690:	d103      	bne.n	469a <_i2c_master_interrupt_handler+0x26>
    4692:	8ba3      	ldrh	r3, [r4, #28]
    4694:	b29b      	uxth	r3, r3
    4696:	2b00      	cmp	r3, #0
    4698:	d123      	bne.n	46e2 <_i2c_master_interrupt_handler+0x6e>
    469a:	8b63      	ldrh	r3, [r4, #26]
    469c:	b29b      	uxth	r3, r3
    469e:	2b00      	cmp	r3, #0
    46a0:	d008      	beq.n	46b4 <_i2c_master_interrupt_handler+0x40>
    46a2:	8ba3      	ldrh	r3, [r4, #28]
    46a4:	b29b      	uxth	r3, r3
    46a6:	2b00      	cmp	r3, #0
    46a8:	d104      	bne.n	46b4 <_i2c_master_interrupt_handler+0x40>
    46aa:	3325      	adds	r3, #37	; 0x25
    46ac:	5ce3      	ldrb	r3, [r4, r3]
    46ae:	2b05      	cmp	r3, #5
    46b0:	d100      	bne.n	46b4 <_i2c_master_interrupt_handler+0x40>
    46b2:	e06d      	b.n	4790 <_i2c_master_interrupt_handler+0x11c>
    46b4:	8b63      	ldrh	r3, [r4, #26]
    46b6:	b29b      	uxth	r3, r3
    46b8:	2b00      	cmp	r3, #0
    46ba:	d024      	beq.n	4706 <_i2c_master_interrupt_handler+0x92>
    46bc:	8ba3      	ldrh	r3, [r4, #28]
    46be:	b29b      	uxth	r3, r3
    46c0:	2b00      	cmp	r3, #0
    46c2:	d020      	beq.n	4706 <_i2c_master_interrupt_handler+0x92>
    46c4:	8b6b      	ldrh	r3, [r5, #26]
    46c6:	069b      	lsls	r3, r3, #26
    46c8:	d500      	bpl.n	46cc <_i2c_master_interrupt_handler+0x58>
    46ca:	e081      	b.n	47d0 <_i2c_master_interrupt_handler+0x15c>
    46cc:	2a00      	cmp	r2, #0
    46ce:	d004      	beq.n	46da <_i2c_master_interrupt_handler+0x66>
    46d0:	8ba3      	ldrh	r3, [r4, #28]
    46d2:	b29b      	uxth	r3, r3
    46d4:	2b01      	cmp	r3, #1
    46d6:	d100      	bne.n	46da <_i2c_master_interrupt_handler+0x66>
    46d8:	e07a      	b.n	47d0 <_i2c_master_interrupt_handler+0x15c>
    46da:	2241      	movs	r2, #65	; 0x41
    46dc:	2325      	movs	r3, #37	; 0x25
    46de:	54e2      	strb	r2, [r4, r3]
    46e0:	e011      	b.n	4706 <_i2c_master_interrupt_handler+0x92>
    46e2:	7e2b      	ldrb	r3, [r5, #24]
    46e4:	07db      	lsls	r3, r3, #31
    46e6:	d507      	bpl.n	46f8 <_i2c_master_interrupt_handler+0x84>
    46e8:	2301      	movs	r3, #1
    46ea:	762b      	strb	r3, [r5, #24]
    46ec:	8b6b      	ldrh	r3, [r5, #26]
    46ee:	079b      	lsls	r3, r3, #30
    46f0:	d52e      	bpl.n	4750 <_i2c_master_interrupt_handler+0xdc>
    46f2:	2241      	movs	r2, #65	; 0x41
    46f4:	2325      	movs	r3, #37	; 0x25
    46f6:	54e2      	strb	r2, [r4, r3]
    46f8:	8ba3      	ldrh	r3, [r4, #28]
    46fa:	b29b      	uxth	r3, r3
    46fc:	8363      	strh	r3, [r4, #26]
    46fe:	2325      	movs	r3, #37	; 0x25
    4700:	5ce3      	ldrb	r3, [r4, r3]
    4702:	2b05      	cmp	r3, #5
    4704:	d038      	beq.n	4778 <_i2c_master_interrupt_handler+0x104>
    4706:	8b63      	ldrh	r3, [r4, #26]
    4708:	b29b      	uxth	r3, r3
    470a:	2b00      	cmp	r3, #0
    470c:	d007      	beq.n	471e <_i2c_master_interrupt_handler+0xaa>
    470e:	8ba3      	ldrh	r3, [r4, #28]
    4710:	b29b      	uxth	r3, r3
    4712:	2b00      	cmp	r3, #0
    4714:	d103      	bne.n	471e <_i2c_master_interrupt_handler+0xaa>
    4716:	3325      	adds	r3, #37	; 0x25
    4718:	5ce3      	ldrb	r3, [r4, r3]
    471a:	2b05      	cmp	r3, #5
    471c:	d064      	beq.n	47e8 <_i2c_master_interrupt_handler+0x174>
    471e:	2325      	movs	r3, #37	; 0x25
    4720:	5ce3      	ldrb	r3, [r4, r3]
    4722:	2b05      	cmp	r3, #5
    4724:	d013      	beq.n	474e <_i2c_master_interrupt_handler+0xda>
    4726:	2325      	movs	r3, #37	; 0x25
    4728:	5ce3      	ldrb	r3, [r4, r3]
    472a:	2b00      	cmp	r3, #0
    472c:	d00f      	beq.n	474e <_i2c_master_interrupt_handler+0xda>
    472e:	2303      	movs	r3, #3
    4730:	752b      	strb	r3, [r5, #20]
    4732:	2300      	movs	r3, #0
    4734:	8363      	strh	r3, [r4, #26]
    4736:	83a3      	strh	r3, [r4, #28]
    4738:	3325      	adds	r3, #37	; 0x25
    473a:	5ce3      	ldrb	r3, [r4, r3]
    473c:	2b41      	cmp	r3, #65	; 0x41
    473e:	d003      	beq.n	4748 <_i2c_master_interrupt_handler+0xd4>
    4740:	7aa3      	ldrb	r3, [r4, #10]
    4742:	2b00      	cmp	r3, #0
    4744:	d000      	beq.n	4748 <_i2c_master_interrupt_handler+0xd4>
    4746:	e075      	b.n	4834 <_i2c_master_interrupt_handler+0x1c0>
    4748:	0773      	lsls	r3, r6, #29
    474a:	d500      	bpl.n	474e <_i2c_master_interrupt_handler+0xda>
    474c:	e07b      	b.n	4846 <_i2c_master_interrupt_handler+0x1d2>
    474e:	bd70      	pop	{r4, r5, r6, pc}
    4750:	8b6b      	ldrh	r3, [r5, #26]
    4752:	075b      	lsls	r3, r3, #29
    4754:	d5d0      	bpl.n	46f8 <_i2c_master_interrupt_handler+0x84>
    4756:	2218      	movs	r2, #24
    4758:	2325      	movs	r3, #37	; 0x25
    475a:	54e2      	strb	r2, [r4, r3]
    475c:	2300      	movs	r3, #0
    475e:	83a3      	strh	r3, [r4, #28]
    4760:	7aa3      	ldrb	r3, [r4, #10]
    4762:	2b00      	cmp	r3, #0
    4764:	d0c8      	beq.n	46f8 <_i2c_master_interrupt_handler+0x84>
    4766:	0020      	movs	r0, r4
    4768:	4b3a      	ldr	r3, [pc, #232]	; (4854 <_i2c_master_interrupt_handler+0x1e0>)
    476a:	4798      	blx	r3
    476c:	686a      	ldr	r2, [r5, #4]
    476e:	23c0      	movs	r3, #192	; 0xc0
    4770:	029b      	lsls	r3, r3, #10
    4772:	4313      	orrs	r3, r2
    4774:	606b      	str	r3, [r5, #4]
    4776:	e7bf      	b.n	46f8 <_i2c_master_interrupt_handler+0x84>
    4778:	331f      	adds	r3, #31
    477a:	5ce3      	ldrb	r3, [r4, r3]
    477c:	2b00      	cmp	r3, #0
    477e:	d003      	beq.n	4788 <_i2c_master_interrupt_handler+0x114>
    4780:	0020      	movs	r0, r4
    4782:	4b35      	ldr	r3, [pc, #212]	; (4858 <_i2c_master_interrupt_handler+0x1e4>)
    4784:	4798      	blx	r3
    4786:	e7be      	b.n	4706 <_i2c_master_interrupt_handler+0x92>
    4788:	0020      	movs	r0, r4
    478a:	4b34      	ldr	r3, [pc, #208]	; (485c <_i2c_master_interrupt_handler+0x1e8>)
    478c:	4798      	blx	r3
    478e:	e7ba      	b.n	4706 <_i2c_master_interrupt_handler+0x92>
    4790:	331f      	adds	r3, #31
    4792:	5ce3      	ldrb	r3, [r4, r3]
    4794:	2b00      	cmp	r3, #0
    4796:	d000      	beq.n	479a <_i2c_master_interrupt_handler+0x126>
    4798:	e78c      	b.n	46b4 <_i2c_master_interrupt_handler+0x40>
    479a:	3303      	adds	r3, #3
    479c:	752b      	strb	r3, [r5, #20]
    479e:	2300      	movs	r3, #0
    47a0:	8363      	strh	r3, [r4, #26]
    47a2:	3325      	adds	r3, #37	; 0x25
    47a4:	2200      	movs	r2, #0
    47a6:	54e2      	strb	r2, [r4, r3]
    47a8:	7aa3      	ldrb	r3, [r4, #10]
    47aa:	2b00      	cmp	r3, #0
    47ac:	d107      	bne.n	47be <_i2c_master_interrupt_handler+0x14a>
    47ae:	2301      	movs	r3, #1
    47b0:	762b      	strb	r3, [r5, #24]
    47b2:	07f3      	lsls	r3, r6, #31
    47b4:	d5a7      	bpl.n	4706 <_i2c_master_interrupt_handler+0x92>
    47b6:	68e3      	ldr	r3, [r4, #12]
    47b8:	0020      	movs	r0, r4
    47ba:	4798      	blx	r3
    47bc:	e7a3      	b.n	4706 <_i2c_master_interrupt_handler+0x92>
    47be:	0020      	movs	r0, r4
    47c0:	4b24      	ldr	r3, [pc, #144]	; (4854 <_i2c_master_interrupt_handler+0x1e0>)
    47c2:	4798      	blx	r3
    47c4:	686a      	ldr	r2, [r5, #4]
    47c6:	23c0      	movs	r3, #192	; 0xc0
    47c8:	029b      	lsls	r3, r3, #10
    47ca:	4313      	orrs	r3, r2
    47cc:	606b      	str	r3, [r5, #4]
    47ce:	e7f0      	b.n	47b2 <_i2c_master_interrupt_handler+0x13e>
    47d0:	2324      	movs	r3, #36	; 0x24
    47d2:	5ce3      	ldrb	r3, [r4, r3]
    47d4:	2b00      	cmp	r3, #0
    47d6:	d103      	bne.n	47e0 <_i2c_master_interrupt_handler+0x16c>
    47d8:	0020      	movs	r0, r4
    47da:	4b20      	ldr	r3, [pc, #128]	; (485c <_i2c_master_interrupt_handler+0x1e8>)
    47dc:	4798      	blx	r3
    47de:	e792      	b.n	4706 <_i2c_master_interrupt_handler+0x92>
    47e0:	0020      	movs	r0, r4
    47e2:	4b1d      	ldr	r3, [pc, #116]	; (4858 <_i2c_master_interrupt_handler+0x1e4>)
    47e4:	4798      	blx	r3
    47e6:	e78e      	b.n	4706 <_i2c_master_interrupt_handler+0x92>
    47e8:	331f      	adds	r3, #31
    47ea:	5ce3      	ldrb	r3, [r4, r3]
    47ec:	2b01      	cmp	r3, #1
    47ee:	d196      	bne.n	471e <_i2c_master_interrupt_handler+0xaa>
    47f0:	7e2b      	ldrb	r3, [r5, #24]
    47f2:	079b      	lsls	r3, r3, #30
    47f4:	d501      	bpl.n	47fa <_i2c_master_interrupt_handler+0x186>
    47f6:	2302      	movs	r3, #2
    47f8:	762b      	strb	r3, [r5, #24]
    47fa:	2303      	movs	r3, #3
    47fc:	752b      	strb	r3, [r5, #20]
    47fe:	2300      	movs	r3, #0
    4800:	8363      	strh	r3, [r4, #26]
    4802:	3325      	adds	r3, #37	; 0x25
    4804:	2200      	movs	r2, #0
    4806:	54e2      	strb	r2, [r4, r3]
    4808:	07b3      	lsls	r3, r6, #30
    480a:	d503      	bpl.n	4814 <_i2c_master_interrupt_handler+0x1a0>
    480c:	2324      	movs	r3, #36	; 0x24
    480e:	5ce3      	ldrb	r3, [r4, r3]
    4810:	2b01      	cmp	r3, #1
    4812:	d00b      	beq.n	482c <_i2c_master_interrupt_handler+0x1b8>
    4814:	07f3      	lsls	r3, r6, #31
    4816:	d400      	bmi.n	481a <_i2c_master_interrupt_handler+0x1a6>
    4818:	e781      	b.n	471e <_i2c_master_interrupt_handler+0xaa>
    481a:	2324      	movs	r3, #36	; 0x24
    481c:	5ce3      	ldrb	r3, [r4, r3]
    481e:	2b00      	cmp	r3, #0
    4820:	d000      	beq.n	4824 <_i2c_master_interrupt_handler+0x1b0>
    4822:	e77c      	b.n	471e <_i2c_master_interrupt_handler+0xaa>
    4824:	68e3      	ldr	r3, [r4, #12]
    4826:	0020      	movs	r0, r4
    4828:	4798      	blx	r3
    482a:	e778      	b.n	471e <_i2c_master_interrupt_handler+0xaa>
    482c:	6923      	ldr	r3, [r4, #16]
    482e:	0020      	movs	r0, r4
    4830:	4798      	blx	r3
    4832:	e774      	b.n	471e <_i2c_master_interrupt_handler+0xaa>
    4834:	0020      	movs	r0, r4
    4836:	4b07      	ldr	r3, [pc, #28]	; (4854 <_i2c_master_interrupt_handler+0x1e0>)
    4838:	4798      	blx	r3
    483a:	686a      	ldr	r2, [r5, #4]
    483c:	23e0      	movs	r3, #224	; 0xe0
    483e:	02db      	lsls	r3, r3, #11
    4840:	4313      	orrs	r3, r2
    4842:	606b      	str	r3, [r5, #4]
    4844:	e780      	b.n	4748 <_i2c_master_interrupt_handler+0xd4>
    4846:	6963      	ldr	r3, [r4, #20]
    4848:	0020      	movs	r0, r4
    484a:	4798      	blx	r3
    484c:	e77f      	b.n	474e <_i2c_master_interrupt_handler+0xda>
    484e:	46c0      	nop			; (mov r8, r8)
    4850:	200029b4 	.word	0x200029b4
    4854:	000045a5 	.word	0x000045a5
    4858:	000045b1 	.word	0x000045b1
    485c:	00004639 	.word	0x00004639

00004860 <_tc_interrupt_handler>:
    4860:	b570      	push	{r4, r5, r6, lr}
    4862:	0080      	lsls	r0, r0, #2
    4864:	4b16      	ldr	r3, [pc, #88]	; (48c0 <_tc_interrupt_handler+0x60>)
    4866:	58c4      	ldr	r4, [r0, r3]
    4868:	6823      	ldr	r3, [r4, #0]
    486a:	7b9d      	ldrb	r5, [r3, #14]
    486c:	7e22      	ldrb	r2, [r4, #24]
    486e:	7e63      	ldrb	r3, [r4, #25]
    4870:	4013      	ands	r3, r2
    4872:	401d      	ands	r5, r3
    4874:	07eb      	lsls	r3, r5, #31
    4876:	d406      	bmi.n	4886 <_tc_interrupt_handler+0x26>
    4878:	07ab      	lsls	r3, r5, #30
    487a:	d40b      	bmi.n	4894 <_tc_interrupt_handler+0x34>
    487c:	06eb      	lsls	r3, r5, #27
    487e:	d410      	bmi.n	48a2 <_tc_interrupt_handler+0x42>
    4880:	06ab      	lsls	r3, r5, #26
    4882:	d415      	bmi.n	48b0 <_tc_interrupt_handler+0x50>
    4884:	bd70      	pop	{r4, r5, r6, pc}
    4886:	0020      	movs	r0, r4
    4888:	68a3      	ldr	r3, [r4, #8]
    488a:	4798      	blx	r3
    488c:	2301      	movs	r3, #1
    488e:	6822      	ldr	r2, [r4, #0]
    4890:	7393      	strb	r3, [r2, #14]
    4892:	e7f1      	b.n	4878 <_tc_interrupt_handler+0x18>
    4894:	0020      	movs	r0, r4
    4896:	68e3      	ldr	r3, [r4, #12]
    4898:	4798      	blx	r3
    489a:	2302      	movs	r3, #2
    489c:	6822      	ldr	r2, [r4, #0]
    489e:	7393      	strb	r3, [r2, #14]
    48a0:	e7ec      	b.n	487c <_tc_interrupt_handler+0x1c>
    48a2:	0020      	movs	r0, r4
    48a4:	6923      	ldr	r3, [r4, #16]
    48a6:	4798      	blx	r3
    48a8:	2310      	movs	r3, #16
    48aa:	6822      	ldr	r2, [r4, #0]
    48ac:	7393      	strb	r3, [r2, #14]
    48ae:	e7e7      	b.n	4880 <_tc_interrupt_handler+0x20>
    48b0:	0020      	movs	r0, r4
    48b2:	6963      	ldr	r3, [r4, #20]
    48b4:	4798      	blx	r3
    48b6:	6823      	ldr	r3, [r4, #0]
    48b8:	2220      	movs	r2, #32
    48ba:	739a      	strb	r2, [r3, #14]
    48bc:	e7e2      	b.n	4884 <_tc_interrupt_handler+0x24>
    48be:	46c0      	nop			; (mov r8, r8)
    48c0:	20002624 	.word	0x20002624

000048c4 <TC3_Handler>:
    48c4:	b510      	push	{r4, lr}
    48c6:	2000      	movs	r0, #0
    48c8:	4b01      	ldr	r3, [pc, #4]	; (48d0 <TC3_Handler+0xc>)
    48ca:	4798      	blx	r3
    48cc:	bd10      	pop	{r4, pc}
    48ce:	46c0      	nop			; (mov r8, r8)
    48d0:	00004861 	.word	0x00004861

000048d4 <TC4_Handler>:
    48d4:	b510      	push	{r4, lr}
    48d6:	2001      	movs	r0, #1
    48d8:	4b01      	ldr	r3, [pc, #4]	; (48e0 <TC4_Handler+0xc>)
    48da:	4798      	blx	r3
    48dc:	bd10      	pop	{r4, pc}
    48de:	46c0      	nop			; (mov r8, r8)
    48e0:	00004861 	.word	0x00004861

000048e4 <TC5_Handler>:
    48e4:	b510      	push	{r4, lr}
    48e6:	2002      	movs	r0, #2
    48e8:	4b01      	ldr	r3, [pc, #4]	; (48f0 <TC5_Handler+0xc>)
    48ea:	4798      	blx	r3
    48ec:	bd10      	pop	{r4, pc}
    48ee:	46c0      	nop			; (mov r8, r8)
    48f0:	00004861 	.word	0x00004861

000048f4 <_tc_get_inst_index>:
    48f4:	b530      	push	{r4, r5, lr}
    48f6:	b085      	sub	sp, #20
    48f8:	aa01      	add	r2, sp, #4
    48fa:	4b0b      	ldr	r3, [pc, #44]	; (4928 <_tc_get_inst_index+0x34>)
    48fc:	cb32      	ldmia	r3!, {r1, r4, r5}
    48fe:	c232      	stmia	r2!, {r1, r4, r5}
    4900:	9b01      	ldr	r3, [sp, #4]
    4902:	4298      	cmp	r0, r3
    4904:	d00d      	beq.n	4922 <_tc_get_inst_index+0x2e>
    4906:	9b02      	ldr	r3, [sp, #8]
    4908:	4298      	cmp	r0, r3
    490a:	d008      	beq.n	491e <_tc_get_inst_index+0x2a>
    490c:	2300      	movs	r3, #0
    490e:	9a03      	ldr	r2, [sp, #12]
    4910:	4282      	cmp	r2, r0
    4912:	d002      	beq.n	491a <_tc_get_inst_index+0x26>
    4914:	0018      	movs	r0, r3
    4916:	b005      	add	sp, #20
    4918:	bd30      	pop	{r4, r5, pc}
    491a:	3302      	adds	r3, #2
    491c:	e002      	b.n	4924 <_tc_get_inst_index+0x30>
    491e:	2301      	movs	r3, #1
    4920:	e000      	b.n	4924 <_tc_get_inst_index+0x30>
    4922:	2300      	movs	r3, #0
    4924:	b2db      	uxtb	r3, r3
    4926:	e7f5      	b.n	4914 <_tc_get_inst_index+0x20>
    4928:	0000c4a0 	.word	0x0000c4a0

0000492c <tc_init>:
    492c:	b5f0      	push	{r4, r5, r6, r7, lr}
    492e:	b087      	sub	sp, #28
    4930:	0004      	movs	r4, r0
    4932:	000d      	movs	r5, r1
    4934:	0016      	movs	r6, r2
    4936:	0008      	movs	r0, r1
    4938:	4b85      	ldr	r3, [pc, #532]	; (4b50 <tc_init+0x224>)
    493a:	4798      	blx	r3
    493c:	0007      	movs	r7, r0
    493e:	ab05      	add	r3, sp, #20
    4940:	221b      	movs	r2, #27
    4942:	701a      	strb	r2, [r3, #0]
    4944:	3201      	adds	r2, #1
    4946:	705a      	strb	r2, [r3, #1]
    4948:	709a      	strb	r2, [r3, #2]
    494a:	ab03      	add	r3, sp, #12
    494c:	2280      	movs	r2, #128	; 0x80
    494e:	0112      	lsls	r2, r2, #4
    4950:	801a      	strh	r2, [r3, #0]
    4952:	2280      	movs	r2, #128	; 0x80
    4954:	0152      	lsls	r2, r2, #5
    4956:	805a      	strh	r2, [r3, #2]
    4958:	2280      	movs	r2, #128	; 0x80
    495a:	0192      	lsls	r2, r2, #6
    495c:	809a      	strh	r2, [r3, #4]
    495e:	2300      	movs	r3, #0
    4960:	60a3      	str	r3, [r4, #8]
    4962:	60e3      	str	r3, [r4, #12]
    4964:	6123      	str	r3, [r4, #16]
    4966:	6163      	str	r3, [r4, #20]
    4968:	7623      	strb	r3, [r4, #24]
    496a:	7663      	strb	r3, [r4, #25]
    496c:	0082      	lsls	r2, r0, #2
    496e:	4b79      	ldr	r3, [pc, #484]	; (4b54 <tc_init+0x228>)
    4970:	50d4      	str	r4, [r2, r3]
    4972:	6025      	str	r5, [r4, #0]
    4974:	78b3      	ldrb	r3, [r6, #2]
    4976:	2b08      	cmp	r3, #8
    4978:	d006      	beq.n	4988 <tc_init+0x5c>
    497a:	7123      	strb	r3, [r4, #4]
    497c:	882b      	ldrh	r3, [r5, #0]
    497e:	2005      	movs	r0, #5
    4980:	07db      	lsls	r3, r3, #31
    4982:	d505      	bpl.n	4990 <tc_init+0x64>
    4984:	b007      	add	sp, #28
    4986:	bdf0      	pop	{r4, r5, r6, r7, pc}
    4988:	2017      	movs	r0, #23
    498a:	07fa      	lsls	r2, r7, #31
    498c:	d5fa      	bpl.n	4984 <tc_init+0x58>
    498e:	e7f4      	b.n	497a <tc_init+0x4e>
    4990:	7beb      	ldrb	r3, [r5, #15]
    4992:	3017      	adds	r0, #23
    4994:	06db      	lsls	r3, r3, #27
    4996:	d4f5      	bmi.n	4984 <tc_init+0x58>
    4998:	882b      	ldrh	r3, [r5, #0]
    499a:	079b      	lsls	r3, r3, #30
    499c:	d4f2      	bmi.n	4984 <tc_init+0x58>
    499e:	7c33      	ldrb	r3, [r6, #16]
    49a0:	2b00      	cmp	r3, #0
    49a2:	d179      	bne.n	4a98 <tc_init+0x16c>
    49a4:	7f33      	ldrb	r3, [r6, #28]
    49a6:	2b00      	cmp	r3, #0
    49a8:	d000      	beq.n	49ac <tc_init+0x80>
    49aa:	e081      	b.n	4ab0 <tc_init+0x184>
    49ac:	496a      	ldr	r1, [pc, #424]	; (4b58 <tc_init+0x22c>)
    49ae:	6a08      	ldr	r0, [r1, #32]
    49b0:	007a      	lsls	r2, r7, #1
    49b2:	ab03      	add	r3, sp, #12
    49b4:	5ad3      	ldrh	r3, [r2, r3]
    49b6:	4303      	orrs	r3, r0
    49b8:	620b      	str	r3, [r1, #32]
    49ba:	78b3      	ldrb	r3, [r6, #2]
    49bc:	2b08      	cmp	r3, #8
    49be:	d100      	bne.n	49c2 <tc_init+0x96>
    49c0:	e086      	b.n	4ad0 <tc_init+0x1a4>
    49c2:	a901      	add	r1, sp, #4
    49c4:	7833      	ldrb	r3, [r6, #0]
    49c6:	700b      	strb	r3, [r1, #0]
    49c8:	ab05      	add	r3, sp, #20
    49ca:	5ddf      	ldrb	r7, [r3, r7]
    49cc:	0038      	movs	r0, r7
    49ce:	4b63      	ldr	r3, [pc, #396]	; (4b5c <tc_init+0x230>)
    49d0:	4798      	blx	r3
    49d2:	0038      	movs	r0, r7
    49d4:	4b62      	ldr	r3, [pc, #392]	; (4b60 <tc_init+0x234>)
    49d6:	4798      	blx	r3
    49d8:	8931      	ldrh	r1, [r6, #8]
    49da:	88b3      	ldrh	r3, [r6, #4]
    49dc:	430b      	orrs	r3, r1
    49de:	78b1      	ldrb	r1, [r6, #2]
    49e0:	79b2      	ldrb	r2, [r6, #6]
    49e2:	4311      	orrs	r1, r2
    49e4:	4319      	orrs	r1, r3
    49e6:	7873      	ldrb	r3, [r6, #1]
    49e8:	2b00      	cmp	r3, #0
    49ea:	d002      	beq.n	49f2 <tc_init+0xc6>
    49ec:	2380      	movs	r3, #128	; 0x80
    49ee:	011b      	lsls	r3, r3, #4
    49f0:	4319      	orrs	r1, r3
    49f2:	6822      	ldr	r2, [r4, #0]
    49f4:	7bd3      	ldrb	r3, [r2, #15]
    49f6:	b25b      	sxtb	r3, r3
    49f8:	2b00      	cmp	r3, #0
    49fa:	dbfb      	blt.n	49f4 <tc_init+0xc8>
    49fc:	8029      	strh	r1, [r5, #0]
    49fe:	7b71      	ldrb	r1, [r6, #13]
    4a00:	1e4b      	subs	r3, r1, #1
    4a02:	4199      	sbcs	r1, r3
    4a04:	0089      	lsls	r1, r1, #2
    4a06:	7bb3      	ldrb	r3, [r6, #14]
    4a08:	2b00      	cmp	r3, #0
    4a0a:	d001      	beq.n	4a10 <tc_init+0xe4>
    4a0c:	2301      	movs	r3, #1
    4a0e:	4319      	orrs	r1, r3
    4a10:	6822      	ldr	r2, [r4, #0]
    4a12:	7bd3      	ldrb	r3, [r2, #15]
    4a14:	b25b      	sxtb	r3, r3
    4a16:	2b00      	cmp	r3, #0
    4a18:	dbfb      	blt.n	4a12 <tc_init+0xe6>
    4a1a:	23ff      	movs	r3, #255	; 0xff
    4a1c:	712b      	strb	r3, [r5, #4]
    4a1e:	2900      	cmp	r1, #0
    4a20:	d005      	beq.n	4a2e <tc_init+0x102>
    4a22:	6822      	ldr	r2, [r4, #0]
    4a24:	7bd3      	ldrb	r3, [r2, #15]
    4a26:	b25b      	sxtb	r3, r3
    4a28:	2b00      	cmp	r3, #0
    4a2a:	dbfb      	blt.n	4a24 <tc_init+0xf8>
    4a2c:	7169      	strb	r1, [r5, #5]
    4a2e:	7ab1      	ldrb	r1, [r6, #10]
    4a30:	7af3      	ldrb	r3, [r6, #11]
    4a32:	2b00      	cmp	r3, #0
    4a34:	d001      	beq.n	4a3a <tc_init+0x10e>
    4a36:	2310      	movs	r3, #16
    4a38:	4319      	orrs	r1, r3
    4a3a:	7b33      	ldrb	r3, [r6, #12]
    4a3c:	2b00      	cmp	r3, #0
    4a3e:	d001      	beq.n	4a44 <tc_init+0x118>
    4a40:	2320      	movs	r3, #32
    4a42:	4319      	orrs	r1, r3
    4a44:	6822      	ldr	r2, [r4, #0]
    4a46:	7bd3      	ldrb	r3, [r2, #15]
    4a48:	b25b      	sxtb	r3, r3
    4a4a:	2b00      	cmp	r3, #0
    4a4c:	dbfb      	blt.n	4a46 <tc_init+0x11a>
    4a4e:	71a9      	strb	r1, [r5, #6]
    4a50:	6822      	ldr	r2, [r4, #0]
    4a52:	7bd3      	ldrb	r3, [r2, #15]
    4a54:	b25b      	sxtb	r3, r3
    4a56:	2b00      	cmp	r3, #0
    4a58:	dbfb      	blt.n	4a52 <tc_init+0x126>
    4a5a:	7923      	ldrb	r3, [r4, #4]
    4a5c:	2b04      	cmp	r3, #4
    4a5e:	d03f      	beq.n	4ae0 <tc_init+0x1b4>
    4a60:	2b08      	cmp	r3, #8
    4a62:	d05e      	beq.n	4b22 <tc_init+0x1f6>
    4a64:	2017      	movs	r0, #23
    4a66:	2b00      	cmp	r3, #0
    4a68:	d000      	beq.n	4a6c <tc_init+0x140>
    4a6a:	e78b      	b.n	4984 <tc_init+0x58>
    4a6c:	7bd3      	ldrb	r3, [r2, #15]
    4a6e:	b25b      	sxtb	r3, r3
    4a70:	2b00      	cmp	r3, #0
    4a72:	dbfb      	blt.n	4a6c <tc_init+0x140>
    4a74:	8d33      	ldrh	r3, [r6, #40]	; 0x28
    4a76:	822b      	strh	r3, [r5, #16]
    4a78:	6822      	ldr	r2, [r4, #0]
    4a7a:	7bd3      	ldrb	r3, [r2, #15]
    4a7c:	b25b      	sxtb	r3, r3
    4a7e:	2b00      	cmp	r3, #0
    4a80:	dbfb      	blt.n	4a7a <tc_init+0x14e>
    4a82:	8d73      	ldrh	r3, [r6, #42]	; 0x2a
    4a84:	832b      	strh	r3, [r5, #24]
    4a86:	6822      	ldr	r2, [r4, #0]
    4a88:	7bd3      	ldrb	r3, [r2, #15]
    4a8a:	b25b      	sxtb	r3, r3
    4a8c:	2b00      	cmp	r3, #0
    4a8e:	dbfb      	blt.n	4a88 <tc_init+0x15c>
    4a90:	8db3      	ldrh	r3, [r6, #44]	; 0x2c
    4a92:	836b      	strh	r3, [r5, #26]
    4a94:	2000      	movs	r0, #0
    4a96:	e775      	b.n	4984 <tc_init+0x58>
    4a98:	a902      	add	r1, sp, #8
    4a9a:	2301      	movs	r3, #1
    4a9c:	708b      	strb	r3, [r1, #2]
    4a9e:	2200      	movs	r2, #0
    4aa0:	70ca      	strb	r2, [r1, #3]
    4aa2:	7e32      	ldrb	r2, [r6, #24]
    4aa4:	700a      	strb	r2, [r1, #0]
    4aa6:	704b      	strb	r3, [r1, #1]
    4aa8:	7d30      	ldrb	r0, [r6, #20]
    4aaa:	4b2e      	ldr	r3, [pc, #184]	; (4b64 <tc_init+0x238>)
    4aac:	4798      	blx	r3
    4aae:	e779      	b.n	49a4 <tc_init+0x78>
    4ab0:	a902      	add	r1, sp, #8
    4ab2:	2301      	movs	r3, #1
    4ab4:	708b      	strb	r3, [r1, #2]
    4ab6:	2200      	movs	r2, #0
    4ab8:	70ca      	strb	r2, [r1, #3]
    4aba:	3224      	adds	r2, #36	; 0x24
    4abc:	18b2      	adds	r2, r6, r2
    4abe:	7812      	ldrb	r2, [r2, #0]
    4ac0:	700a      	strb	r2, [r1, #0]
    4ac2:	704b      	strb	r3, [r1, #1]
    4ac4:	331f      	adds	r3, #31
    4ac6:	18f3      	adds	r3, r6, r3
    4ac8:	7818      	ldrb	r0, [r3, #0]
    4aca:	4b26      	ldr	r3, [pc, #152]	; (4b64 <tc_init+0x238>)
    4acc:	4798      	blx	r3
    4ace:	e76d      	b.n	49ac <tc_init+0x80>
    4ad0:	6a08      	ldr	r0, [r1, #32]
    4ad2:	1c7a      	adds	r2, r7, #1
    4ad4:	0052      	lsls	r2, r2, #1
    4ad6:	ab03      	add	r3, sp, #12
    4ad8:	5ad3      	ldrh	r3, [r2, r3]
    4ada:	4303      	orrs	r3, r0
    4adc:	620b      	str	r3, [r1, #32]
    4ade:	e770      	b.n	49c2 <tc_init+0x96>
    4ae0:	7bd3      	ldrb	r3, [r2, #15]
    4ae2:	b25b      	sxtb	r3, r3
    4ae4:	2b00      	cmp	r3, #0
    4ae6:	dbfb      	blt.n	4ae0 <tc_init+0x1b4>
    4ae8:	2328      	movs	r3, #40	; 0x28
    4aea:	5cf3      	ldrb	r3, [r6, r3]
    4aec:	742b      	strb	r3, [r5, #16]
    4aee:	6822      	ldr	r2, [r4, #0]
    4af0:	7bd3      	ldrb	r3, [r2, #15]
    4af2:	b25b      	sxtb	r3, r3
    4af4:	2b00      	cmp	r3, #0
    4af6:	dbfb      	blt.n	4af0 <tc_init+0x1c4>
    4af8:	2329      	movs	r3, #41	; 0x29
    4afa:	5cf3      	ldrb	r3, [r6, r3]
    4afc:	752b      	strb	r3, [r5, #20]
    4afe:	6822      	ldr	r2, [r4, #0]
    4b00:	7bd3      	ldrb	r3, [r2, #15]
    4b02:	b25b      	sxtb	r3, r3
    4b04:	2b00      	cmp	r3, #0
    4b06:	dbfb      	blt.n	4b00 <tc_init+0x1d4>
    4b08:	232a      	movs	r3, #42	; 0x2a
    4b0a:	5cf3      	ldrb	r3, [r6, r3]
    4b0c:	762b      	strb	r3, [r5, #24]
    4b0e:	6822      	ldr	r2, [r4, #0]
    4b10:	7bd3      	ldrb	r3, [r2, #15]
    4b12:	b25b      	sxtb	r3, r3
    4b14:	2b00      	cmp	r3, #0
    4b16:	dbfb      	blt.n	4b10 <tc_init+0x1e4>
    4b18:	232b      	movs	r3, #43	; 0x2b
    4b1a:	5cf3      	ldrb	r3, [r6, r3]
    4b1c:	766b      	strb	r3, [r5, #25]
    4b1e:	2000      	movs	r0, #0
    4b20:	e730      	b.n	4984 <tc_init+0x58>
    4b22:	7bd3      	ldrb	r3, [r2, #15]
    4b24:	b25b      	sxtb	r3, r3
    4b26:	2b00      	cmp	r3, #0
    4b28:	dbfb      	blt.n	4b22 <tc_init+0x1f6>
    4b2a:	6ab3      	ldr	r3, [r6, #40]	; 0x28
    4b2c:	612b      	str	r3, [r5, #16]
    4b2e:	6822      	ldr	r2, [r4, #0]
    4b30:	7bd3      	ldrb	r3, [r2, #15]
    4b32:	b25b      	sxtb	r3, r3
    4b34:	2b00      	cmp	r3, #0
    4b36:	dbfb      	blt.n	4b30 <tc_init+0x204>
    4b38:	6af3      	ldr	r3, [r6, #44]	; 0x2c
    4b3a:	61ab      	str	r3, [r5, #24]
    4b3c:	6822      	ldr	r2, [r4, #0]
    4b3e:	7bd3      	ldrb	r3, [r2, #15]
    4b40:	b25b      	sxtb	r3, r3
    4b42:	2b00      	cmp	r3, #0
    4b44:	dbfb      	blt.n	4b3e <tc_init+0x212>
    4b46:	6b33      	ldr	r3, [r6, #48]	; 0x30
    4b48:	61eb      	str	r3, [r5, #28]
    4b4a:	2000      	movs	r0, #0
    4b4c:	e71a      	b.n	4984 <tc_init+0x58>
    4b4e:	46c0      	nop			; (mov r8, r8)
    4b50:	000048f5 	.word	0x000048f5
    4b54:	20002624 	.word	0x20002624
    4b58:	40000400 	.word	0x40000400
    4b5c:	000089d5 	.word	0x000089d5
    4b60:	00008949 	.word	0x00008949
    4b64:	00008acd 	.word	0x00008acd

00004b68 <udd_sleep_mode>:
    4b68:	b510      	push	{r4, lr}
    4b6a:	b084      	sub	sp, #16
    4b6c:	ab03      	add	r3, sp, #12
    4b6e:	2200      	movs	r2, #0
    4b70:	701a      	strb	r2, [r3, #0]
    4b72:	3203      	adds	r2, #3
    4b74:	705a      	strb	r2, [r3, #1]
    4b76:	3a01      	subs	r2, #1
    4b78:	709a      	strb	r2, [r3, #2]
    4b7a:	3a01      	subs	r2, #1
    4b7c:	70da      	strb	r2, [r3, #3]
    4b7e:	4b27      	ldr	r3, [pc, #156]	; (4c1c <udd_sleep_mode+0xb4>)
    4b80:	781b      	ldrb	r3, [r3, #0]
    4b82:	4283      	cmp	r3, r0
    4b84:	d007      	beq.n	4b96 <udd_sleep_mode+0x2e>
    4b86:	2800      	cmp	r0, #0
    4b88:	d107      	bne.n	4b9a <udd_sleep_mode+0x32>
    4b8a:	4b24      	ldr	r3, [pc, #144]	; (4c1c <udd_sleep_mode+0xb4>)
    4b8c:	781b      	ldrb	r3, [r3, #0]
    4b8e:	2b00      	cmp	r3, #0
    4b90:	d123      	bne.n	4bda <udd_sleep_mode+0x72>
    4b92:	4b22      	ldr	r3, [pc, #136]	; (4c1c <udd_sleep_mode+0xb4>)
    4b94:	7018      	strb	r0, [r3, #0]
    4b96:	b004      	add	sp, #16
    4b98:	bd10      	pop	{r4, pc}
    4b9a:	ab03      	add	r3, sp, #12
    4b9c:	5c1b      	ldrb	r3, [r3, r0]
    4b9e:	4a20      	ldr	r2, [pc, #128]	; (4c20 <udd_sleep_mode+0xb8>)
    4ba0:	5cd2      	ldrb	r2, [r2, r3]
    4ba2:	2aff      	cmp	r2, #255	; 0xff
    4ba4:	d100      	bne.n	4ba8 <udd_sleep_mode+0x40>
    4ba6:	e7fe      	b.n	4ba6 <udd_sleep_mode+0x3e>
    4ba8:	f3ef 8210 	mrs	r2, PRIMASK
    4bac:	4251      	negs	r1, r2
    4bae:	414a      	adcs	r2, r1
    4bb0:	9201      	str	r2, [sp, #4]
    4bb2:	b672      	cpsid	i
    4bb4:	f3bf 8f5f 	dmb	sy
    4bb8:	2100      	movs	r1, #0
    4bba:	4a1a      	ldr	r2, [pc, #104]	; (4c24 <udd_sleep_mode+0xbc>)
    4bbc:	7011      	strb	r1, [r2, #0]
    4bbe:	9c01      	ldr	r4, [sp, #4]
    4bc0:	4917      	ldr	r1, [pc, #92]	; (4c20 <udd_sleep_mode+0xb8>)
    4bc2:	5cca      	ldrb	r2, [r1, r3]
    4bc4:	3201      	adds	r2, #1
    4bc6:	54ca      	strb	r2, [r1, r3]
    4bc8:	2c00      	cmp	r4, #0
    4bca:	d0de      	beq.n	4b8a <udd_sleep_mode+0x22>
    4bcc:	2201      	movs	r2, #1
    4bce:	4b15      	ldr	r3, [pc, #84]	; (4c24 <udd_sleep_mode+0xbc>)
    4bd0:	701a      	strb	r2, [r3, #0]
    4bd2:	f3bf 8f5f 	dmb	sy
    4bd6:	b662      	cpsie	i
    4bd8:	e7d7      	b.n	4b8a <udd_sleep_mode+0x22>
    4bda:	aa03      	add	r2, sp, #12
    4bdc:	5cd3      	ldrb	r3, [r2, r3]
    4bde:	4a10      	ldr	r2, [pc, #64]	; (4c20 <udd_sleep_mode+0xb8>)
    4be0:	5cd2      	ldrb	r2, [r2, r3]
    4be2:	2a00      	cmp	r2, #0
    4be4:	d100      	bne.n	4be8 <udd_sleep_mode+0x80>
    4be6:	e7fe      	b.n	4be6 <udd_sleep_mode+0x7e>
    4be8:	f3ef 8210 	mrs	r2, PRIMASK
    4bec:	4251      	negs	r1, r2
    4bee:	414a      	adcs	r2, r1
    4bf0:	9202      	str	r2, [sp, #8]
    4bf2:	b672      	cpsid	i
    4bf4:	f3bf 8f5f 	dmb	sy
    4bf8:	2100      	movs	r1, #0
    4bfa:	4a0a      	ldr	r2, [pc, #40]	; (4c24 <udd_sleep_mode+0xbc>)
    4bfc:	7011      	strb	r1, [r2, #0]
    4bfe:	9c02      	ldr	r4, [sp, #8]
    4c00:	4907      	ldr	r1, [pc, #28]	; (4c20 <udd_sleep_mode+0xb8>)
    4c02:	5cca      	ldrb	r2, [r1, r3]
    4c04:	3a01      	subs	r2, #1
    4c06:	54ca      	strb	r2, [r1, r3]
    4c08:	2c00      	cmp	r4, #0
    4c0a:	d0c2      	beq.n	4b92 <udd_sleep_mode+0x2a>
    4c0c:	2201      	movs	r2, #1
    4c0e:	4b05      	ldr	r3, [pc, #20]	; (4c24 <udd_sleep_mode+0xbc>)
    4c10:	701a      	strb	r2, [r3, #0]
    4c12:	f3bf 8f5f 	dmb	sy
    4c16:	b662      	cpsie	i
    4c18:	e7bb      	b.n	4b92 <udd_sleep_mode+0x2a>
    4c1a:	46c0      	nop			; (mov r8, r8)
    4c1c:	20000f04 	.word	0x20000f04
    4c20:	200029d8 	.word	0x200029d8
    4c24:	20000108 	.word	0x20000108

00004c28 <udd_ep_get_job>:
    4c28:	0643      	lsls	r3, r0, #25
    4c2a:	d00b      	beq.n	4c44 <udd_ep_get_job+0x1c>
    4c2c:	230f      	movs	r3, #15
    4c2e:	4003      	ands	r3, r0
    4c30:	005b      	lsls	r3, r3, #1
    4c32:	09c0      	lsrs	r0, r0, #7
    4c34:	1818      	adds	r0, r3, r0
    4c36:	3802      	subs	r0, #2
    4c38:	0083      	lsls	r3, r0, #2
    4c3a:	1818      	adds	r0, r3, r0
    4c3c:	0080      	lsls	r0, r0, #2
    4c3e:	4b02      	ldr	r3, [pc, #8]	; (4c48 <udd_ep_get_job+0x20>)
    4c40:	1818      	adds	r0, r3, r0
    4c42:	4770      	bx	lr
    4c44:	2000      	movs	r0, #0
    4c46:	e7fc      	b.n	4c42 <udd_ep_get_job+0x1a>
    4c48:	20000e8c 	.word	0x20000e8c

00004c4c <udd_ep_transfer_process>:
    4c4c:	b5f0      	push	{r4, r5, r6, r7, lr}
    4c4e:	46d6      	mov	lr, sl
    4c50:	464f      	mov	r7, r9
    4c52:	4646      	mov	r6, r8
    4c54:	b5c0      	push	{r6, r7, lr}
    4c56:	4689      	mov	r9, r1
    4c58:	798d      	ldrb	r5, [r1, #6]
    4c5a:	b26b      	sxtb	r3, r5
    4c5c:	2b00      	cmp	r3, #0
    4c5e:	db26      	blt.n	4cae <udd_ep_transfer_process+0x62>
    4c60:	0028      	movs	r0, r5
    4c62:	4b5e      	ldr	r3, [pc, #376]	; (4ddc <udd_ep_transfer_process+0x190>)
    4c64:	4798      	blx	r3
    4c66:	0004      	movs	r4, r0
    4c68:	270f      	movs	r7, #15
    4c6a:	402f      	ands	r7, r5
    4c6c:	8a03      	ldrh	r3, [r0, #16]
    4c6e:	4698      	mov	r8, r3
    4c70:	464b      	mov	r3, r9
    4c72:	881b      	ldrh	r3, [r3, #0]
    4c74:	469a      	mov	sl, r3
    4c76:	7c83      	ldrb	r3, [r0, #18]
    4c78:	075b      	lsls	r3, r3, #29
    4c7a:	d46a      	bmi.n	4d52 <udd_ep_transfer_process+0x106>
    4c7c:	68e3      	ldr	r3, [r4, #12]
    4c7e:	4453      	add	r3, sl
    4c80:	001e      	movs	r6, r3
    4c82:	60e3      	str	r3, [r4, #12]
    4c84:	68a3      	ldr	r3, [r4, #8]
    4c86:	429e      	cmp	r6, r3
    4c88:	d800      	bhi.n	4c8c <udd_ep_transfer_process+0x40>
    4c8a:	e074      	b.n	4d76 <udd_ep_transfer_process+0x12a>
    4c8c:	60e3      	str	r3, [r4, #12]
    4c8e:	7ca3      	ldrb	r3, [r4, #18]
    4c90:	2201      	movs	r2, #1
    4c92:	4393      	bics	r3, r2
    4c94:	74a3      	strb	r3, [r4, #18]
    4c96:	6823      	ldr	r3, [r4, #0]
    4c98:	2b00      	cmp	r3, #0
    4c9a:	d003      	beq.n	4ca4 <udd_ep_transfer_process+0x58>
    4c9c:	68e1      	ldr	r1, [r4, #12]
    4c9e:	002a      	movs	r2, r5
    4ca0:	2000      	movs	r0, #0
    4ca2:	4798      	blx	r3
    4ca4:	bc1c      	pop	{r2, r3, r4}
    4ca6:	4690      	mov	r8, r2
    4ca8:	4699      	mov	r9, r3
    4caa:	46a2      	mov	sl, r4
    4cac:	bdf0      	pop	{r4, r5, r6, r7, pc}
    4cae:	0028      	movs	r0, r5
    4cb0:	4b4a      	ldr	r3, [pc, #296]	; (4ddc <udd_ep_transfer_process+0x190>)
    4cb2:	4798      	blx	r3
    4cb4:	0004      	movs	r4, r0
    4cb6:	270f      	movs	r7, #15
    4cb8:	402f      	ands	r7, r5
    4cba:	8a03      	ldrh	r3, [r0, #16]
    4cbc:	4698      	mov	r8, r3
    4cbe:	464b      	mov	r3, r9
    4cc0:	885e      	ldrh	r6, [r3, #2]
    4cc2:	68c3      	ldr	r3, [r0, #12]
    4cc4:	469c      	mov	ip, r3
    4cc6:	4466      	add	r6, ip
    4cc8:	60c6      	str	r6, [r0, #12]
    4cca:	6881      	ldr	r1, [r0, #8]
    4ccc:	428e      	cmp	r6, r1
    4cce:	d025      	beq.n	4d1c <udd_ep_transfer_process+0xd0>
    4cd0:	1b8d      	subs	r5, r1, r6
    4cd2:	b2ad      	uxth	r5, r5
    4cd4:	4b42      	ldr	r3, [pc, #264]	; (4de0 <udd_ep_transfer_process+0x194>)
    4cd6:	429d      	cmp	r5, r3
    4cd8:	d906      	bls.n	4ce8 <udd_ep_transfer_process+0x9c>
    4cda:	001d      	movs	r5, r3
    4cdc:	4641      	mov	r1, r8
    4cde:	0018      	movs	r0, r3
    4ce0:	4b40      	ldr	r3, [pc, #256]	; (4de4 <udd_ep_transfer_process+0x198>)
    4ce2:	4798      	blx	r3
    4ce4:	1a6d      	subs	r5, r5, r1
    4ce6:	b2ad      	uxth	r5, r5
    4ce8:	7ca2      	ldrb	r2, [r4, #18]
    4cea:	2300      	movs	r3, #0
    4cec:	0792      	lsls	r2, r2, #30
    4cee:	d507      	bpl.n	4d00 <udd_ep_transfer_process+0xb4>
    4cf0:	4641      	mov	r1, r8
    4cf2:	0028      	movs	r0, r5
    4cf4:	4b3c      	ldr	r3, [pc, #240]	; (4de8 <udd_ep_transfer_process+0x19c>)
    4cf6:	4798      	blx	r3
    4cf8:	b289      	uxth	r1, r1
    4cfa:	424b      	negs	r3, r1
    4cfc:	414b      	adcs	r3, r1
    4cfe:	b2db      	uxtb	r3, r3
    4d00:	005b      	lsls	r3, r3, #1
    4d02:	7ca2      	ldrb	r2, [r4, #18]
    4d04:	2102      	movs	r1, #2
    4d06:	438a      	bics	r2, r1
    4d08:	4313      	orrs	r3, r2
    4d0a:	74a3      	strb	r3, [r4, #18]
    4d0c:	6862      	ldr	r2, [r4, #4]
    4d0e:	1992      	adds	r2, r2, r6
    4d10:	002b      	movs	r3, r5
    4d12:	0039      	movs	r1, r7
    4d14:	4835      	ldr	r0, [pc, #212]	; (4dec <udd_ep_transfer_process+0x1a0>)
    4d16:	4c36      	ldr	r4, [pc, #216]	; (4df0 <udd_ep_transfer_process+0x1a4>)
    4d18:	47a0      	blx	r4
    4d1a:	e7c3      	b.n	4ca4 <udd_ep_transfer_process+0x58>
    4d1c:	7c83      	ldrb	r3, [r0, #18]
    4d1e:	079b      	lsls	r3, r3, #30
    4d20:	d40b      	bmi.n	4d3a <udd_ep_transfer_process+0xee>
    4d22:	7c83      	ldrb	r3, [r0, #18]
    4d24:	2201      	movs	r2, #1
    4d26:	4393      	bics	r3, r2
    4d28:	7483      	strb	r3, [r0, #18]
    4d2a:	6803      	ldr	r3, [r0, #0]
    4d2c:	2b00      	cmp	r3, #0
    4d2e:	d0b9      	beq.n	4ca4 <udd_ep_transfer_process+0x58>
    4d30:	002a      	movs	r2, r5
    4d32:	0031      	movs	r1, r6
    4d34:	2000      	movs	r0, #0
    4d36:	4798      	blx	r3
    4d38:	e7b4      	b.n	4ca4 <udd_ep_transfer_process+0x58>
    4d3a:	7c83      	ldrb	r3, [r0, #18]
    4d3c:	2202      	movs	r2, #2
    4d3e:	4393      	bics	r3, r2
    4d40:	7483      	strb	r3, [r0, #18]
    4d42:	6842      	ldr	r2, [r0, #4]
    4d44:	1992      	adds	r2, r2, r6
    4d46:	2300      	movs	r3, #0
    4d48:	0039      	movs	r1, r7
    4d4a:	4828      	ldr	r0, [pc, #160]	; (4dec <udd_ep_transfer_process+0x1a0>)
    4d4c:	4c28      	ldr	r4, [pc, #160]	; (4df0 <udd_ep_transfer_process+0x1a4>)
    4d4e:	47a0      	blx	r4
    4d50:	e7a8      	b.n	4ca4 <udd_ep_transfer_process+0x58>
    4d52:	6843      	ldr	r3, [r0, #4]
    4d54:	68c2      	ldr	r2, [r0, #12]
    4d56:	4694      	mov	ip, r2
    4d58:	4463      	add	r3, ip
    4d5a:	001e      	movs	r6, r3
    4d5c:	4641      	mov	r1, r8
    4d5e:	6880      	ldr	r0, [r0, #8]
    4d60:	4b21      	ldr	r3, [pc, #132]	; (4de8 <udd_ep_transfer_process+0x19c>)
    4d62:	4798      	blx	r3
    4d64:	000a      	movs	r2, r1
    4d66:	1e7b      	subs	r3, r7, #1
    4d68:	019b      	lsls	r3, r3, #6
    4d6a:	4922      	ldr	r1, [pc, #136]	; (4df4 <udd_ep_transfer_process+0x1a8>)
    4d6c:	1859      	adds	r1, r3, r1
    4d6e:	0030      	movs	r0, r6
    4d70:	4b21      	ldr	r3, [pc, #132]	; (4df8 <udd_ep_transfer_process+0x1ac>)
    4d72:	4798      	blx	r3
    4d74:	e782      	b.n	4c7c <udd_ep_transfer_process+0x30>
    4d76:	464a      	mov	r2, r9
    4d78:	8892      	ldrh	r2, [r2, #4]
    4d7a:	4552      	cmp	r2, sl
    4d7c:	d000      	beq.n	4d80 <udd_ep_transfer_process+0x134>
    4d7e:	e786      	b.n	4c8e <udd_ep_transfer_process+0x42>
    4d80:	429e      	cmp	r6, r3
    4d82:	d100      	bne.n	4d86 <udd_ep_transfer_process+0x13a>
    4d84:	e783      	b.n	4c8e <udd_ep_transfer_process+0x42>
    4d86:	1b9b      	subs	r3, r3, r6
    4d88:	b29d      	uxth	r5, r3
    4d8a:	4b15      	ldr	r3, [pc, #84]	; (4de0 <udd_ep_transfer_process+0x194>)
    4d8c:	429d      	cmp	r5, r3
    4d8e:	d916      	bls.n	4dbe <udd_ep_transfer_process+0x172>
    4d90:	001d      	movs	r5, r3
    4d92:	4641      	mov	r1, r8
    4d94:	0018      	movs	r0, r3
    4d96:	4b13      	ldr	r3, [pc, #76]	; (4de4 <udd_ep_transfer_process+0x198>)
    4d98:	4798      	blx	r3
    4d9a:	1a6b      	subs	r3, r5, r1
    4d9c:	b29b      	uxth	r3, r3
    4d9e:	4598      	cmp	r8, r3
    4da0:	d914      	bls.n	4dcc <udd_ep_transfer_process+0x180>
    4da2:	7ca3      	ldrb	r3, [r4, #18]
    4da4:	2204      	movs	r2, #4
    4da6:	4313      	orrs	r3, r2
    4da8:	74a3      	strb	r3, [r4, #18]
    4daa:	1e7a      	subs	r2, r7, #1
    4dac:	0192      	lsls	r2, r2, #6
    4dae:	4b11      	ldr	r3, [pc, #68]	; (4df4 <udd_ep_transfer_process+0x1a8>)
    4db0:	18d2      	adds	r2, r2, r3
    4db2:	4643      	mov	r3, r8
    4db4:	0039      	movs	r1, r7
    4db6:	480d      	ldr	r0, [pc, #52]	; (4dec <udd_ep_transfer_process+0x1a0>)
    4db8:	4c10      	ldr	r4, [pc, #64]	; (4dfc <udd_ep_transfer_process+0x1b0>)
    4dba:	47a0      	blx	r4
    4dbc:	e772      	b.n	4ca4 <udd_ep_transfer_process+0x58>
    4dbe:	4641      	mov	r1, r8
    4dc0:	0028      	movs	r0, r5
    4dc2:	4b09      	ldr	r3, [pc, #36]	; (4de8 <udd_ep_transfer_process+0x19c>)
    4dc4:	4798      	blx	r3
    4dc6:	1a6b      	subs	r3, r5, r1
    4dc8:	b29b      	uxth	r3, r3
    4dca:	e7e8      	b.n	4d9e <udd_ep_transfer_process+0x152>
    4dcc:	6862      	ldr	r2, [r4, #4]
    4dce:	1992      	adds	r2, r2, r6
    4dd0:	0039      	movs	r1, r7
    4dd2:	4806      	ldr	r0, [pc, #24]	; (4dec <udd_ep_transfer_process+0x1a0>)
    4dd4:	4c09      	ldr	r4, [pc, #36]	; (4dfc <udd_ep_transfer_process+0x1b0>)
    4dd6:	47a0      	blx	r4
    4dd8:	e764      	b.n	4ca4 <udd_ep_transfer_process+0x58>
    4dda:	46c0      	nop			; (mov r8, r8)
    4ddc:	00004c29 	.word	0x00004c29
    4de0:	00001fff 	.word	0x00001fff
    4de4:	0000923d 	.word	0x0000923d
    4de8:	00009069 	.word	0x00009069
    4dec:	200026f0 	.word	0x200026f0
    4df0:	00005e05 	.word	0x00005e05
    4df4:	20002630 	.word	0x20002630
    4df8:	0000bded 	.word	0x0000bded
    4dfc:	00005e59 	.word	0x00005e59

00004e00 <udd_ctrl_stall_data>:
    4e00:	b510      	push	{r4, lr}
    4e02:	2205      	movs	r2, #5
    4e04:	4b05      	ldr	r3, [pc, #20]	; (4e1c <udd_ctrl_stall_data+0x1c>)
    4e06:	701a      	strb	r2, [r3, #0]
    4e08:	4c05      	ldr	r4, [pc, #20]	; (4e20 <udd_ctrl_stall_data+0x20>)
    4e0a:	2180      	movs	r1, #128	; 0x80
    4e0c:	0020      	movs	r0, r4
    4e0e:	4b05      	ldr	r3, [pc, #20]	; (4e24 <udd_ctrl_stall_data+0x24>)
    4e10:	4798      	blx	r3
    4e12:	2100      	movs	r1, #0
    4e14:	0020      	movs	r0, r4
    4e16:	4b04      	ldr	r3, [pc, #16]	; (4e28 <udd_ctrl_stall_data+0x28>)
    4e18:	4798      	blx	r3
    4e1a:	bd10      	pop	{r4, pc}
    4e1c:	20000e8a 	.word	0x20000e8a
    4e20:	200026f0 	.word	0x200026f0
    4e24:	00005d59 	.word	0x00005d59
    4e28:	00005d7f 	.word	0x00005d7f

00004e2c <_usb_device_lpm_suspend>:
    4e2c:	b570      	push	{r4, r5, r6, lr}
    4e2e:	4c08      	ldr	r4, [pc, #32]	; (4e50 <_usb_device_lpm_suspend+0x24>)
    4e30:	2106      	movs	r1, #6
    4e32:	0020      	movs	r0, r4
    4e34:	4d07      	ldr	r5, [pc, #28]	; (4e54 <_usb_device_lpm_suspend+0x28>)
    4e36:	47a8      	blx	r5
    4e38:	2104      	movs	r1, #4
    4e3a:	0020      	movs	r0, r4
    4e3c:	47a8      	blx	r5
    4e3e:	2102      	movs	r1, #2
    4e40:	0020      	movs	r0, r4
    4e42:	4b05      	ldr	r3, [pc, #20]	; (4e58 <_usb_device_lpm_suspend+0x2c>)
    4e44:	4798      	blx	r3
    4e46:	2002      	movs	r0, #2
    4e48:	4b04      	ldr	r3, [pc, #16]	; (4e5c <_usb_device_lpm_suspend+0x30>)
    4e4a:	4798      	blx	r3
    4e4c:	bd70      	pop	{r4, r5, r6, pc}
    4e4e:	46c0      	nop			; (mov r8, r8)
    4e50:	200026f0 	.word	0x200026f0
    4e54:	00005899 	.word	0x00005899
    4e58:	00005879 	.word	0x00005879
    4e5c:	00004b69 	.word	0x00004b69

00004e60 <_usb_on_wakeup>:
    4e60:	b570      	push	{r4, r5, r6, lr}
    4e62:	4b12      	ldr	r3, [pc, #72]	; (4eac <_usb_on_wakeup+0x4c>)
    4e64:	8c9b      	ldrh	r3, [r3, #36]	; 0x24
    4e66:	069b      	lsls	r3, r3, #26
    4e68:	d41a      	bmi.n	4ea0 <_usb_on_wakeup+0x40>
    4e6a:	4910      	ldr	r1, [pc, #64]	; (4eac <_usb_on_wakeup+0x4c>)
    4e6c:	22d0      	movs	r2, #208	; 0xd0
    4e6e:	68cb      	ldr	r3, [r1, #12]
    4e70:	4013      	ands	r3, r2
    4e72:	2bd0      	cmp	r3, #208	; 0xd0
    4e74:	d1fb      	bne.n	4e6e <_usb_on_wakeup+0xe>
    4e76:	4c0e      	ldr	r4, [pc, #56]	; (4eb0 <_usb_on_wakeup+0x50>)
    4e78:	2102      	movs	r1, #2
    4e7a:	0020      	movs	r0, r4
    4e7c:	4b0d      	ldr	r3, [pc, #52]	; (4eb4 <_usb_on_wakeup+0x54>)
    4e7e:	4798      	blx	r3
    4e80:	2104      	movs	r1, #4
    4e82:	0020      	movs	r0, r4
    4e84:	4d0c      	ldr	r5, [pc, #48]	; (4eb8 <_usb_on_wakeup+0x58>)
    4e86:	47a8      	blx	r5
    4e88:	4a0c      	ldr	r2, [pc, #48]	; (4ebc <_usb_on_wakeup+0x5c>)
    4e8a:	2106      	movs	r1, #6
    4e8c:	0020      	movs	r0, r4
    4e8e:	4b0c      	ldr	r3, [pc, #48]	; (4ec0 <_usb_on_wakeup+0x60>)
    4e90:	4798      	blx	r3
    4e92:	2106      	movs	r1, #6
    4e94:	0020      	movs	r0, r4
    4e96:	47a8      	blx	r5
    4e98:	2003      	movs	r0, #3
    4e9a:	4b0a      	ldr	r3, [pc, #40]	; (4ec4 <_usb_on_wakeup+0x64>)
    4e9c:	4798      	blx	r3
    4e9e:	bd70      	pop	{r4, r5, r6, pc}
    4ea0:	4902      	ldr	r1, [pc, #8]	; (4eac <_usb_on_wakeup+0x4c>)
    4ea2:	2210      	movs	r2, #16
    4ea4:	68cb      	ldr	r3, [r1, #12]
    4ea6:	421a      	tst	r2, r3
    4ea8:	d0fc      	beq.n	4ea4 <_usb_on_wakeup+0x44>
    4eaa:	e7e4      	b.n	4e76 <_usb_on_wakeup+0x16>
    4eac:	40000800 	.word	0x40000800
    4eb0:	200026f0 	.word	0x200026f0
    4eb4:	00005899 	.word	0x00005899
    4eb8:	00005879 	.word	0x00005879
    4ebc:	00004e2d 	.word	0x00004e2d
    4ec0:	00005855 	.word	0x00005855
    4ec4:	00004b69 	.word	0x00004b69

00004ec8 <_usb_on_suspend>:
    4ec8:	b510      	push	{r4, lr}
    4eca:	4c06      	ldr	r4, [pc, #24]	; (4ee4 <_usb_on_suspend+0x1c>)
    4ecc:	2104      	movs	r1, #4
    4ece:	0020      	movs	r0, r4
    4ed0:	4b05      	ldr	r3, [pc, #20]	; (4ee8 <_usb_on_suspend+0x20>)
    4ed2:	4798      	blx	r3
    4ed4:	2102      	movs	r1, #2
    4ed6:	0020      	movs	r0, r4
    4ed8:	4b04      	ldr	r3, [pc, #16]	; (4eec <_usb_on_suspend+0x24>)
    4eda:	4798      	blx	r3
    4edc:	2001      	movs	r0, #1
    4ede:	4b04      	ldr	r3, [pc, #16]	; (4ef0 <_usb_on_suspend+0x28>)
    4ee0:	4798      	blx	r3
    4ee2:	bd10      	pop	{r4, pc}
    4ee4:	200026f0 	.word	0x200026f0
    4ee8:	00005899 	.word	0x00005899
    4eec:	00005879 	.word	0x00005879
    4ef0:	00004b69 	.word	0x00004b69

00004ef4 <_usb_on_bus_reset>:
    4ef4:	b530      	push	{r4, r5, lr}
    4ef6:	b083      	sub	sp, #12
    4ef8:	0004      	movs	r4, r0
    4efa:	4b1e      	ldr	r3, [pc, #120]	; (4f74 <_usb_on_bus_reset+0x80>)
    4efc:	4798      	blx	r3
    4efe:	2380      	movs	r3, #128	; 0x80
    4f00:	6822      	ldr	r2, [r4, #0]
    4f02:	7293      	strb	r3, [r2, #10]
    4f04:	ad01      	add	r5, sp, #4
    4f06:	0028      	movs	r0, r5
    4f08:	4b1b      	ldr	r3, [pc, #108]	; (4f78 <_usb_on_bus_reset+0x84>)
    4f0a:	4798      	blx	r3
    4f0c:	2303      	movs	r3, #3
    4f0e:	706b      	strb	r3, [r5, #1]
    4f10:	0029      	movs	r1, r5
    4f12:	0020      	movs	r0, r4
    4f14:	4b19      	ldr	r3, [pc, #100]	; (4f7c <_usb_on_bus_reset+0x88>)
    4f16:	4798      	blx	r3
    4f18:	4919      	ldr	r1, [pc, #100]	; (4f80 <_usb_on_bus_reset+0x8c>)
    4f1a:	0020      	movs	r0, r4
    4f1c:	4b19      	ldr	r3, [pc, #100]	; (4f84 <_usb_on_bus_reset+0x90>)
    4f1e:	4798      	blx	r3
    4f20:	4b19      	ldr	r3, [pc, #100]	; (4f88 <_usb_on_bus_reset+0x94>)
    4f22:	2202      	movs	r2, #2
    4f24:	2100      	movs	r1, #0
    4f26:	0020      	movs	r0, r4
    4f28:	4d18      	ldr	r5, [pc, #96]	; (4f8c <_usb_on_bus_reset+0x98>)
    4f2a:	47a8      	blx	r5
    4f2c:	4b18      	ldr	r3, [pc, #96]	; (4f90 <_usb_on_bus_reset+0x9c>)
    4f2e:	2200      	movs	r2, #0
    4f30:	2100      	movs	r1, #0
    4f32:	0020      	movs	r0, r4
    4f34:	47a8      	blx	r5
    4f36:	4b17      	ldr	r3, [pc, #92]	; (4f94 <_usb_on_bus_reset+0xa0>)
    4f38:	2201      	movs	r2, #1
    4f3a:	2100      	movs	r1, #0
    4f3c:	0020      	movs	r0, r4
    4f3e:	47a8      	blx	r5
    4f40:	2202      	movs	r2, #2
    4f42:	2100      	movs	r1, #0
    4f44:	0020      	movs	r0, r4
    4f46:	4d14      	ldr	r5, [pc, #80]	; (4f98 <_usb_on_bus_reset+0xa4>)
    4f48:	47a8      	blx	r5
    4f4a:	2200      	movs	r2, #0
    4f4c:	2100      	movs	r1, #0
    4f4e:	0020      	movs	r0, r4
    4f50:	47a8      	blx	r5
    4f52:	2201      	movs	r2, #1
    4f54:	2100      	movs	r1, #0
    4f56:	0020      	movs	r0, r4
    4f58:	47a8      	blx	r5
    4f5a:	6821      	ldr	r1, [r4, #0]
    4f5c:	890b      	ldrh	r3, [r1, #8]
    4f5e:	4a0f      	ldr	r2, [pc, #60]	; (4f9c <_usb_on_bus_reset+0xa8>)
    4f60:	401a      	ands	r2, r3
    4f62:	2380      	movs	r3, #128	; 0x80
    4f64:	00db      	lsls	r3, r3, #3
    4f66:	4313      	orrs	r3, r2
    4f68:	810b      	strh	r3, [r1, #8]
    4f6a:	2200      	movs	r2, #0
    4f6c:	4b0c      	ldr	r3, [pc, #48]	; (4fa0 <_usb_on_bus_reset+0xac>)
    4f6e:	701a      	strb	r2, [r3, #0]
    4f70:	b003      	add	sp, #12
    4f72:	bd30      	pop	{r4, r5, pc}
    4f74:	00007d15 	.word	0x00007d15
    4f78:	00005aa5 	.word	0x00005aa5
    4f7c:	00005ab5 	.word	0x00005ab5
    4f80:	20002870 	.word	0x20002870
    4f84:	00005ea9 	.word	0x00005ea9
    4f88:	000050dd 	.word	0x000050dd
    4f8c:	000058b5 	.word	0x000058b5
    4f90:	000053d1 	.word	0x000053d1
    4f94:	00004fe1 	.word	0x00004fe1
    4f98:	00005905 	.word	0x00005905
    4f9c:	fffff3ff 	.word	0xfffff3ff
    4fa0:	20000e8a 	.word	0x20000e8a

00004fa4 <udd_ctrl_send_zlp_in>:
    4fa4:	b510      	push	{r4, lr}
    4fa6:	2203      	movs	r2, #3
    4fa8:	4b07      	ldr	r3, [pc, #28]	; (4fc8 <udd_ctrl_send_zlp_in+0x24>)
    4faa:	701a      	strb	r2, [r3, #0]
    4fac:	4c07      	ldr	r4, [pc, #28]	; (4fcc <udd_ctrl_send_zlp_in+0x28>)
    4fae:	4908      	ldr	r1, [pc, #32]	; (4fd0 <udd_ctrl_send_zlp_in+0x2c>)
    4fb0:	0020      	movs	r0, r4
    4fb2:	4b08      	ldr	r3, [pc, #32]	; (4fd4 <udd_ctrl_send_zlp_in+0x30>)
    4fb4:	4798      	blx	r3
    4fb6:	4b08      	ldr	r3, [pc, #32]	; (4fd8 <udd_ctrl_send_zlp_in+0x34>)
    4fb8:	689a      	ldr	r2, [r3, #8]
    4fba:	2300      	movs	r3, #0
    4fbc:	2100      	movs	r1, #0
    4fbe:	0020      	movs	r0, r4
    4fc0:	4c06      	ldr	r4, [pc, #24]	; (4fdc <udd_ctrl_send_zlp_in+0x38>)
    4fc2:	47a0      	blx	r4
    4fc4:	bd10      	pop	{r4, pc}
    4fc6:	46c0      	nop			; (mov r8, r8)
    4fc8:	20000e8a 	.word	0x20000e8a
    4fcc:	200026f0 	.word	0x200026f0
    4fd0:	20002870 	.word	0x20002870
    4fd4:	00005ea9 	.word	0x00005ea9
    4fd8:	20002858 	.word	0x20002858
    4fdc:	00005e05 	.word	0x00005e05

00004fe0 <_usb_ep0_on_tansfer_fail>:
    4fe0:	b510      	push	{r4, lr}
    4fe2:	7989      	ldrb	r1, [r1, #6]
    4fe4:	b24b      	sxtb	r3, r1
    4fe6:	2b00      	cmp	r3, #0
    4fe8:	db06      	blt.n	4ff8 <_usb_ep0_on_tansfer_fail+0x18>
    4fea:	4b0e      	ldr	r3, [pc, #56]	; (5024 <_usb_ep0_on_tansfer_fail+0x44>)
    4fec:	781b      	ldrb	r3, [r3, #0]
    4fee:	2b02      	cmp	r3, #2
    4ff0:	d00f      	beq.n	5012 <_usb_ep0_on_tansfer_fail+0x32>
    4ff2:	2b03      	cmp	r3, #3
    4ff4:	d011      	beq.n	501a <_usb_ep0_on_tansfer_fail+0x3a>
    4ff6:	bd10      	pop	{r4, pc}
    4ff8:	4b0a      	ldr	r3, [pc, #40]	; (5024 <_usb_ep0_on_tansfer_fail+0x44>)
    4ffa:	781b      	ldrb	r3, [r3, #0]
    4ffc:	2b01      	cmp	r3, #1
    4ffe:	d005      	beq.n	500c <_usb_ep0_on_tansfer_fail+0x2c>
    5000:	2b04      	cmp	r3, #4
    5002:	d1f8      	bne.n	4ff6 <_usb_ep0_on_tansfer_fail+0x16>
    5004:	4808      	ldr	r0, [pc, #32]	; (5028 <_usb_ep0_on_tansfer_fail+0x48>)
    5006:	4b09      	ldr	r3, [pc, #36]	; (502c <_usb_ep0_on_tansfer_fail+0x4c>)
    5008:	4798      	blx	r3
    500a:	e7f4      	b.n	4ff6 <_usb_ep0_on_tansfer_fail+0x16>
    500c:	4b08      	ldr	r3, [pc, #32]	; (5030 <_usb_ep0_on_tansfer_fail+0x50>)
    500e:	4798      	blx	r3
    5010:	e7f1      	b.n	4ff6 <_usb_ep0_on_tansfer_fail+0x16>
    5012:	2204      	movs	r2, #4
    5014:	4b03      	ldr	r3, [pc, #12]	; (5024 <_usb_ep0_on_tansfer_fail+0x44>)
    5016:	701a      	strb	r2, [r3, #0]
    5018:	e7ed      	b.n	4ff6 <_usb_ep0_on_tansfer_fail+0x16>
    501a:	4803      	ldr	r0, [pc, #12]	; (5028 <_usb_ep0_on_tansfer_fail+0x48>)
    501c:	4b03      	ldr	r3, [pc, #12]	; (502c <_usb_ep0_on_tansfer_fail+0x4c>)
    501e:	4798      	blx	r3
    5020:	e7e9      	b.n	4ff6 <_usb_ep0_on_tansfer_fail+0x16>
    5022:	46c0      	nop			; (mov r8, r8)
    5024:	20000e8a 	.word	0x20000e8a
    5028:	200026f0 	.word	0x200026f0
    502c:	00005d59 	.word	0x00005d59
    5030:	00004fa5 	.word	0x00004fa5

00005034 <udd_ctrl_in_sent>:
    5034:	b570      	push	{r4, r5, r6, lr}
    5036:	4b20      	ldr	r3, [pc, #128]	; (50b8 <udd_ctrl_in_sent+0x84>)
    5038:	881b      	ldrh	r3, [r3, #0]
    503a:	4a20      	ldr	r2, [pc, #128]	; (50bc <udd_ctrl_in_sent+0x88>)
    503c:	8994      	ldrh	r4, [r2, #12]
    503e:	1ae4      	subs	r4, r4, r3
    5040:	b2a4      	uxth	r4, r4
    5042:	2c00      	cmp	r4, #0
    5044:	d118      	bne.n	5078 <udd_ctrl_in_sent+0x44>
    5046:	4a1e      	ldr	r2, [pc, #120]	; (50c0 <udd_ctrl_in_sent+0x8c>)
    5048:	8811      	ldrh	r1, [r2, #0]
    504a:	185b      	adds	r3, r3, r1
    504c:	b29b      	uxth	r3, r3
    504e:	8013      	strh	r3, [r2, #0]
    5050:	4a1a      	ldr	r2, [pc, #104]	; (50bc <udd_ctrl_in_sent+0x88>)
    5052:	88d2      	ldrh	r2, [r2, #6]
    5054:	429a      	cmp	r2, r3
    5056:	d023      	beq.n	50a0 <udd_ctrl_in_sent+0x6c>
    5058:	4b1a      	ldr	r3, [pc, #104]	; (50c4 <udd_ctrl_in_sent+0x90>)
    505a:	781b      	ldrb	r3, [r3, #0]
    505c:	2b00      	cmp	r3, #0
    505e:	d11f      	bne.n	50a0 <udd_ctrl_in_sent+0x6c>
    5060:	4b16      	ldr	r3, [pc, #88]	; (50bc <udd_ctrl_in_sent+0x88>)
    5062:	695b      	ldr	r3, [r3, #20]
    5064:	2b00      	cmp	r3, #0
    5066:	d023      	beq.n	50b0 <udd_ctrl_in_sent+0x7c>
    5068:	4798      	blx	r3
    506a:	2800      	cmp	r0, #0
    506c:	d020      	beq.n	50b0 <udd_ctrl_in_sent+0x7c>
    506e:	2200      	movs	r2, #0
    5070:	4b11      	ldr	r3, [pc, #68]	; (50b8 <udd_ctrl_in_sent+0x84>)
    5072:	801a      	strh	r2, [r3, #0]
    5074:	4b11      	ldr	r3, [pc, #68]	; (50bc <udd_ctrl_in_sent+0x88>)
    5076:	899c      	ldrh	r4, [r3, #12]
    5078:	2c3f      	cmp	r4, #63	; 0x3f
    507a:	d919      	bls.n	50b0 <udd_ctrl_in_sent+0x7c>
    507c:	2200      	movs	r2, #0
    507e:	4b11      	ldr	r3, [pc, #68]	; (50c4 <udd_ctrl_in_sent+0x90>)
    5080:	701a      	strb	r2, [r3, #0]
    5082:	2440      	movs	r4, #64	; 0x40
    5084:	4d0c      	ldr	r5, [pc, #48]	; (50b8 <udd_ctrl_in_sent+0x84>)
    5086:	882b      	ldrh	r3, [r5, #0]
    5088:	4a0c      	ldr	r2, [pc, #48]	; (50bc <udd_ctrl_in_sent+0x88>)
    508a:	6892      	ldr	r2, [r2, #8]
    508c:	18d2      	adds	r2, r2, r3
    508e:	0023      	movs	r3, r4
    5090:	2100      	movs	r1, #0
    5092:	480d      	ldr	r0, [pc, #52]	; (50c8 <udd_ctrl_in_sent+0x94>)
    5094:	4e0d      	ldr	r6, [pc, #52]	; (50cc <udd_ctrl_in_sent+0x98>)
    5096:	47b0      	blx	r6
    5098:	882b      	ldrh	r3, [r5, #0]
    509a:	18e4      	adds	r4, r4, r3
    509c:	802c      	strh	r4, [r5, #0]
    509e:	bd70      	pop	{r4, r5, r6, pc}
    50a0:	2204      	movs	r2, #4
    50a2:	4b0b      	ldr	r3, [pc, #44]	; (50d0 <udd_ctrl_in_sent+0x9c>)
    50a4:	701a      	strb	r2, [r3, #0]
    50a6:	490b      	ldr	r1, [pc, #44]	; (50d4 <udd_ctrl_in_sent+0xa0>)
    50a8:	4807      	ldr	r0, [pc, #28]	; (50c8 <udd_ctrl_in_sent+0x94>)
    50aa:	4b0b      	ldr	r3, [pc, #44]	; (50d8 <udd_ctrl_in_sent+0xa4>)
    50ac:	4798      	blx	r3
    50ae:	e7f6      	b.n	509e <udd_ctrl_in_sent+0x6a>
    50b0:	2201      	movs	r2, #1
    50b2:	4b04      	ldr	r3, [pc, #16]	; (50c4 <udd_ctrl_in_sent+0x90>)
    50b4:	701a      	strb	r2, [r3, #0]
    50b6:	e7e5      	b.n	5084 <udd_ctrl_in_sent+0x50>
    50b8:	20000e86 	.word	0x20000e86
    50bc:	20002858 	.word	0x20002858
    50c0:	20000e88 	.word	0x20000e88
    50c4:	20000e84 	.word	0x20000e84
    50c8:	200026f0 	.word	0x200026f0
    50cc:	00005e05 	.word	0x00005e05
    50d0:	20000e8a 	.word	0x20000e8a
    50d4:	20002870 	.word	0x20002870
    50d8:	00005ea9 	.word	0x00005ea9

000050dc <_usb_ep0_on_setup>:
    50dc:	b510      	push	{r4, lr}
    50de:	000c      	movs	r4, r1
    50e0:	4b2c      	ldr	r3, [pc, #176]	; (5194 <_usb_ep0_on_setup+0xb8>)
    50e2:	781b      	ldrb	r3, [r3, #0]
    50e4:	2b00      	cmp	r3, #0
    50e6:	d007      	beq.n	50f8 <_usb_ep0_on_setup+0x1c>
    50e8:	4b2b      	ldr	r3, [pc, #172]	; (5198 <_usb_ep0_on_setup+0xbc>)
    50ea:	691b      	ldr	r3, [r3, #16]
    50ec:	2b00      	cmp	r3, #0
    50ee:	d000      	beq.n	50f2 <_usb_ep0_on_setup+0x16>
    50f0:	4798      	blx	r3
    50f2:	2200      	movs	r2, #0
    50f4:	4b27      	ldr	r3, [pc, #156]	; (5194 <_usb_ep0_on_setup+0xb8>)
    50f6:	701a      	strb	r2, [r3, #0]
    50f8:	8823      	ldrh	r3, [r4, #0]
    50fa:	2b08      	cmp	r3, #8
    50fc:	d002      	beq.n	5104 <_usb_ep0_on_setup+0x28>
    50fe:	4b27      	ldr	r3, [pc, #156]	; (519c <_usb_ep0_on_setup+0xc0>)
    5100:	4798      	blx	r3
    5102:	bd10      	pop	{r4, pc}
    5104:	4a24      	ldr	r2, [pc, #144]	; (5198 <_usb_ep0_on_setup+0xbc>)
    5106:	4b26      	ldr	r3, [pc, #152]	; (51a0 <_usb_ep0_on_setup+0xc4>)
    5108:	7819      	ldrb	r1, [r3, #0]
    510a:	7011      	strb	r1, [r2, #0]
    510c:	7859      	ldrb	r1, [r3, #1]
    510e:	7051      	strb	r1, [r2, #1]
    5110:	78d8      	ldrb	r0, [r3, #3]
    5112:	0200      	lsls	r0, r0, #8
    5114:	7899      	ldrb	r1, [r3, #2]
    5116:	1809      	adds	r1, r1, r0
    5118:	8051      	strh	r1, [r2, #2]
    511a:	7958      	ldrb	r0, [r3, #5]
    511c:	0200      	lsls	r0, r0, #8
    511e:	7919      	ldrb	r1, [r3, #4]
    5120:	1809      	adds	r1, r1, r0
    5122:	8091      	strh	r1, [r2, #4]
    5124:	79d9      	ldrb	r1, [r3, #7]
    5126:	0209      	lsls	r1, r1, #8
    5128:	799b      	ldrb	r3, [r3, #6]
    512a:	185b      	adds	r3, r3, r1
    512c:	80d3      	strh	r3, [r2, #6]
    512e:	4b1d      	ldr	r3, [pc, #116]	; (51a4 <_usb_ep0_on_setup+0xc8>)
    5130:	4798      	blx	r3
    5132:	2800      	cmp	r0, #0
    5134:	d016      	beq.n	5164 <_usb_ep0_on_setup+0x88>
    5136:	4b18      	ldr	r3, [pc, #96]	; (5198 <_usb_ep0_on_setup+0xbc>)
    5138:	781b      	ldrb	r3, [r3, #0]
    513a:	2b7f      	cmp	r3, #127	; 0x7f
    513c:	d815      	bhi.n	516a <_usb_ep0_on_setup+0x8e>
    513e:	4b16      	ldr	r3, [pc, #88]	; (5198 <_usb_ep0_on_setup+0xbc>)
    5140:	88db      	ldrh	r3, [r3, #6]
    5142:	2b00      	cmp	r3, #0
    5144:	d022      	beq.n	518c <_usb_ep0_on_setup+0xb0>
    5146:	2300      	movs	r3, #0
    5148:	4a17      	ldr	r2, [pc, #92]	; (51a8 <_usb_ep0_on_setup+0xcc>)
    514a:	8013      	strh	r3, [r2, #0]
    514c:	4a17      	ldr	r2, [pc, #92]	; (51ac <_usb_ep0_on_setup+0xd0>)
    514e:	8013      	strh	r3, [r2, #0]
    5150:	2201      	movs	r2, #1
    5152:	4b10      	ldr	r3, [pc, #64]	; (5194 <_usb_ep0_on_setup+0xb8>)
    5154:	701a      	strb	r2, [r3, #0]
    5156:	2340      	movs	r3, #64	; 0x40
    5158:	4a11      	ldr	r2, [pc, #68]	; (51a0 <_usb_ep0_on_setup+0xc4>)
    515a:	2100      	movs	r1, #0
    515c:	4814      	ldr	r0, [pc, #80]	; (51b0 <_usb_ep0_on_setup+0xd4>)
    515e:	4c15      	ldr	r4, [pc, #84]	; (51b4 <_usb_ep0_on_setup+0xd8>)
    5160:	47a0      	blx	r4
    5162:	e7ce      	b.n	5102 <_usb_ep0_on_setup+0x26>
    5164:	4b0d      	ldr	r3, [pc, #52]	; (519c <_usb_ep0_on_setup+0xc0>)
    5166:	4798      	blx	r3
    5168:	e7cb      	b.n	5102 <_usb_ep0_on_setup+0x26>
    516a:	2300      	movs	r3, #0
    516c:	4a0e      	ldr	r2, [pc, #56]	; (51a8 <_usb_ep0_on_setup+0xcc>)
    516e:	8013      	strh	r3, [r2, #0]
    5170:	4a0e      	ldr	r2, [pc, #56]	; (51ac <_usb_ep0_on_setup+0xd0>)
    5172:	8013      	strh	r3, [r2, #0]
    5174:	2202      	movs	r2, #2
    5176:	4b07      	ldr	r3, [pc, #28]	; (5194 <_usb_ep0_on_setup+0xb8>)
    5178:	701a      	strb	r2, [r3, #0]
    517a:	2340      	movs	r3, #64	; 0x40
    517c:	4a08      	ldr	r2, [pc, #32]	; (51a0 <_usb_ep0_on_setup+0xc4>)
    517e:	2100      	movs	r1, #0
    5180:	480b      	ldr	r0, [pc, #44]	; (51b0 <_usb_ep0_on_setup+0xd4>)
    5182:	4c0c      	ldr	r4, [pc, #48]	; (51b4 <_usb_ep0_on_setup+0xd8>)
    5184:	47a0      	blx	r4
    5186:	4b0c      	ldr	r3, [pc, #48]	; (51b8 <_usb_ep0_on_setup+0xdc>)
    5188:	4798      	blx	r3
    518a:	e7ba      	b.n	5102 <_usb_ep0_on_setup+0x26>
    518c:	4b0b      	ldr	r3, [pc, #44]	; (51bc <_usb_ep0_on_setup+0xe0>)
    518e:	4798      	blx	r3
    5190:	e7b7      	b.n	5102 <_usb_ep0_on_setup+0x26>
    5192:	46c0      	nop			; (mov r8, r8)
    5194:	20000e8a 	.word	0x20000e8a
    5198:	20002858 	.word	0x20002858
    519c:	00004e01 	.word	0x00004e01
    51a0:	20002870 	.word	0x20002870
    51a4:	00007da5 	.word	0x00007da5
    51a8:	20000e88 	.word	0x20000e88
    51ac:	20000e86 	.word	0x20000e86
    51b0:	200026f0 	.word	0x200026f0
    51b4:	00005e59 	.word	0x00005e59
    51b8:	00005035 	.word	0x00005035
    51bc:	00004fa5 	.word	0x00004fa5

000051c0 <_usb_on_sof_notify>:
    51c0:	b510      	push	{r4, lr}
    51c2:	4b01      	ldr	r3, [pc, #4]	; (51c8 <_usb_on_sof_notify+0x8>)
    51c4:	4798      	blx	r3
    51c6:	bd10      	pop	{r4, pc}
    51c8:	00007d61 	.word	0x00007d61

000051cc <udd_ep_abort>:
    51cc:	b510      	push	{r4, lr}
    51ce:	0004      	movs	r4, r0
    51d0:	0001      	movs	r1, r0
    51d2:	480a      	ldr	r0, [pc, #40]	; (51fc <udd_ep_abort+0x30>)
    51d4:	4b0a      	ldr	r3, [pc, #40]	; (5200 <udd_ep_abort+0x34>)
    51d6:	4798      	blx	r3
    51d8:	0020      	movs	r0, r4
    51da:	4b0a      	ldr	r3, [pc, #40]	; (5204 <udd_ep_abort+0x38>)
    51dc:	4798      	blx	r3
    51de:	7c83      	ldrb	r3, [r0, #18]
    51e0:	07db      	lsls	r3, r3, #31
    51e2:	d50a      	bpl.n	51fa <udd_ep_abort+0x2e>
    51e4:	7c83      	ldrb	r3, [r0, #18]
    51e6:	2201      	movs	r2, #1
    51e8:	4393      	bics	r3, r2
    51ea:	7483      	strb	r3, [r0, #18]
    51ec:	6803      	ldr	r3, [r0, #0]
    51ee:	2b00      	cmp	r3, #0
    51f0:	d003      	beq.n	51fa <udd_ep_abort+0x2e>
    51f2:	68c1      	ldr	r1, [r0, #12]
    51f4:	0022      	movs	r2, r4
    51f6:	2001      	movs	r0, #1
    51f8:	4798      	blx	r3
    51fa:	bd10      	pop	{r4, pc}
    51fc:	200026f0 	.word	0x200026f0
    5200:	00005cf9 	.word	0x00005cf9
    5204:	00004c29 	.word	0x00004c29

00005208 <udd_is_high_speed>:
    5208:	2000      	movs	r0, #0
    520a:	4770      	bx	lr

0000520c <udd_get_frame_number>:
    520c:	4b02      	ldr	r3, [pc, #8]	; (5218 <udd_get_frame_number+0xc>)
    520e:	681b      	ldr	r3, [r3, #0]
    5210:	8a18      	ldrh	r0, [r3, #16]
    5212:	0480      	lsls	r0, r0, #18
    5214:	0d40      	lsrs	r0, r0, #21
    5216:	4770      	bx	lr
    5218:	200026f0 	.word	0x200026f0

0000521c <udd_get_micro_frame_number>:
    521c:	4b02      	ldr	r3, [pc, #8]	; (5228 <udd_get_micro_frame_number+0xc>)
    521e:	681b      	ldr	r3, [r3, #0]
    5220:	8a18      	ldrh	r0, [r3, #16]
    5222:	b280      	uxth	r0, r0
    5224:	4770      	bx	lr
    5226:	46c0      	nop			; (mov r8, r8)
    5228:	200026f0 	.word	0x200026f0

0000522c <udd_ep_free>:
    522c:	b570      	push	{r4, r5, r6, lr}
    522e:	b082      	sub	sp, #8
    5230:	0004      	movs	r4, r0
    5232:	ad01      	add	r5, sp, #4
    5234:	0028      	movs	r0, r5
    5236:	4b0d      	ldr	r3, [pc, #52]	; (526c <udd_ep_free+0x40>)
    5238:	4798      	blx	r3
    523a:	0020      	movs	r0, r4
    523c:	4b0c      	ldr	r3, [pc, #48]	; (5270 <udd_ep_free+0x44>)
    523e:	4798      	blx	r3
    5240:	702c      	strb	r4, [r5, #0]
    5242:	2300      	movs	r3, #0
    5244:	70eb      	strb	r3, [r5, #3]
    5246:	4e0b      	ldr	r6, [pc, #44]	; (5274 <udd_ep_free+0x48>)
    5248:	0029      	movs	r1, r5
    524a:	0030      	movs	r0, r6
    524c:	4b0a      	ldr	r3, [pc, #40]	; (5278 <udd_ep_free+0x4c>)
    524e:	4798      	blx	r3
    5250:	210f      	movs	r1, #15
    5252:	4021      	ands	r1, r4
    5254:	2200      	movs	r2, #0
    5256:	0030      	movs	r0, r6
    5258:	4b08      	ldr	r3, [pc, #32]	; (527c <udd_ep_free+0x50>)
    525a:	4798      	blx	r3
    525c:	2200      	movs	r2, #0
    525e:	0021      	movs	r1, r4
    5260:	0030      	movs	r0, r6
    5262:	4b07      	ldr	r3, [pc, #28]	; (5280 <udd_ep_free+0x54>)
    5264:	4798      	blx	r3
    5266:	b002      	add	sp, #8
    5268:	bd70      	pop	{r4, r5, r6, pc}
    526a:	46c0      	nop			; (mov r8, r8)
    526c:	00005aa5 	.word	0x00005aa5
    5270:	000051cd 	.word	0x000051cd
    5274:	200026f0 	.word	0x200026f0
    5278:	00005ab5 	.word	0x00005ab5
    527c:	000058dd 	.word	0x000058dd
    5280:	000059d5 	.word	0x000059d5

00005284 <udd_ep_alloc>:
    5284:	b5f0      	push	{r4, r5, r6, r7, lr}
    5286:	b083      	sub	sp, #12
    5288:	0005      	movs	r5, r0
    528a:	000f      	movs	r7, r1
    528c:	0014      	movs	r4, r2
    528e:	ae01      	add	r6, sp, #4
    5290:	0030      	movs	r0, r6
    5292:	4b36      	ldr	r3, [pc, #216]	; (536c <udd_ep_alloc+0xe8>)
    5294:	4798      	blx	r3
    5296:	7035      	strb	r5, [r6, #0]
    5298:	2c08      	cmp	r4, #8
    529a:	d813      	bhi.n	52c4 <udd_ep_alloc+0x40>
    529c:	2200      	movs	r2, #0
    529e:	ab01      	add	r3, sp, #4
    52a0:	705a      	strb	r2, [r3, #1]
    52a2:	0028      	movs	r0, r5
    52a4:	4b32      	ldr	r3, [pc, #200]	; (5370 <udd_ep_alloc+0xec>)
    52a6:	4798      	blx	r3
    52a8:	8204      	strh	r4, [r0, #16]
    52aa:	2103      	movs	r1, #3
    52ac:	4039      	ands	r1, r7
    52ae:	2901      	cmp	r1, #1
    52b0:	d038      	beq.n	5324 <udd_ep_alloc+0xa0>
    52b2:	2902      	cmp	r1, #2
    52b4:	d043      	beq.n	533e <udd_ep_alloc+0xba>
    52b6:	2300      	movs	r3, #0
    52b8:	2903      	cmp	r1, #3
    52ba:	d13d      	bne.n	5338 <udd_ep_alloc+0xb4>
    52bc:	2204      	movs	r2, #4
    52be:	ab01      	add	r3, sp, #4
    52c0:	70da      	strb	r2, [r3, #3]
    52c2:	e032      	b.n	532a <udd_ep_alloc+0xa6>
    52c4:	2c10      	cmp	r4, #16
    52c6:	d803      	bhi.n	52d0 <udd_ep_alloc+0x4c>
    52c8:	2201      	movs	r2, #1
    52ca:	ab01      	add	r3, sp, #4
    52cc:	705a      	strb	r2, [r3, #1]
    52ce:	e7e8      	b.n	52a2 <udd_ep_alloc+0x1e>
    52d0:	2c20      	cmp	r4, #32
    52d2:	d803      	bhi.n	52dc <udd_ep_alloc+0x58>
    52d4:	2202      	movs	r2, #2
    52d6:	ab01      	add	r3, sp, #4
    52d8:	705a      	strb	r2, [r3, #1]
    52da:	e7e2      	b.n	52a2 <udd_ep_alloc+0x1e>
    52dc:	2c40      	cmp	r4, #64	; 0x40
    52de:	d803      	bhi.n	52e8 <udd_ep_alloc+0x64>
    52e0:	2203      	movs	r2, #3
    52e2:	ab01      	add	r3, sp, #4
    52e4:	705a      	strb	r2, [r3, #1]
    52e6:	e7dc      	b.n	52a2 <udd_ep_alloc+0x1e>
    52e8:	2c80      	cmp	r4, #128	; 0x80
    52ea:	d803      	bhi.n	52f4 <udd_ep_alloc+0x70>
    52ec:	2204      	movs	r2, #4
    52ee:	ab01      	add	r3, sp, #4
    52f0:	705a      	strb	r2, [r3, #1]
    52f2:	e7d6      	b.n	52a2 <udd_ep_alloc+0x1e>
    52f4:	2380      	movs	r3, #128	; 0x80
    52f6:	005b      	lsls	r3, r3, #1
    52f8:	429c      	cmp	r4, r3
    52fa:	d803      	bhi.n	5304 <udd_ep_alloc+0x80>
    52fc:	2205      	movs	r2, #5
    52fe:	ab01      	add	r3, sp, #4
    5300:	705a      	strb	r2, [r3, #1]
    5302:	e7ce      	b.n	52a2 <udd_ep_alloc+0x1e>
    5304:	2380      	movs	r3, #128	; 0x80
    5306:	009b      	lsls	r3, r3, #2
    5308:	429c      	cmp	r4, r3
    530a:	d803      	bhi.n	5314 <udd_ep_alloc+0x90>
    530c:	2206      	movs	r2, #6
    530e:	ab01      	add	r3, sp, #4
    5310:	705a      	strb	r2, [r3, #1]
    5312:	e7c6      	b.n	52a2 <udd_ep_alloc+0x1e>
    5314:	4a17      	ldr	r2, [pc, #92]	; (5374 <udd_ep_alloc+0xf0>)
    5316:	2300      	movs	r3, #0
    5318:	4294      	cmp	r4, r2
    531a:	d80d      	bhi.n	5338 <udd_ep_alloc+0xb4>
    531c:	2207      	movs	r2, #7
    531e:	ab01      	add	r3, sp, #4
    5320:	705a      	strb	r2, [r3, #1]
    5322:	e7be      	b.n	52a2 <udd_ep_alloc+0x1e>
    5324:	2202      	movs	r2, #2
    5326:	ab01      	add	r3, sp, #4
    5328:	70da      	strb	r2, [r3, #3]
    532a:	a901      	add	r1, sp, #4
    532c:	4812      	ldr	r0, [pc, #72]	; (5378 <udd_ep_alloc+0xf4>)
    532e:	4b13      	ldr	r3, [pc, #76]	; (537c <udd_ep_alloc+0xf8>)
    5330:	4798      	blx	r3
    5332:	2300      	movs	r3, #0
    5334:	2800      	cmp	r0, #0
    5336:	d006      	beq.n	5346 <udd_ep_alloc+0xc2>
    5338:	0018      	movs	r0, r3
    533a:	b003      	add	sp, #12
    533c:	bdf0      	pop	{r4, r5, r6, r7, pc}
    533e:	2203      	movs	r2, #3
    5340:	ab01      	add	r3, sp, #4
    5342:	70da      	strb	r2, [r3, #3]
    5344:	e7f1      	b.n	532a <udd_ep_alloc+0xa6>
    5346:	210f      	movs	r1, #15
    5348:	4029      	ands	r1, r5
    534a:	4c0b      	ldr	r4, [pc, #44]	; (5378 <udd_ep_alloc+0xf4>)
    534c:	4b0c      	ldr	r3, [pc, #48]	; (5380 <udd_ep_alloc+0xfc>)
    534e:	2200      	movs	r2, #0
    5350:	0020      	movs	r0, r4
    5352:	4e0c      	ldr	r6, [pc, #48]	; (5384 <udd_ep_alloc+0x100>)
    5354:	47b0      	blx	r6
    5356:	2200      	movs	r2, #0
    5358:	0029      	movs	r1, r5
    535a:	0020      	movs	r0, r4
    535c:	4e0a      	ldr	r6, [pc, #40]	; (5388 <udd_ep_alloc+0x104>)
    535e:	47b0      	blx	r6
    5360:	2201      	movs	r2, #1
    5362:	0029      	movs	r1, r5
    5364:	0020      	movs	r0, r4
    5366:	47b0      	blx	r6
    5368:	2301      	movs	r3, #1
    536a:	e7e5      	b.n	5338 <udd_ep_alloc+0xb4>
    536c:	00005aa5 	.word	0x00005aa5
    5370:	00004c29 	.word	0x00004c29
    5374:	000003ff 	.word	0x000003ff
    5378:	200026f0 	.word	0x200026f0
    537c:	00005ab5 	.word	0x00005ab5
    5380:	00004c4d 	.word	0x00004c4d
    5384:	000058b5 	.word	0x000058b5
    5388:	00005905 	.word	0x00005905

0000538c <udd_ep_is_halted>:
    538c:	b510      	push	{r4, lr}
    538e:	0001      	movs	r1, r0
    5390:	4801      	ldr	r0, [pc, #4]	; (5398 <udd_ep_is_halted+0xc>)
    5392:	4b02      	ldr	r3, [pc, #8]	; (539c <udd_ep_is_halted+0x10>)
    5394:	4798      	blx	r3
    5396:	bd10      	pop	{r4, pc}
    5398:	200026f0 	.word	0x200026f0
    539c:	00005d2f 	.word	0x00005d2f

000053a0 <udd_ep_set_halt>:
    53a0:	b510      	push	{r4, lr}
    53a2:	0004      	movs	r4, r0
    53a4:	230f      	movs	r3, #15
    53a6:	4003      	ands	r3, r0
    53a8:	2000      	movs	r0, #0
    53aa:	2b03      	cmp	r3, #3
    53ac:	d900      	bls.n	53b0 <udd_ep_set_halt+0x10>
    53ae:	bd10      	pop	{r4, pc}
    53b0:	0021      	movs	r1, r4
    53b2:	4804      	ldr	r0, [pc, #16]	; (53c4 <udd_ep_set_halt+0x24>)
    53b4:	4b04      	ldr	r3, [pc, #16]	; (53c8 <udd_ep_set_halt+0x28>)
    53b6:	4798      	blx	r3
    53b8:	0020      	movs	r0, r4
    53ba:	4b04      	ldr	r3, [pc, #16]	; (53cc <udd_ep_set_halt+0x2c>)
    53bc:	4798      	blx	r3
    53be:	2001      	movs	r0, #1
    53c0:	e7f5      	b.n	53ae <udd_ep_set_halt+0xe>
    53c2:	46c0      	nop			; (mov r8, r8)
    53c4:	200026f0 	.word	0x200026f0
    53c8:	00005d59 	.word	0x00005d59
    53cc:	000051cd 	.word	0x000051cd

000053d0 <_usb_ep0_on_tansfer_ok>:
    53d0:	b570      	push	{r4, r5, r6, lr}
    53d2:	4b34      	ldr	r3, [pc, #208]	; (54a4 <_usb_ep0_on_tansfer_ok+0xd4>)
    53d4:	781b      	ldrb	r3, [r3, #0]
    53d6:	2b01      	cmp	r3, #1
    53d8:	d00a      	beq.n	53f0 <_usb_ep0_on_tansfer_ok+0x20>
    53da:	2b02      	cmp	r3, #2
    53dc:	d05f      	beq.n	549e <_usb_ep0_on_tansfer_ok+0xce>
    53de:	4b32      	ldr	r3, [pc, #200]	; (54a8 <_usb_ep0_on_tansfer_ok+0xd8>)
    53e0:	691b      	ldr	r3, [r3, #16]
    53e2:	2b00      	cmp	r3, #0
    53e4:	d000      	beq.n	53e8 <_usb_ep0_on_tansfer_ok+0x18>
    53e6:	4798      	blx	r3
    53e8:	2200      	movs	r2, #0
    53ea:	4b2e      	ldr	r3, [pc, #184]	; (54a4 <_usb_ep0_on_tansfer_ok+0xd4>)
    53ec:	701a      	strb	r2, [r3, #0]
    53ee:	bd70      	pop	{r4, r5, r6, pc}
    53f0:	880d      	ldrh	r5, [r1, #0]
    53f2:	4b2d      	ldr	r3, [pc, #180]	; (54a8 <_usb_ep0_on_tansfer_ok+0xd8>)
    53f4:	899b      	ldrh	r3, [r3, #12]
    53f6:	4a2d      	ldr	r2, [pc, #180]	; (54ac <_usb_ep0_on_tansfer_ok+0xdc>)
    53f8:	8814      	ldrh	r4, [r2, #0]
    53fa:	1962      	adds	r2, r4, r5
    53fc:	4293      	cmp	r3, r2
    53fe:	da01      	bge.n	5404 <_usb_ep0_on_tansfer_ok+0x34>
    5400:	1b1d      	subs	r5, r3, r4
    5402:	b2ad      	uxth	r5, r5
    5404:	4b28      	ldr	r3, [pc, #160]	; (54a8 <_usb_ep0_on_tansfer_ok+0xd8>)
    5406:	6898      	ldr	r0, [r3, #8]
    5408:	1900      	adds	r0, r0, r4
    540a:	002a      	movs	r2, r5
    540c:	4928      	ldr	r1, [pc, #160]	; (54b0 <_usb_ep0_on_tansfer_ok+0xe0>)
    540e:	4b29      	ldr	r3, [pc, #164]	; (54b4 <_usb_ep0_on_tansfer_ok+0xe4>)
    5410:	4798      	blx	r3
    5412:	1964      	adds	r4, r4, r5
    5414:	b2a4      	uxth	r4, r4
    5416:	4b25      	ldr	r3, [pc, #148]	; (54ac <_usb_ep0_on_tansfer_ok+0xdc>)
    5418:	801c      	strh	r4, [r3, #0]
    541a:	2d40      	cmp	r5, #64	; 0x40
    541c:	d00a      	beq.n	5434 <_usb_ep0_on_tansfer_ok+0x64>
    541e:	4b22      	ldr	r3, [pc, #136]	; (54a8 <_usb_ep0_on_tansfer_ok+0xd8>)
    5420:	819c      	strh	r4, [r3, #12]
    5422:	695b      	ldr	r3, [r3, #20]
    5424:	2b00      	cmp	r3, #0
    5426:	d002      	beq.n	542e <_usb_ep0_on_tansfer_ok+0x5e>
    5428:	4798      	blx	r3
    542a:	2800      	cmp	r0, #0
    542c:	d014      	beq.n	5458 <_usb_ep0_on_tansfer_ok+0x88>
    542e:	4b22      	ldr	r3, [pc, #136]	; (54b8 <_usb_ep0_on_tansfer_ok+0xe8>)
    5430:	4798      	blx	r3
    5432:	e7dc      	b.n	53ee <_usb_ep0_on_tansfer_ok+0x1e>
    5434:	4b1c      	ldr	r3, [pc, #112]	; (54a8 <_usb_ep0_on_tansfer_ok+0xd8>)
    5436:	88da      	ldrh	r2, [r3, #6]
    5438:	4b20      	ldr	r3, [pc, #128]	; (54bc <_usb_ep0_on_tansfer_ok+0xec>)
    543a:	881b      	ldrh	r3, [r3, #0]
    543c:	191b      	adds	r3, r3, r4
    543e:	429a      	cmp	r2, r3
    5440:	dded      	ble.n	541e <_usb_ep0_on_tansfer_ok+0x4e>
    5442:	4b19      	ldr	r3, [pc, #100]	; (54a8 <_usb_ep0_on_tansfer_ok+0xd8>)
    5444:	899b      	ldrh	r3, [r3, #12]
    5446:	42a3      	cmp	r3, r4
    5448:	d00c      	beq.n	5464 <_usb_ep0_on_tansfer_ok+0x94>
    544a:	2340      	movs	r3, #64	; 0x40
    544c:	4a18      	ldr	r2, [pc, #96]	; (54b0 <_usb_ep0_on_tansfer_ok+0xe0>)
    544e:	2100      	movs	r1, #0
    5450:	481b      	ldr	r0, [pc, #108]	; (54c0 <_usb_ep0_on_tansfer_ok+0xf0>)
    5452:	4c1c      	ldr	r4, [pc, #112]	; (54c4 <_usb_ep0_on_tansfer_ok+0xf4>)
    5454:	47a0      	blx	r4
    5456:	e7ca      	b.n	53ee <_usb_ep0_on_tansfer_ok+0x1e>
    5458:	2205      	movs	r2, #5
    545a:	4b12      	ldr	r3, [pc, #72]	; (54a4 <_usb_ep0_on_tansfer_ok+0xd4>)
    545c:	701a      	strb	r2, [r3, #0]
    545e:	4b1a      	ldr	r3, [pc, #104]	; (54c8 <_usb_ep0_on_tansfer_ok+0xf8>)
    5460:	4798      	blx	r3
    5462:	e7c4      	b.n	53ee <_usb_ep0_on_tansfer_ok+0x1e>
    5464:	4b10      	ldr	r3, [pc, #64]	; (54a8 <_usb_ep0_on_tansfer_ok+0xd8>)
    5466:	695b      	ldr	r3, [r3, #20]
    5468:	2b00      	cmp	r3, #0
    546a:	d00b      	beq.n	5484 <_usb_ep0_on_tansfer_ok+0xb4>
    546c:	4798      	blx	r3
    546e:	2800      	cmp	r0, #0
    5470:	d00f      	beq.n	5492 <_usb_ep0_on_tansfer_ok+0xc2>
    5472:	4912      	ldr	r1, [pc, #72]	; (54bc <_usb_ep0_on_tansfer_ok+0xec>)
    5474:	4a0d      	ldr	r2, [pc, #52]	; (54ac <_usb_ep0_on_tansfer_ok+0xdc>)
    5476:	880b      	ldrh	r3, [r1, #0]
    5478:	8810      	ldrh	r0, [r2, #0]
    547a:	181b      	adds	r3, r3, r0
    547c:	800b      	strh	r3, [r1, #0]
    547e:	2300      	movs	r3, #0
    5480:	8013      	strh	r3, [r2, #0]
    5482:	e7e2      	b.n	544a <_usb_ep0_on_tansfer_ok+0x7a>
    5484:	2205      	movs	r2, #5
    5486:	4b07      	ldr	r3, [pc, #28]	; (54a4 <_usb_ep0_on_tansfer_ok+0xd4>)
    5488:	701a      	strb	r2, [r3, #0]
    548a:	2000      	movs	r0, #0
    548c:	4b0e      	ldr	r3, [pc, #56]	; (54c8 <_usb_ep0_on_tansfer_ok+0xf8>)
    548e:	4798      	blx	r3
    5490:	e7ad      	b.n	53ee <_usb_ep0_on_tansfer_ok+0x1e>
    5492:	2205      	movs	r2, #5
    5494:	4b03      	ldr	r3, [pc, #12]	; (54a4 <_usb_ep0_on_tansfer_ok+0xd4>)
    5496:	701a      	strb	r2, [r3, #0]
    5498:	4b0b      	ldr	r3, [pc, #44]	; (54c8 <_usb_ep0_on_tansfer_ok+0xf8>)
    549a:	4798      	blx	r3
    549c:	e7a7      	b.n	53ee <_usb_ep0_on_tansfer_ok+0x1e>
    549e:	4b0b      	ldr	r3, [pc, #44]	; (54cc <_usb_ep0_on_tansfer_ok+0xfc>)
    54a0:	4798      	blx	r3
    54a2:	e7a4      	b.n	53ee <_usb_ep0_on_tansfer_ok+0x1e>
    54a4:	20000e8a 	.word	0x20000e8a
    54a8:	20002858 	.word	0x20002858
    54ac:	20000e86 	.word	0x20000e86
    54b0:	20002870 	.word	0x20002870
    54b4:	0000bded 	.word	0x0000bded
    54b8:	00004fa5 	.word	0x00004fa5
    54bc:	20000e88 	.word	0x20000e88
    54c0:	200026f0 	.word	0x200026f0
    54c4:	00005e59 	.word	0x00005e59
    54c8:	000053a1 	.word	0x000053a1
    54cc:	00005035 	.word	0x00005035

000054d0 <udd_ep_clear_halt>:
    54d0:	b570      	push	{r4, r5, r6, lr}
    54d2:	0004      	movs	r4, r0
    54d4:	230f      	movs	r3, #15
    54d6:	4003      	ands	r3, r0
    54d8:	2000      	movs	r0, #0
    54da:	2b03      	cmp	r3, #3
    54dc:	d900      	bls.n	54e0 <udd_ep_clear_halt+0x10>
    54de:	bd70      	pop	{r4, r5, r6, pc}
    54e0:	0020      	movs	r0, r4
    54e2:	4b09      	ldr	r3, [pc, #36]	; (5508 <udd_ep_clear_halt+0x38>)
    54e4:	4798      	blx	r3
    54e6:	0005      	movs	r5, r0
    54e8:	0021      	movs	r1, r4
    54ea:	4808      	ldr	r0, [pc, #32]	; (550c <udd_ep_clear_halt+0x3c>)
    54ec:	4b08      	ldr	r3, [pc, #32]	; (5510 <udd_ep_clear_halt+0x40>)
    54ee:	4798      	blx	r3
    54f0:	7cab      	ldrb	r3, [r5, #18]
    54f2:	2001      	movs	r0, #1
    54f4:	07db      	lsls	r3, r3, #31
    54f6:	d5f2      	bpl.n	54de <udd_ep_clear_halt+0xe>
    54f8:	7cab      	ldrb	r3, [r5, #18]
    54fa:	2201      	movs	r2, #1
    54fc:	4393      	bics	r3, r2
    54fe:	74ab      	strb	r3, [r5, #18]
    5500:	682b      	ldr	r3, [r5, #0]
    5502:	4798      	blx	r3
    5504:	2001      	movs	r0, #1
    5506:	e7ea      	b.n	54de <udd_ep_clear_halt+0xe>
    5508:	00004c29 	.word	0x00004c29
    550c:	200026f0 	.word	0x200026f0
    5510:	00005d7f 	.word	0x00005d7f

00005514 <udd_ep_run>:
    5514:	b5f0      	push	{r4, r5, r6, r7, lr}
    5516:	b087      	sub	sp, #28
    5518:	0005      	movs	r5, r0
    551a:	9103      	str	r1, [sp, #12]
    551c:	9202      	str	r2, [sp, #8]
    551e:	9301      	str	r3, [sp, #4]
    5520:	260f      	movs	r6, #15
    5522:	4006      	ands	r6, r0
    5524:	2400      	movs	r4, #0
    5526:	2e03      	cmp	r6, #3
    5528:	d902      	bls.n	5530 <udd_ep_run+0x1c>
    552a:	0020      	movs	r0, r4
    552c:	b007      	add	sp, #28
    552e:	bdf0      	pop	{r4, r5, r6, r7, pc}
    5530:	4b64      	ldr	r3, [pc, #400]	; (56c4 <udd_ep_run+0x1b0>)
    5532:	4798      	blx	r3
    5534:	1e04      	subs	r4, r0, #0
    5536:	d000      	beq.n	553a <udd_ep_run+0x26>
    5538:	e0bd      	b.n	56b6 <udd_ep_run+0x1a2>
    553a:	0028      	movs	r0, r5
    553c:	4b62      	ldr	r3, [pc, #392]	; (56c8 <udd_ep_run+0x1b4>)
    553e:	4798      	blx	r3
    5540:	0007      	movs	r7, r0
    5542:	f3ef 8310 	mrs	r3, PRIMASK
    5546:	425a      	negs	r2, r3
    5548:	4153      	adcs	r3, r2
    554a:	9305      	str	r3, [sp, #20]
    554c:	b672      	cpsid	i
    554e:	f3bf 8f5f 	dmb	sy
    5552:	2200      	movs	r2, #0
    5554:	4b5d      	ldr	r3, [pc, #372]	; (56cc <udd_ep_run+0x1b8>)
    5556:	701a      	strb	r2, [r3, #0]
    5558:	9a05      	ldr	r2, [sp, #20]
    555a:	7c83      	ldrb	r3, [r0, #18]
    555c:	07db      	lsls	r3, r3, #31
    555e:	d508      	bpl.n	5572 <udd_ep_run+0x5e>
    5560:	2a00      	cmp	r2, #0
    5562:	d0e2      	beq.n	552a <udd_ep_run+0x16>
    5564:	2201      	movs	r2, #1
    5566:	4b59      	ldr	r3, [pc, #356]	; (56cc <udd_ep_run+0x1b8>)
    5568:	701a      	strb	r2, [r3, #0]
    556a:	f3bf 8f5f 	dmb	sy
    556e:	b662      	cpsie	i
    5570:	e7db      	b.n	552a <udd_ep_run+0x16>
    5572:	7c83      	ldrb	r3, [r0, #18]
    5574:	2101      	movs	r1, #1
    5576:	430b      	orrs	r3, r1
    5578:	7483      	strb	r3, [r0, #18]
    557a:	2a00      	cmp	r2, #0
    557c:	d005      	beq.n	558a <udd_ep_run+0x76>
    557e:	2201      	movs	r2, #1
    5580:	4b52      	ldr	r3, [pc, #328]	; (56cc <udd_ep_run+0x1b8>)
    5582:	701a      	strb	r2, [r3, #0]
    5584:	f3bf 8f5f 	dmb	sy
    5588:	b662      	cpsie	i
    558a:	9b02      	ldr	r3, [sp, #8]
    558c:	607b      	str	r3, [r7, #4]
    558e:	9b01      	ldr	r3, [sp, #4]
    5590:	60bb      	str	r3, [r7, #8]
    5592:	2300      	movs	r3, #0
    5594:	60fb      	str	r3, [r7, #12]
    5596:	9b0c      	ldr	r3, [sp, #48]	; 0x30
    5598:	603b      	str	r3, [r7, #0]
    559a:	2301      	movs	r3, #1
    559c:	9a03      	ldr	r2, [sp, #12]
    559e:	4013      	ands	r3, r2
    55a0:	005a      	lsls	r2, r3, #1
    55a2:	7cbb      	ldrb	r3, [r7, #18]
    55a4:	2102      	movs	r1, #2
    55a6:	438b      	bics	r3, r1
    55a8:	4313      	orrs	r3, r2
    55aa:	2204      	movs	r2, #4
    55ac:	4393      	bics	r3, r2
    55ae:	74bb      	strb	r3, [r7, #18]
    55b0:	b26b      	sxtb	r3, r5
    55b2:	2b00      	cmp	r3, #0
    55b4:	db20      	blt.n	55f8 <udd_ep_run+0xe4>
    55b6:	9b01      	ldr	r3, [sp, #4]
    55b8:	2b00      	cmp	r3, #0
    55ba:	d06f      	beq.n	569c <udd_ep_run+0x188>
    55bc:	b29c      	uxth	r4, r3
    55be:	4b44      	ldr	r3, [pc, #272]	; (56d0 <udd_ep_run+0x1bc>)
    55c0:	429c      	cmp	r4, r3
    55c2:	d95a      	bls.n	567a <udd_ep_run+0x166>
    55c4:	8a39      	ldrh	r1, [r7, #16]
    55c6:	001c      	movs	r4, r3
    55c8:	0018      	movs	r0, r3
    55ca:	4b42      	ldr	r3, [pc, #264]	; (56d4 <udd_ep_run+0x1c0>)
    55cc:	4798      	blx	r3
    55ce:	1a63      	subs	r3, r4, r1
    55d0:	b29a      	uxth	r2, r3
    55d2:	8a3b      	ldrh	r3, [r7, #16]
    55d4:	429a      	cmp	r2, r3
    55d6:	d257      	bcs.n	5688 <udd_ep_run+0x174>
    55d8:	7cba      	ldrb	r2, [r7, #18]
    55da:	2104      	movs	r1, #4
    55dc:	430a      	orrs	r2, r1
    55de:	74ba      	strb	r2, [r7, #18]
    55e0:	1e72      	subs	r2, r6, #1
    55e2:	0192      	lsls	r2, r2, #6
    55e4:	493c      	ldr	r1, [pc, #240]	; (56d8 <udd_ep_run+0x1c4>)
    55e6:	1852      	adds	r2, r2, r1
    55e8:	0031      	movs	r1, r6
    55ea:	483c      	ldr	r0, [pc, #240]	; (56dc <udd_ep_run+0x1c8>)
    55ec:	4c3c      	ldr	r4, [pc, #240]	; (56e0 <udd_ep_run+0x1cc>)
    55ee:	47a0      	blx	r4
    55f0:	4244      	negs	r4, r0
    55f2:	4144      	adcs	r4, r0
    55f4:	b2e4      	uxtb	r4, r4
    55f6:	e798      	b.n	552a <udd_ep_run+0x16>
    55f8:	9b01      	ldr	r3, [sp, #4]
    55fa:	2b00      	cmp	r3, #0
    55fc:	d027      	beq.n	564e <udd_ep_run+0x13a>
    55fe:	b29d      	uxth	r5, r3
    5600:	4b33      	ldr	r3, [pc, #204]	; (56d0 <udd_ep_run+0x1bc>)
    5602:	429d      	cmp	r5, r3
    5604:	d906      	bls.n	5614 <udd_ep_run+0x100>
    5606:	8a39      	ldrh	r1, [r7, #16]
    5608:	001d      	movs	r5, r3
    560a:	0018      	movs	r0, r3
    560c:	4b31      	ldr	r3, [pc, #196]	; (56d4 <udd_ep_run+0x1c0>)
    560e:	4798      	blx	r3
    5610:	1a6b      	subs	r3, r5, r1
    5612:	b29d      	uxth	r5, r3
    5614:	7cbb      	ldrb	r3, [r7, #18]
    5616:	079b      	lsls	r3, r3, #30
    5618:	d507      	bpl.n	562a <udd_ep_run+0x116>
    561a:	8a39      	ldrh	r1, [r7, #16]
    561c:	0028      	movs	r0, r5
    561e:	4b31      	ldr	r3, [pc, #196]	; (56e4 <udd_ep_run+0x1d0>)
    5620:	4798      	blx	r3
    5622:	b289      	uxth	r1, r1
    5624:	424c      	negs	r4, r1
    5626:	414c      	adcs	r4, r1
    5628:	b2e4      	uxtb	r4, r4
    562a:	2001      	movs	r0, #1
    562c:	4020      	ands	r0, r4
    562e:	0040      	lsls	r0, r0, #1
    5630:	7cbc      	ldrb	r4, [r7, #18]
    5632:	2302      	movs	r3, #2
    5634:	439c      	bics	r4, r3
    5636:	4304      	orrs	r4, r0
    5638:	74bc      	strb	r4, [r7, #18]
    563a:	002b      	movs	r3, r5
    563c:	9a02      	ldr	r2, [sp, #8]
    563e:	0031      	movs	r1, r6
    5640:	4826      	ldr	r0, [pc, #152]	; (56dc <udd_ep_run+0x1c8>)
    5642:	4c29      	ldr	r4, [pc, #164]	; (56e8 <udd_ep_run+0x1d4>)
    5644:	47a0      	blx	r4
    5646:	4244      	negs	r4, r0
    5648:	4144      	adcs	r4, r0
    564a:	b2e4      	uxtb	r4, r4
    564c:	e76d      	b.n	552a <udd_ep_run+0x16>
    564e:	7cbb      	ldrb	r3, [r7, #18]
    5650:	079b      	lsls	r3, r3, #30
    5652:	d505      	bpl.n	5660 <udd_ep_run+0x14c>
    5654:	7cbb      	ldrb	r3, [r7, #18]
    5656:	2202      	movs	r2, #2
    5658:	4393      	bics	r3, r2
    565a:	74bb      	strb	r3, [r7, #18]
    565c:	2500      	movs	r5, #0
    565e:	e7ec      	b.n	563a <udd_ep_run+0x126>
    5660:	7cbb      	ldrb	r3, [r7, #18]
    5662:	2201      	movs	r2, #1
    5664:	4393      	bics	r3, r2
    5666:	74bb      	strb	r3, [r7, #18]
    5668:	9b0c      	ldr	r3, [sp, #48]	; 0x30
    566a:	2b00      	cmp	r3, #0
    566c:	d025      	beq.n	56ba <udd_ep_run+0x1a6>
    566e:	002a      	movs	r2, r5
    5670:	2100      	movs	r1, #0
    5672:	2000      	movs	r0, #0
    5674:	4798      	blx	r3
    5676:	2401      	movs	r4, #1
    5678:	e757      	b.n	552a <udd_ep_run+0x16>
    567a:	8a39      	ldrh	r1, [r7, #16]
    567c:	0020      	movs	r0, r4
    567e:	4b19      	ldr	r3, [pc, #100]	; (56e4 <udd_ep_run+0x1d0>)
    5680:	4798      	blx	r3
    5682:	1a63      	subs	r3, r4, r1
    5684:	b29a      	uxth	r2, r3
    5686:	e7a4      	b.n	55d2 <udd_ep_run+0xbe>
    5688:	0013      	movs	r3, r2
    568a:	9a02      	ldr	r2, [sp, #8]
    568c:	0031      	movs	r1, r6
    568e:	4813      	ldr	r0, [pc, #76]	; (56dc <udd_ep_run+0x1c8>)
    5690:	4c13      	ldr	r4, [pc, #76]	; (56e0 <udd_ep_run+0x1cc>)
    5692:	47a0      	blx	r4
    5694:	4244      	negs	r4, r0
    5696:	4144      	adcs	r4, r0
    5698:	b2e4      	uxtb	r4, r4
    569a:	e746      	b.n	552a <udd_ep_run+0x16>
    569c:	7cbb      	ldrb	r3, [r7, #18]
    569e:	2201      	movs	r2, #1
    56a0:	4393      	bics	r3, r2
    56a2:	74bb      	strb	r3, [r7, #18]
    56a4:	9b0c      	ldr	r3, [sp, #48]	; 0x30
    56a6:	2b00      	cmp	r3, #0
    56a8:	d009      	beq.n	56be <udd_ep_run+0x1aa>
    56aa:	002a      	movs	r2, r5
    56ac:	2100      	movs	r1, #0
    56ae:	2000      	movs	r0, #0
    56b0:	4798      	blx	r3
    56b2:	2401      	movs	r4, #1
    56b4:	e739      	b.n	552a <udd_ep_run+0x16>
    56b6:	2400      	movs	r4, #0
    56b8:	e737      	b.n	552a <udd_ep_run+0x16>
    56ba:	2401      	movs	r4, #1
    56bc:	e735      	b.n	552a <udd_ep_run+0x16>
    56be:	2401      	movs	r4, #1
    56c0:	e733      	b.n	552a <udd_ep_run+0x16>
    56c2:	46c0      	nop			; (mov r8, r8)
    56c4:	0000538d 	.word	0x0000538d
    56c8:	00004c29 	.word	0x00004c29
    56cc:	20000108 	.word	0x20000108
    56d0:	00001fff 	.word	0x00001fff
    56d4:	0000923d 	.word	0x0000923d
    56d8:	20002630 	.word	0x20002630
    56dc:	200026f0 	.word	0x200026f0
    56e0:	00005e59 	.word	0x00005e59
    56e4:	00009069 	.word	0x00009069
    56e8:	00005e05 	.word	0x00005e05

000056ec <udd_set_address>:
    56ec:	4b02      	ldr	r3, [pc, #8]	; (56f8 <udd_set_address+0xc>)
    56ee:	681b      	ldr	r3, [r3, #0]
    56f0:	2280      	movs	r2, #128	; 0x80
    56f2:	4310      	orrs	r0, r2
    56f4:	7298      	strb	r0, [r3, #10]
    56f6:	4770      	bx	lr
    56f8:	200026f0 	.word	0x200026f0

000056fc <udd_getaddress>:
    56fc:	4b02      	ldr	r3, [pc, #8]	; (5708 <udd_getaddress+0xc>)
    56fe:	681b      	ldr	r3, [r3, #0]
    5700:	7a98      	ldrb	r0, [r3, #10]
    5702:	0640      	lsls	r0, r0, #25
    5704:	0e40      	lsrs	r0, r0, #25
    5706:	4770      	bx	lr
    5708:	200026f0 	.word	0x200026f0

0000570c <udd_set_setup_payload>:
    570c:	4b01      	ldr	r3, [pc, #4]	; (5714 <udd_set_setup_payload+0x8>)
    570e:	6098      	str	r0, [r3, #8]
    5710:	8199      	strh	r1, [r3, #12]
    5712:	4770      	bx	lr
    5714:	20002858 	.word	0x20002858

00005718 <udd_attach>:
    5718:	b570      	push	{r4, r5, r6, lr}
    571a:	2003      	movs	r0, #3
    571c:	4b16      	ldr	r3, [pc, #88]	; (5778 <udd_attach+0x60>)
    571e:	4798      	blx	r3
    5720:	4c16      	ldr	r4, [pc, #88]	; (577c <udd_attach+0x64>)
    5722:	6822      	ldr	r2, [r4, #0]
    5724:	8913      	ldrh	r3, [r2, #8]
    5726:	2101      	movs	r1, #1
    5728:	438b      	bics	r3, r1
    572a:	8113      	strh	r3, [r2, #8]
    572c:	4a14      	ldr	r2, [pc, #80]	; (5780 <udd_attach+0x68>)
    572e:	3103      	adds	r1, #3
    5730:	0020      	movs	r0, r4
    5732:	4e14      	ldr	r6, [pc, #80]	; (5784 <udd_attach+0x6c>)
    5734:	47b0      	blx	r6
    5736:	4a14      	ldr	r2, [pc, #80]	; (5788 <udd_attach+0x70>)
    5738:	2100      	movs	r1, #0
    573a:	0020      	movs	r0, r4
    573c:	47b0      	blx	r6
    573e:	4a13      	ldr	r2, [pc, #76]	; (578c <udd_attach+0x74>)
    5740:	2101      	movs	r1, #1
    5742:	0020      	movs	r0, r4
    5744:	47b0      	blx	r6
    5746:	4a12      	ldr	r2, [pc, #72]	; (5790 <udd_attach+0x78>)
    5748:	2102      	movs	r1, #2
    574a:	0020      	movs	r0, r4
    574c:	47b0      	blx	r6
    574e:	2104      	movs	r1, #4
    5750:	0020      	movs	r0, r4
    5752:	4d10      	ldr	r5, [pc, #64]	; (5794 <udd_attach+0x7c>)
    5754:	47a8      	blx	r5
    5756:	2100      	movs	r1, #0
    5758:	0020      	movs	r0, r4
    575a:	47a8      	blx	r5
    575c:	2101      	movs	r1, #1
    575e:	0020      	movs	r0, r4
    5760:	47a8      	blx	r5
    5762:	2102      	movs	r1, #2
    5764:	0020      	movs	r0, r4
    5766:	47a8      	blx	r5
    5768:	4a0b      	ldr	r2, [pc, #44]	; (5798 <udd_attach+0x80>)
    576a:	2106      	movs	r1, #6
    576c:	0020      	movs	r0, r4
    576e:	47b0      	blx	r6
    5770:	2106      	movs	r1, #6
    5772:	0020      	movs	r0, r4
    5774:	47a8      	blx	r5
    5776:	bd70      	pop	{r4, r5, r6, pc}
    5778:	00004b69 	.word	0x00004b69
    577c:	200026f0 	.word	0x200026f0
    5780:	00004ec9 	.word	0x00004ec9
    5784:	00005855 	.word	0x00005855
    5788:	000051c1 	.word	0x000051c1
    578c:	00004ef5 	.word	0x00004ef5
    5790:	00004e61 	.word	0x00004e61
    5794:	00005879 	.word	0x00005879
    5798:	00004e2d 	.word	0x00004e2d

0000579c <udd_enable>:
    579c:	b570      	push	{r4, r5, r6, lr}
    579e:	b082      	sub	sp, #8
    57a0:	f3ef 8310 	mrs	r3, PRIMASK
    57a4:	425a      	negs	r2, r3
    57a6:	4153      	adcs	r3, r2
    57a8:	9300      	str	r3, [sp, #0]
    57aa:	b672      	cpsid	i
    57ac:	f3bf 8f5f 	dmb	sy
    57b0:	2600      	movs	r6, #0
    57b2:	4b18      	ldr	r3, [pc, #96]	; (5814 <udd_enable+0x78>)
    57b4:	701e      	strb	r6, [r3, #0]
    57b6:	9c00      	ldr	r4, [sp, #0]
    57b8:	ad01      	add	r5, sp, #4
    57ba:	0028      	movs	r0, r5
    57bc:	4b16      	ldr	r3, [pc, #88]	; (5818 <udd_enable+0x7c>)
    57be:	4798      	blx	r3
    57c0:	70ae      	strb	r6, [r5, #2]
    57c2:	4e16      	ldr	r6, [pc, #88]	; (581c <udd_enable+0x80>)
    57c4:	002a      	movs	r2, r5
    57c6:	4916      	ldr	r1, [pc, #88]	; (5820 <udd_enable+0x84>)
    57c8:	0030      	movs	r0, r6
    57ca:	4b16      	ldr	r3, [pc, #88]	; (5824 <udd_enable+0x88>)
    57cc:	4798      	blx	r3
    57ce:	0030      	movs	r0, r6
    57d0:	4b15      	ldr	r3, [pc, #84]	; (5828 <udd_enable+0x8c>)
    57d2:	4798      	blx	r3
    57d4:	4b15      	ldr	r3, [pc, #84]	; (582c <udd_enable+0x90>)
    57d6:	8c9b      	ldrh	r3, [r3, #36]	; 0x24
    57d8:	069b      	lsls	r3, r3, #26
    57da:	d414      	bmi.n	5806 <udd_enable+0x6a>
    57dc:	4913      	ldr	r1, [pc, #76]	; (582c <udd_enable+0x90>)
    57de:	22d0      	movs	r2, #208	; 0xd0
    57e0:	68cb      	ldr	r3, [r1, #12]
    57e2:	4013      	ands	r3, r2
    57e4:	2bd0      	cmp	r3, #208	; 0xd0
    57e6:	d1fb      	bne.n	57e0 <udd_enable+0x44>
    57e8:	2001      	movs	r0, #1
    57ea:	4b11      	ldr	r3, [pc, #68]	; (5830 <udd_enable+0x94>)
    57ec:	4798      	blx	r3
    57ee:	4b11      	ldr	r3, [pc, #68]	; (5834 <udd_enable+0x98>)
    57f0:	4798      	blx	r3
    57f2:	2c00      	cmp	r4, #0
    57f4:	d005      	beq.n	5802 <udd_enable+0x66>
    57f6:	2201      	movs	r2, #1
    57f8:	4b06      	ldr	r3, [pc, #24]	; (5814 <udd_enable+0x78>)
    57fa:	701a      	strb	r2, [r3, #0]
    57fc:	f3bf 8f5f 	dmb	sy
    5800:	b662      	cpsie	i
    5802:	b002      	add	sp, #8
    5804:	bd70      	pop	{r4, r5, r6, pc}
    5806:	4909      	ldr	r1, [pc, #36]	; (582c <udd_enable+0x90>)
    5808:	2210      	movs	r2, #16
    580a:	68cb      	ldr	r3, [r1, #12]
    580c:	421a      	tst	r2, r3
    580e:	d0fc      	beq.n	580a <udd_enable+0x6e>
    5810:	e7ea      	b.n	57e8 <udd_enable+0x4c>
    5812:	46c0      	nop			; (mov r8, r8)
    5814:	20000108 	.word	0x20000108
    5818:	000064b5 	.word	0x000064b5
    581c:	200026f0 	.word	0x200026f0
    5820:	41005000 	.word	0x41005000
    5824:	000064c5 	.word	0x000064c5
    5828:	00005ed9 	.word	0x00005ed9
    582c:	40000800 	.word	0x40000800
    5830:	00004b69 	.word	0x00004b69
    5834:	00005719 	.word	0x00005719

00005838 <WDT_Handler>:
    5838:	b510      	push	{r4, lr}
    583a:	2201      	movs	r2, #1
    583c:	4b03      	ldr	r3, [pc, #12]	; (584c <WDT_Handler+0x14>)
    583e:	719a      	strb	r2, [r3, #6]
    5840:	4b03      	ldr	r3, [pc, #12]	; (5850 <WDT_Handler+0x18>)
    5842:	681b      	ldr	r3, [r3, #0]
    5844:	2b00      	cmp	r3, #0
    5846:	d000      	beq.n	584a <WDT_Handler+0x12>
    5848:	4798      	blx	r3
    584a:	bd10      	pop	{r4, pc}
    584c:	40001000 	.word	0x40001000
    5850:	200028b0 	.word	0x200028b0

00005854 <usb_device_register_callback>:
    5854:	b510      	push	{r4, lr}
    5856:	000b      	movs	r3, r1
    5858:	332e      	adds	r3, #46	; 0x2e
    585a:	009b      	lsls	r3, r3, #2
    585c:	501a      	str	r2, [r3, r0]
    585e:	22aa      	movs	r2, #170	; 0xaa
    5860:	0052      	lsls	r2, r2, #1
    5862:	0049      	lsls	r1, r1, #1
    5864:	5a83      	ldrh	r3, [r0, r2]
    5866:	4c03      	ldr	r4, [pc, #12]	; (5874 <usb_device_register_callback+0x20>)
    5868:	5b09      	ldrh	r1, [r1, r4]
    586a:	430b      	orrs	r3, r1
    586c:	5283      	strh	r3, [r0, r2]
    586e:	2000      	movs	r0, #0
    5870:	bd10      	pop	{r4, pc}
    5872:	46c0      	nop			; (mov r8, r8)
    5874:	0000c4c0 	.word	0x0000c4c0

00005878 <usb_device_enable_callback>:
    5878:	0049      	lsls	r1, r1, #1
    587a:	4b06      	ldr	r3, [pc, #24]	; (5894 <usb_device_enable_callback+0x1c>)
    587c:	5acb      	ldrh	r3, [r1, r3]
    587e:	6802      	ldr	r2, [r0, #0]
    5880:	8393      	strh	r3, [r2, #28]
    5882:	21ab      	movs	r1, #171	; 0xab
    5884:	0049      	lsls	r1, r1, #1
    5886:	5a42      	ldrh	r2, [r0, r1]
    5888:	431a      	orrs	r2, r3
    588a:	5242      	strh	r2, [r0, r1]
    588c:	6802      	ldr	r2, [r0, #0]
    588e:	8313      	strh	r3, [r2, #24]
    5890:	2000      	movs	r0, #0
    5892:	4770      	bx	lr
    5894:	0000c4c0 	.word	0x0000c4c0

00005898 <usb_device_disable_callback>:
    5898:	0049      	lsls	r1, r1, #1
    589a:	4b05      	ldr	r3, [pc, #20]	; (58b0 <usb_device_disable_callback+0x18>)
    589c:	5aca      	ldrh	r2, [r1, r3]
    589e:	21ab      	movs	r1, #171	; 0xab
    58a0:	0049      	lsls	r1, r1, #1
    58a2:	5a43      	ldrh	r3, [r0, r1]
    58a4:	4393      	bics	r3, r2
    58a6:	5243      	strh	r3, [r0, r1]
    58a8:	6803      	ldr	r3, [r0, #0]
    58aa:	829a      	strh	r2, [r3, #20]
    58ac:	2000      	movs	r0, #0
    58ae:	4770      	bx	lr
    58b0:	0000c4c0 	.word	0x0000c4c0

000058b4 <usb_device_endpoint_register_callback>:
    58b4:	b510      	push	{r4, lr}
    58b6:	008c      	lsls	r4, r1, #2
    58b8:	18a4      	adds	r4, r4, r2
    58ba:	3434      	adds	r4, #52	; 0x34
    58bc:	00a4      	lsls	r4, r4, #2
    58be:	1904      	adds	r4, r0, r4
    58c0:	6063      	str	r3, [r4, #4]
    58c2:	1840      	adds	r0, r0, r1
    58c4:	3059      	adds	r0, #89	; 0x59
    58c6:	30ff      	adds	r0, #255	; 0xff
    58c8:	7803      	ldrb	r3, [r0, #0]
    58ca:	4903      	ldr	r1, [pc, #12]	; (58d8 <usb_device_endpoint_register_callback+0x24>)
    58cc:	5c8a      	ldrb	r2, [r1, r2]
    58ce:	4313      	orrs	r3, r2
    58d0:	7003      	strb	r3, [r0, #0]
    58d2:	2000      	movs	r0, #0
    58d4:	bd10      	pop	{r4, pc}
    58d6:	46c0      	nop			; (mov r8, r8)
    58d8:	0000c4d0 	.word	0x0000c4d0

000058dc <usb_device_endpoint_unregister_callback>:
    58dc:	b510      	push	{r4, lr}
    58de:	008b      	lsls	r3, r1, #2
    58e0:	189b      	adds	r3, r3, r2
    58e2:	3334      	adds	r3, #52	; 0x34
    58e4:	009b      	lsls	r3, r3, #2
    58e6:	18c3      	adds	r3, r0, r3
    58e8:	2400      	movs	r4, #0
    58ea:	605c      	str	r4, [r3, #4]
    58ec:	1840      	adds	r0, r0, r1
    58ee:	3059      	adds	r0, #89	; 0x59
    58f0:	30ff      	adds	r0, #255	; 0xff
    58f2:	4b03      	ldr	r3, [pc, #12]	; (5900 <usb_device_endpoint_unregister_callback+0x24>)
    58f4:	5c9a      	ldrb	r2, [r3, r2]
    58f6:	7803      	ldrb	r3, [r0, #0]
    58f8:	4393      	bics	r3, r2
    58fa:	7003      	strb	r3, [r0, #0]
    58fc:	2000      	movs	r0, #0
    58fe:	bd10      	pop	{r4, pc}
    5900:	0000c4d0 	.word	0x0000c4d0

00005904 <usb_device_endpoint_enable_callback>:
    5904:	b570      	push	{r4, r5, r6, lr}
    5906:	230f      	movs	r3, #15
    5908:	400b      	ands	r3, r1
    590a:	18c4      	adds	r4, r0, r3
    590c:	3461      	adds	r4, #97	; 0x61
    590e:	34ff      	adds	r4, #255	; 0xff
    5910:	7825      	ldrb	r5, [r4, #0]
    5912:	4e2f      	ldr	r6, [pc, #188]	; (59d0 <usb_device_endpoint_enable_callback+0xcc>)
    5914:	5cb6      	ldrb	r6, [r6, r2]
    5916:	4335      	orrs	r5, r6
    5918:	7025      	strb	r5, [r4, #0]
    591a:	2a00      	cmp	r2, #0
    591c:	d129      	bne.n	5972 <usb_device_endpoint_enable_callback+0x6e>
    591e:	2b00      	cmp	r3, #0
    5920:	d112      	bne.n	5948 <usb_device_endpoint_enable_callback+0x44>
    5922:	2503      	movs	r5, #3
    5924:	240a      	movs	r4, #10
    5926:	34ff      	adds	r4, #255	; 0xff
    5928:	6806      	ldr	r6, [r0, #0]
    592a:	5535      	strb	r5, [r6, r4]
    592c:	2a03      	cmp	r2, #3
    592e:	d109      	bne.n	5944 <usb_device_endpoint_enable_callback+0x40>
    5930:	b249      	sxtb	r1, r1
    5932:	2900      	cmp	r1, #0
    5934:	db44      	blt.n	59c0 <usb_device_endpoint_enable_callback+0xbc>
    5936:	6802      	ldr	r2, [r0, #0]
    5938:	015b      	lsls	r3, r3, #5
    593a:	18d3      	adds	r3, r2, r3
    593c:	330a      	adds	r3, #10
    593e:	33ff      	adds	r3, #255	; 0xff
    5940:	2220      	movs	r2, #32
    5942:	701a      	strb	r2, [r3, #0]
    5944:	2000      	movs	r0, #0
    5946:	bd70      	pop	{r4, r5, r6, pc}
    5948:	b24c      	sxtb	r4, r1
    594a:	2c00      	cmp	r4, #0
    594c:	db08      	blt.n	5960 <usb_device_endpoint_enable_callback+0x5c>
    594e:	015c      	lsls	r4, r3, #5
    5950:	6805      	ldr	r5, [r0, #0]
    5952:	46ac      	mov	ip, r5
    5954:	4464      	add	r4, ip
    5956:	340a      	adds	r4, #10
    5958:	34ff      	adds	r4, #255	; 0xff
    595a:	2501      	movs	r5, #1
    595c:	7025      	strb	r5, [r4, #0]
    595e:	e7e5      	b.n	592c <usb_device_endpoint_enable_callback+0x28>
    5960:	015c      	lsls	r4, r3, #5
    5962:	6805      	ldr	r5, [r0, #0]
    5964:	46ac      	mov	ip, r5
    5966:	4464      	add	r4, ip
    5968:	340a      	adds	r4, #10
    596a:	34ff      	adds	r4, #255	; 0xff
    596c:	2502      	movs	r5, #2
    596e:	7025      	strb	r5, [r4, #0]
    5970:	e7dc      	b.n	592c <usb_device_endpoint_enable_callback+0x28>
    5972:	2a01      	cmp	r2, #1
    5974:	d11a      	bne.n	59ac <usb_device_endpoint_enable_callback+0xa8>
    5976:	2b00      	cmp	r3, #0
    5978:	d105      	bne.n	5986 <usb_device_endpoint_enable_callback+0x82>
    597a:	6802      	ldr	r2, [r0, #0]
    597c:	210c      	movs	r1, #12
    597e:	230a      	movs	r3, #10
    5980:	33ff      	adds	r3, #255	; 0xff
    5982:	54d1      	strb	r1, [r2, r3]
    5984:	e7de      	b.n	5944 <usb_device_endpoint_enable_callback+0x40>
    5986:	b249      	sxtb	r1, r1
    5988:	2900      	cmp	r1, #0
    598a:	db07      	blt.n	599c <usb_device_endpoint_enable_callback+0x98>
    598c:	6802      	ldr	r2, [r0, #0]
    598e:	015b      	lsls	r3, r3, #5
    5990:	18d3      	adds	r3, r2, r3
    5992:	330a      	adds	r3, #10
    5994:	33ff      	adds	r3, #255	; 0xff
    5996:	2204      	movs	r2, #4
    5998:	701a      	strb	r2, [r3, #0]
    599a:	e7d3      	b.n	5944 <usb_device_endpoint_enable_callback+0x40>
    599c:	6802      	ldr	r2, [r0, #0]
    599e:	015b      	lsls	r3, r3, #5
    59a0:	18d3      	adds	r3, r2, r3
    59a2:	330a      	adds	r3, #10
    59a4:	33ff      	adds	r3, #255	; 0xff
    59a6:	2208      	movs	r2, #8
    59a8:	701a      	strb	r2, [r3, #0]
    59aa:	e7cb      	b.n	5944 <usb_device_endpoint_enable_callback+0x40>
    59ac:	2a02      	cmp	r2, #2
    59ae:	d1bd      	bne.n	592c <usb_device_endpoint_enable_callback+0x28>
    59b0:	6802      	ldr	r2, [r0, #0]
    59b2:	015b      	lsls	r3, r3, #5
    59b4:	18d3      	adds	r3, r2, r3
    59b6:	330a      	adds	r3, #10
    59b8:	33ff      	adds	r3, #255	; 0xff
    59ba:	2210      	movs	r2, #16
    59bc:	701a      	strb	r2, [r3, #0]
    59be:	e7c1      	b.n	5944 <usb_device_endpoint_enable_callback+0x40>
    59c0:	6802      	ldr	r2, [r0, #0]
    59c2:	015b      	lsls	r3, r3, #5
    59c4:	18d3      	adds	r3, r2, r3
    59c6:	330a      	adds	r3, #10
    59c8:	33ff      	adds	r3, #255	; 0xff
    59ca:	2240      	movs	r2, #64	; 0x40
    59cc:	701a      	strb	r2, [r3, #0]
    59ce:	e7b9      	b.n	5944 <usb_device_endpoint_enable_callback+0x40>
    59d0:	0000c4d0 	.word	0x0000c4d0

000059d4 <usb_device_endpoint_disable_callback>:
    59d4:	b570      	push	{r4, r5, r6, lr}
    59d6:	230f      	movs	r3, #15
    59d8:	400b      	ands	r3, r1
    59da:	18c4      	adds	r4, r0, r3
    59dc:	3461      	adds	r4, #97	; 0x61
    59de:	34ff      	adds	r4, #255	; 0xff
    59e0:	4d2f      	ldr	r5, [pc, #188]	; (5aa0 <usb_device_endpoint_disable_callback+0xcc>)
    59e2:	5cae      	ldrb	r6, [r5, r2]
    59e4:	7825      	ldrb	r5, [r4, #0]
    59e6:	43b5      	bics	r5, r6
    59e8:	7025      	strb	r5, [r4, #0]
    59ea:	2a00      	cmp	r2, #0
    59ec:	d129      	bne.n	5a42 <usb_device_endpoint_disable_callback+0x6e>
    59ee:	2b00      	cmp	r3, #0
    59f0:	d112      	bne.n	5a18 <usb_device_endpoint_disable_callback+0x44>
    59f2:	2503      	movs	r5, #3
    59f4:	2484      	movs	r4, #132	; 0x84
    59f6:	0064      	lsls	r4, r4, #1
    59f8:	6806      	ldr	r6, [r0, #0]
    59fa:	5535      	strb	r5, [r6, r4]
    59fc:	2a03      	cmp	r2, #3
    59fe:	d109      	bne.n	5a14 <usb_device_endpoint_disable_callback+0x40>
    5a00:	b249      	sxtb	r1, r1
    5a02:	2900      	cmp	r1, #0
    5a04:	db44      	blt.n	5a90 <usb_device_endpoint_disable_callback+0xbc>
    5a06:	6802      	ldr	r2, [r0, #0]
    5a08:	015b      	lsls	r3, r3, #5
    5a0a:	18d3      	adds	r3, r2, r3
    5a0c:	3309      	adds	r3, #9
    5a0e:	33ff      	adds	r3, #255	; 0xff
    5a10:	2220      	movs	r2, #32
    5a12:	701a      	strb	r2, [r3, #0]
    5a14:	2000      	movs	r0, #0
    5a16:	bd70      	pop	{r4, r5, r6, pc}
    5a18:	b24c      	sxtb	r4, r1
    5a1a:	2c00      	cmp	r4, #0
    5a1c:	db08      	blt.n	5a30 <usb_device_endpoint_disable_callback+0x5c>
    5a1e:	015c      	lsls	r4, r3, #5
    5a20:	6805      	ldr	r5, [r0, #0]
    5a22:	46ac      	mov	ip, r5
    5a24:	4464      	add	r4, ip
    5a26:	3409      	adds	r4, #9
    5a28:	34ff      	adds	r4, #255	; 0xff
    5a2a:	2501      	movs	r5, #1
    5a2c:	7025      	strb	r5, [r4, #0]
    5a2e:	e7e5      	b.n	59fc <usb_device_endpoint_disable_callback+0x28>
    5a30:	015c      	lsls	r4, r3, #5
    5a32:	6805      	ldr	r5, [r0, #0]
    5a34:	46ac      	mov	ip, r5
    5a36:	4464      	add	r4, ip
    5a38:	3409      	adds	r4, #9
    5a3a:	34ff      	adds	r4, #255	; 0xff
    5a3c:	2502      	movs	r5, #2
    5a3e:	7025      	strb	r5, [r4, #0]
    5a40:	e7dc      	b.n	59fc <usb_device_endpoint_disable_callback+0x28>
    5a42:	2a01      	cmp	r2, #1
    5a44:	d11a      	bne.n	5a7c <usb_device_endpoint_disable_callback+0xa8>
    5a46:	2b00      	cmp	r3, #0
    5a48:	d105      	bne.n	5a56 <usb_device_endpoint_disable_callback+0x82>
    5a4a:	6802      	ldr	r2, [r0, #0]
    5a4c:	210c      	movs	r1, #12
    5a4e:	3309      	adds	r3, #9
    5a50:	33ff      	adds	r3, #255	; 0xff
    5a52:	54d1      	strb	r1, [r2, r3]
    5a54:	e7de      	b.n	5a14 <usb_device_endpoint_disable_callback+0x40>
    5a56:	b249      	sxtb	r1, r1
    5a58:	2900      	cmp	r1, #0
    5a5a:	db07      	blt.n	5a6c <usb_device_endpoint_disable_callback+0x98>
    5a5c:	6802      	ldr	r2, [r0, #0]
    5a5e:	015b      	lsls	r3, r3, #5
    5a60:	18d3      	adds	r3, r2, r3
    5a62:	3309      	adds	r3, #9
    5a64:	33ff      	adds	r3, #255	; 0xff
    5a66:	2204      	movs	r2, #4
    5a68:	701a      	strb	r2, [r3, #0]
    5a6a:	e7d3      	b.n	5a14 <usb_device_endpoint_disable_callback+0x40>
    5a6c:	6802      	ldr	r2, [r0, #0]
    5a6e:	015b      	lsls	r3, r3, #5
    5a70:	18d3      	adds	r3, r2, r3
    5a72:	3309      	adds	r3, #9
    5a74:	33ff      	adds	r3, #255	; 0xff
    5a76:	2208      	movs	r2, #8
    5a78:	701a      	strb	r2, [r3, #0]
    5a7a:	e7cb      	b.n	5a14 <usb_device_endpoint_disable_callback+0x40>
    5a7c:	2a02      	cmp	r2, #2
    5a7e:	d1bd      	bne.n	59fc <usb_device_endpoint_disable_callback+0x28>
    5a80:	6802      	ldr	r2, [r0, #0]
    5a82:	015b      	lsls	r3, r3, #5
    5a84:	18d3      	adds	r3, r2, r3
    5a86:	3309      	adds	r3, #9
    5a88:	33ff      	adds	r3, #255	; 0xff
    5a8a:	2210      	movs	r2, #16
    5a8c:	701a      	strb	r2, [r3, #0]
    5a8e:	e7c1      	b.n	5a14 <usb_device_endpoint_disable_callback+0x40>
    5a90:	6802      	ldr	r2, [r0, #0]
    5a92:	015b      	lsls	r3, r3, #5
    5a94:	18d3      	adds	r3, r2, r3
    5a96:	3309      	adds	r3, #9
    5a98:	33ff      	adds	r3, #255	; 0xff
    5a9a:	2240      	movs	r2, #64	; 0x40
    5a9c:	701a      	strb	r2, [r3, #0]
    5a9e:	e7b9      	b.n	5a14 <usb_device_endpoint_disable_callback+0x40>
    5aa0:	0000c4d0 	.word	0x0000c4d0

00005aa4 <usb_device_endpoint_get_config_defaults>:
    5aa4:	2300      	movs	r3, #0
    5aa6:	7003      	strb	r3, [r0, #0]
    5aa8:	7043      	strb	r3, [r0, #1]
    5aaa:	7083      	strb	r3, [r0, #2]
    5aac:	3301      	adds	r3, #1
    5aae:	70c3      	strb	r3, [r0, #3]
    5ab0:	4770      	bx	lr
	...

00005ab4 <usb_device_endpoint_set_config>:
    5ab4:	b5f0      	push	{r4, r5, r6, r7, lr}
    5ab6:	780c      	ldrb	r4, [r1, #0]
    5ab8:	230f      	movs	r3, #15
    5aba:	4023      	ands	r3, r4
    5abc:	b264      	sxtb	r4, r4
    5abe:	78ca      	ldrb	r2, [r1, #3]
    5ac0:	2a04      	cmp	r2, #4
    5ac2:	d870      	bhi.n	5ba6 <usb_device_endpoint_set_config+0xf2>
    5ac4:	0092      	lsls	r2, r2, #2
    5ac6:	4d89      	ldr	r5, [pc, #548]	; (5cec <usb_device_endpoint_set_config+0x238>)
    5ac8:	58aa      	ldr	r2, [r5, r2]
    5aca:	4697      	mov	pc, r2
    5acc:	6802      	ldr	r2, [r0, #0]
    5ace:	3308      	adds	r3, #8
    5ad0:	015b      	lsls	r3, r3, #5
    5ad2:	2100      	movs	r1, #0
    5ad4:	5499      	strb	r1, [r3, r2]
    5ad6:	2200      	movs	r2, #0
    5ad8:	e082      	b.n	5be0 <usb_device_endpoint_set_config+0x12c>
    5ada:	015c      	lsls	r4, r3, #5
    5adc:	6802      	ldr	r2, [r0, #0]
    5ade:	4694      	mov	ip, r2
    5ae0:	4464      	add	r4, ip
    5ae2:	2280      	movs	r2, #128	; 0x80
    5ae4:	0052      	lsls	r2, r2, #1
    5ae6:	5ca5      	ldrb	r5, [r4, r2]
    5ae8:	3ae4      	subs	r2, #228	; 0xe4
    5aea:	076d      	lsls	r5, r5, #29
    5aec:	d178      	bne.n	5be0 <usb_device_endpoint_set_config+0x12c>
    5aee:	32e4      	adds	r2, #228	; 0xe4
    5af0:	5ca6      	ldrb	r6, [r4, r2]
    5af2:	2570      	movs	r5, #112	; 0x70
    5af4:	3ae4      	subs	r2, #228	; 0xe4
    5af6:	422e      	tst	r6, r5
    5af8:	d172      	bne.n	5be0 <usb_device_endpoint_set_config+0x12c>
    5afa:	3d5f      	subs	r5, #95	; 0x5f
    5afc:	32e4      	adds	r2, #228	; 0xe4
    5afe:	54a5      	strb	r5, [r4, r2]
    5b00:	001a      	movs	r2, r3
    5b02:	3208      	adds	r2, #8
    5b04:	0152      	lsls	r2, r2, #5
    5b06:	6804      	ldr	r4, [r0, #0]
    5b08:	18a4      	adds	r4, r4, r2
    5b0a:	352f      	adds	r5, #47	; 0x2f
    5b0c:	7165      	strb	r5, [r4, #5]
    5b0e:	6800      	ldr	r0, [r0, #0]
    5b10:	1882      	adds	r2, r0, r2
    5b12:	2080      	movs	r0, #128	; 0x80
    5b14:	7110      	strb	r0, [r2, #4]
    5b16:	788a      	ldrb	r2, [r1, #2]
    5b18:	2a00      	cmp	r2, #0
    5b1a:	d01f      	beq.n	5b5c <usb_device_endpoint_set_config+0xa8>
    5b1c:	0158      	lsls	r0, r3, #5
    5b1e:	4a74      	ldr	r2, [pc, #464]	; (5cf0 <usb_device_endpoint_set_config+0x23c>)
    5b20:	1812      	adds	r2, r2, r0
    5b22:	6854      	ldr	r4, [r2, #4]
    5b24:	2080      	movs	r0, #128	; 0x80
    5b26:	0600      	lsls	r0, r0, #24
    5b28:	4304      	orrs	r4, r0
    5b2a:	6054      	str	r4, [r2, #4]
    5b2c:	6954      	ldr	r4, [r2, #20]
    5b2e:	4320      	orrs	r0, r4
    5b30:	6150      	str	r0, [r2, #20]
    5b32:	2507      	movs	r5, #7
    5b34:	784c      	ldrb	r4, [r1, #1]
    5b36:	015a      	lsls	r2, r3, #5
    5b38:	4b6d      	ldr	r3, [pc, #436]	; (5cf0 <usb_device_endpoint_set_config+0x23c>)
    5b3a:	189b      	adds	r3, r3, r2
    5b3c:	6858      	ldr	r0, [r3, #4]
    5b3e:	402c      	ands	r4, r5
    5b40:	0724      	lsls	r4, r4, #28
    5b42:	4e6c      	ldr	r6, [pc, #432]	; (5cf4 <usb_device_endpoint_set_config+0x240>)
    5b44:	4030      	ands	r0, r6
    5b46:	4320      	orrs	r0, r4
    5b48:	6058      	str	r0, [r3, #4]
    5b4a:	7849      	ldrb	r1, [r1, #1]
    5b4c:	695a      	ldr	r2, [r3, #20]
    5b4e:	4029      	ands	r1, r5
    5b50:	0709      	lsls	r1, r1, #28
    5b52:	4032      	ands	r2, r6
    5b54:	430a      	orrs	r2, r1
    5b56:	615a      	str	r2, [r3, #20]
    5b58:	2200      	movs	r2, #0
    5b5a:	e041      	b.n	5be0 <usb_device_endpoint_set_config+0x12c>
    5b5c:	0158      	lsls	r0, r3, #5
    5b5e:	4a64      	ldr	r2, [pc, #400]	; (5cf0 <usb_device_endpoint_set_config+0x23c>)
    5b60:	1812      	adds	r2, r2, r0
    5b62:	6850      	ldr	r0, [r2, #4]
    5b64:	0040      	lsls	r0, r0, #1
    5b66:	0840      	lsrs	r0, r0, #1
    5b68:	6050      	str	r0, [r2, #4]
    5b6a:	6950      	ldr	r0, [r2, #20]
    5b6c:	0040      	lsls	r0, r0, #1
    5b6e:	0840      	lsrs	r0, r0, #1
    5b70:	6150      	str	r0, [r2, #20]
    5b72:	e7de      	b.n	5b32 <usb_device_endpoint_set_config+0x7e>
    5b74:	2c00      	cmp	r4, #0
    5b76:	db35      	blt.n	5be4 <usb_device_endpoint_set_config+0x130>
    5b78:	015d      	lsls	r5, r3, #5
    5b7a:	6802      	ldr	r2, [r0, #0]
    5b7c:	4694      	mov	ip, r2
    5b7e:	4465      	add	r5, ip
    5b80:	2280      	movs	r2, #128	; 0x80
    5b82:	0052      	lsls	r2, r2, #1
    5b84:	5cae      	ldrb	r6, [r5, r2]
    5b86:	3ae4      	subs	r2, #228	; 0xe4
    5b88:	0776      	lsls	r6, r6, #29
    5b8a:	d129      	bne.n	5be0 <usb_device_endpoint_set_config+0x12c>
    5b8c:	2680      	movs	r6, #128	; 0x80
    5b8e:	0076      	lsls	r6, r6, #1
    5b90:	5daa      	ldrb	r2, [r5, r6]
    5b92:	2702      	movs	r7, #2
    5b94:	433a      	orrs	r2, r7
    5b96:	55aa      	strb	r2, [r5, r6]
    5b98:	6802      	ldr	r2, [r0, #0]
    5b9a:	0018      	movs	r0, r3
    5b9c:	3008      	adds	r0, #8
    5b9e:	0140      	lsls	r0, r0, #5
    5ba0:	1812      	adds	r2, r2, r0
    5ba2:	2040      	movs	r0, #64	; 0x40
    5ba4:	7150      	strb	r0, [r2, #5]
    5ba6:	0fe2      	lsrs	r2, r4, #31
    5ba8:	784f      	ldrb	r7, [r1, #1]
    5baa:	005d      	lsls	r5, r3, #1
    5bac:	18ad      	adds	r5, r5, r2
    5bae:	012d      	lsls	r5, r5, #4
    5bb0:	4e4f      	ldr	r6, [pc, #316]	; (5cf0 <usb_device_endpoint_set_config+0x23c>)
    5bb2:	1975      	adds	r5, r6, r5
    5bb4:	6868      	ldr	r0, [r5, #4]
    5bb6:	2407      	movs	r4, #7
    5bb8:	403c      	ands	r4, r7
    5bba:	0724      	lsls	r4, r4, #28
    5bbc:	4e4d      	ldr	r6, [pc, #308]	; (5cf4 <usb_device_endpoint_set_config+0x240>)
    5bbe:	4030      	ands	r0, r6
    5bc0:	4320      	orrs	r0, r4
    5bc2:	6068      	str	r0, [r5, #4]
    5bc4:	7889      	ldrb	r1, [r1, #2]
    5bc6:	2900      	cmp	r1, #0
    5bc8:	d000      	beq.n	5bcc <usb_device_endpoint_set_config+0x118>
    5bca:	e088      	b.n	5cde <usb_device_endpoint_set_config+0x22a>
    5bcc:	005b      	lsls	r3, r3, #1
    5bce:	189b      	adds	r3, r3, r2
    5bd0:	011b      	lsls	r3, r3, #4
    5bd2:	4a47      	ldr	r2, [pc, #284]	; (5cf0 <usb_device_endpoint_set_config+0x23c>)
    5bd4:	18d3      	adds	r3, r2, r3
    5bd6:	685a      	ldr	r2, [r3, #4]
    5bd8:	0052      	lsls	r2, r2, #1
    5bda:	0852      	lsrs	r2, r2, #1
    5bdc:	605a      	str	r2, [r3, #4]
    5bde:	2200      	movs	r2, #0
    5be0:	0010      	movs	r0, r2
    5be2:	bdf0      	pop	{r4, r5, r6, r7, pc}
    5be4:	015d      	lsls	r5, r3, #5
    5be6:	6802      	ldr	r2, [r0, #0]
    5be8:	4694      	mov	ip, r2
    5bea:	4465      	add	r5, ip
    5bec:	2280      	movs	r2, #128	; 0x80
    5bee:	0052      	lsls	r2, r2, #1
    5bf0:	5caf      	ldrb	r7, [r5, r2]
    5bf2:	2670      	movs	r6, #112	; 0x70
    5bf4:	3ae4      	subs	r2, #228	; 0xe4
    5bf6:	4237      	tst	r7, r6
    5bf8:	d1f2      	bne.n	5be0 <usb_device_endpoint_set_config+0x12c>
    5bfa:	3690      	adds	r6, #144	; 0x90
    5bfc:	5daa      	ldrb	r2, [r5, r6]
    5bfe:	2720      	movs	r7, #32
    5c00:	433a      	orrs	r2, r7
    5c02:	55aa      	strb	r2, [r5, r6]
    5c04:	6802      	ldr	r2, [r0, #0]
    5c06:	0018      	movs	r0, r3
    5c08:	3008      	adds	r0, #8
    5c0a:	0140      	lsls	r0, r0, #5
    5c0c:	1812      	adds	r2, r2, r0
    5c0e:	2080      	movs	r0, #128	; 0x80
    5c10:	7110      	strb	r0, [r2, #4]
    5c12:	e7c8      	b.n	5ba6 <usb_device_endpoint_set_config+0xf2>
    5c14:	2c00      	cmp	r4, #0
    5c16:	db17      	blt.n	5c48 <usb_device_endpoint_set_config+0x194>
    5c18:	015d      	lsls	r5, r3, #5
    5c1a:	6802      	ldr	r2, [r0, #0]
    5c1c:	4694      	mov	ip, r2
    5c1e:	4465      	add	r5, ip
    5c20:	2280      	movs	r2, #128	; 0x80
    5c22:	0052      	lsls	r2, r2, #1
    5c24:	5cae      	ldrb	r6, [r5, r2]
    5c26:	3ae4      	subs	r2, #228	; 0xe4
    5c28:	0776      	lsls	r6, r6, #29
    5c2a:	d1d9      	bne.n	5be0 <usb_device_endpoint_set_config+0x12c>
    5c2c:	2680      	movs	r6, #128	; 0x80
    5c2e:	0076      	lsls	r6, r6, #1
    5c30:	5daa      	ldrb	r2, [r5, r6]
    5c32:	2703      	movs	r7, #3
    5c34:	433a      	orrs	r2, r7
    5c36:	55aa      	strb	r2, [r5, r6]
    5c38:	6802      	ldr	r2, [r0, #0]
    5c3a:	0018      	movs	r0, r3
    5c3c:	3008      	adds	r0, #8
    5c3e:	0140      	lsls	r0, r0, #5
    5c40:	1812      	adds	r2, r2, r0
    5c42:	2040      	movs	r0, #64	; 0x40
    5c44:	7150      	strb	r0, [r2, #5]
    5c46:	e7ae      	b.n	5ba6 <usb_device_endpoint_set_config+0xf2>
    5c48:	015d      	lsls	r5, r3, #5
    5c4a:	6802      	ldr	r2, [r0, #0]
    5c4c:	4694      	mov	ip, r2
    5c4e:	4465      	add	r5, ip
    5c50:	2280      	movs	r2, #128	; 0x80
    5c52:	0052      	lsls	r2, r2, #1
    5c54:	5caf      	ldrb	r7, [r5, r2]
    5c56:	2670      	movs	r6, #112	; 0x70
    5c58:	3ae4      	subs	r2, #228	; 0xe4
    5c5a:	4237      	tst	r7, r6
    5c5c:	d1c0      	bne.n	5be0 <usb_device_endpoint_set_config+0x12c>
    5c5e:	3690      	adds	r6, #144	; 0x90
    5c60:	5daa      	ldrb	r2, [r5, r6]
    5c62:	2730      	movs	r7, #48	; 0x30
    5c64:	433a      	orrs	r2, r7
    5c66:	55aa      	strb	r2, [r5, r6]
    5c68:	6802      	ldr	r2, [r0, #0]
    5c6a:	0018      	movs	r0, r3
    5c6c:	3008      	adds	r0, #8
    5c6e:	0140      	lsls	r0, r0, #5
    5c70:	1812      	adds	r2, r2, r0
    5c72:	2080      	movs	r0, #128	; 0x80
    5c74:	7110      	strb	r0, [r2, #4]
    5c76:	e796      	b.n	5ba6 <usb_device_endpoint_set_config+0xf2>
    5c78:	2c00      	cmp	r4, #0
    5c7a:	db17      	blt.n	5cac <usb_device_endpoint_set_config+0x1f8>
    5c7c:	015d      	lsls	r5, r3, #5
    5c7e:	6802      	ldr	r2, [r0, #0]
    5c80:	4694      	mov	ip, r2
    5c82:	4465      	add	r5, ip
    5c84:	2280      	movs	r2, #128	; 0x80
    5c86:	0052      	lsls	r2, r2, #1
    5c88:	5cae      	ldrb	r6, [r5, r2]
    5c8a:	3ae4      	subs	r2, #228	; 0xe4
    5c8c:	0776      	lsls	r6, r6, #29
    5c8e:	d1a7      	bne.n	5be0 <usb_device_endpoint_set_config+0x12c>
    5c90:	2680      	movs	r6, #128	; 0x80
    5c92:	0076      	lsls	r6, r6, #1
    5c94:	5daa      	ldrb	r2, [r5, r6]
    5c96:	2704      	movs	r7, #4
    5c98:	433a      	orrs	r2, r7
    5c9a:	55aa      	strb	r2, [r5, r6]
    5c9c:	6802      	ldr	r2, [r0, #0]
    5c9e:	0018      	movs	r0, r3
    5ca0:	3008      	adds	r0, #8
    5ca2:	0140      	lsls	r0, r0, #5
    5ca4:	1812      	adds	r2, r2, r0
    5ca6:	2040      	movs	r0, #64	; 0x40
    5ca8:	7150      	strb	r0, [r2, #5]
    5caa:	e77c      	b.n	5ba6 <usb_device_endpoint_set_config+0xf2>
    5cac:	015d      	lsls	r5, r3, #5
    5cae:	6802      	ldr	r2, [r0, #0]
    5cb0:	4694      	mov	ip, r2
    5cb2:	4465      	add	r5, ip
    5cb4:	2280      	movs	r2, #128	; 0x80
    5cb6:	0052      	lsls	r2, r2, #1
    5cb8:	5caf      	ldrb	r7, [r5, r2]
    5cba:	2670      	movs	r6, #112	; 0x70
    5cbc:	3ae4      	subs	r2, #228	; 0xe4
    5cbe:	4237      	tst	r7, r6
    5cc0:	d000      	beq.n	5cc4 <usb_device_endpoint_set_config+0x210>
    5cc2:	e78d      	b.n	5be0 <usb_device_endpoint_set_config+0x12c>
    5cc4:	3690      	adds	r6, #144	; 0x90
    5cc6:	5daa      	ldrb	r2, [r5, r6]
    5cc8:	2740      	movs	r7, #64	; 0x40
    5cca:	433a      	orrs	r2, r7
    5ccc:	55aa      	strb	r2, [r5, r6]
    5cce:	6802      	ldr	r2, [r0, #0]
    5cd0:	0018      	movs	r0, r3
    5cd2:	3008      	adds	r0, #8
    5cd4:	0140      	lsls	r0, r0, #5
    5cd6:	1812      	adds	r2, r2, r0
    5cd8:	2080      	movs	r0, #128	; 0x80
    5cda:	7110      	strb	r0, [r2, #4]
    5cdc:	e763      	b.n	5ba6 <usb_device_endpoint_set_config+0xf2>
    5cde:	6869      	ldr	r1, [r5, #4]
    5ce0:	2380      	movs	r3, #128	; 0x80
    5ce2:	061b      	lsls	r3, r3, #24
    5ce4:	430b      	orrs	r3, r1
    5ce6:	606b      	str	r3, [r5, #4]
    5ce8:	2200      	movs	r2, #0
    5cea:	e779      	b.n	5be0 <usb_device_endpoint_set_config+0x12c>
    5cec:	0000c4ac 	.word	0x0000c4ac
    5cf0:	200028b4 	.word	0x200028b4
    5cf4:	8fffffff 	.word	0x8fffffff

00005cf8 <usb_device_endpoint_abort_job>:
    5cf8:	230f      	movs	r3, #15
    5cfa:	400b      	ands	r3, r1
    5cfc:	b249      	sxtb	r1, r1
    5cfe:	2900      	cmp	r1, #0
    5d00:	db0a      	blt.n	5d18 <usb_device_endpoint_abort_job+0x20>
    5d02:	3308      	adds	r3, #8
    5d04:	015b      	lsls	r3, r3, #5
    5d06:	6802      	ldr	r2, [r0, #0]
    5d08:	18d2      	adds	r2, r2, r3
    5d0a:	2140      	movs	r1, #64	; 0x40
    5d0c:	7151      	strb	r1, [r2, #5]
    5d0e:	6802      	ldr	r2, [r0, #0]
    5d10:	18d3      	adds	r3, r2, r3
    5d12:	2201      	movs	r2, #1
    5d14:	71da      	strb	r2, [r3, #7]
    5d16:	4770      	bx	lr
    5d18:	3308      	adds	r3, #8
    5d1a:	015b      	lsls	r3, r3, #5
    5d1c:	6802      	ldr	r2, [r0, #0]
    5d1e:	18d2      	adds	r2, r2, r3
    5d20:	2180      	movs	r1, #128	; 0x80
    5d22:	7111      	strb	r1, [r2, #4]
    5d24:	6802      	ldr	r2, [r0, #0]
    5d26:	18d3      	adds	r3, r2, r3
    5d28:	2202      	movs	r2, #2
    5d2a:	71da      	strb	r2, [r3, #7]
    5d2c:	e7f3      	b.n	5d16 <usb_device_endpoint_abort_job+0x1e>

00005d2e <usb_device_endpoint_is_halted>:
    5d2e:	230f      	movs	r3, #15
    5d30:	400b      	ands	r3, r1
    5d32:	b249      	sxtb	r1, r1
    5d34:	2900      	cmp	r1, #0
    5d36:	db07      	blt.n	5d48 <usb_device_endpoint_is_halted+0x1a>
    5d38:	6802      	ldr	r2, [r0, #0]
    5d3a:	3308      	adds	r3, #8
    5d3c:	015b      	lsls	r3, r3, #5
    5d3e:	18d3      	adds	r3, r2, r3
    5d40:	7998      	ldrb	r0, [r3, #6]
    5d42:	06c0      	lsls	r0, r0, #27
    5d44:	0fc0      	lsrs	r0, r0, #31
    5d46:	4770      	bx	lr
    5d48:	6802      	ldr	r2, [r0, #0]
    5d4a:	3308      	adds	r3, #8
    5d4c:	015b      	lsls	r3, r3, #5
    5d4e:	18d3      	adds	r3, r2, r3
    5d50:	7998      	ldrb	r0, [r3, #6]
    5d52:	0680      	lsls	r0, r0, #26
    5d54:	0fc0      	lsrs	r0, r0, #31
    5d56:	e7f6      	b.n	5d46 <usb_device_endpoint_is_halted+0x18>

00005d58 <usb_device_endpoint_set_halt>:
    5d58:	230f      	movs	r3, #15
    5d5a:	400b      	ands	r3, r1
    5d5c:	b249      	sxtb	r1, r1
    5d5e:	2900      	cmp	r1, #0
    5d60:	db06      	blt.n	5d70 <usb_device_endpoint_set_halt+0x18>
    5d62:	6802      	ldr	r2, [r0, #0]
    5d64:	3308      	adds	r3, #8
    5d66:	015b      	lsls	r3, r3, #5
    5d68:	18d3      	adds	r3, r2, r3
    5d6a:	2210      	movs	r2, #16
    5d6c:	715a      	strb	r2, [r3, #5]
    5d6e:	4770      	bx	lr
    5d70:	6802      	ldr	r2, [r0, #0]
    5d72:	3308      	adds	r3, #8
    5d74:	015b      	lsls	r3, r3, #5
    5d76:	18d3      	adds	r3, r2, r3
    5d78:	2220      	movs	r2, #32
    5d7a:	715a      	strb	r2, [r3, #5]
    5d7c:	e7f7      	b.n	5d6e <usb_device_endpoint_set_halt+0x16>

00005d7e <usb_device_endpoint_clear_halt>:
    5d7e:	b530      	push	{r4, r5, lr}
    5d80:	230f      	movs	r3, #15
    5d82:	400b      	ands	r3, r1
    5d84:	b249      	sxtb	r1, r1
    5d86:	2900      	cmp	r1, #0
    5d88:	db1d      	blt.n	5dc6 <usb_device_endpoint_clear_halt+0x48>
    5d8a:	0159      	lsls	r1, r3, #5
    5d8c:	6802      	ldr	r2, [r0, #0]
    5d8e:	1852      	adds	r2, r2, r1
    5d90:	2483      	movs	r4, #131	; 0x83
    5d92:	0064      	lsls	r4, r4, #1
    5d94:	5d14      	ldrb	r4, [r2, r4]
    5d96:	06e4      	lsls	r4, r4, #27
    5d98:	d514      	bpl.n	5dc4 <usb_device_endpoint_clear_halt+0x46>
    5d9a:	2510      	movs	r5, #16
    5d9c:	2482      	movs	r4, #130	; 0x82
    5d9e:	0064      	lsls	r4, r4, #1
    5da0:	5515      	strb	r5, [r2, r4]
    5da2:	6802      	ldr	r2, [r0, #0]
    5da4:	1852      	adds	r2, r2, r1
    5da6:	2108      	movs	r1, #8
    5da8:	31ff      	adds	r1, #255	; 0xff
    5daa:	5c51      	ldrb	r1, [r2, r1]
    5dac:	0689      	lsls	r1, r1, #26
    5dae:	d509      	bpl.n	5dc4 <usb_device_endpoint_clear_halt+0x46>
    5db0:	3ce4      	subs	r4, #228	; 0xe4
    5db2:	2108      	movs	r1, #8
    5db4:	31ff      	adds	r1, #255	; 0xff
    5db6:	5454      	strb	r4, [r2, r1]
    5db8:	6802      	ldr	r2, [r0, #0]
    5dba:	3308      	adds	r3, #8
    5dbc:	015b      	lsls	r3, r3, #5
    5dbe:	18d3      	adds	r3, r2, r3
    5dc0:	2201      	movs	r2, #1
    5dc2:	711a      	strb	r2, [r3, #4]
    5dc4:	bd30      	pop	{r4, r5, pc}
    5dc6:	0159      	lsls	r1, r3, #5
    5dc8:	6802      	ldr	r2, [r0, #0]
    5dca:	1852      	adds	r2, r2, r1
    5dcc:	2483      	movs	r4, #131	; 0x83
    5dce:	0064      	lsls	r4, r4, #1
    5dd0:	5d14      	ldrb	r4, [r2, r4]
    5dd2:	06a4      	lsls	r4, r4, #26
    5dd4:	d5f6      	bpl.n	5dc4 <usb_device_endpoint_clear_halt+0x46>
    5dd6:	2520      	movs	r5, #32
    5dd8:	2482      	movs	r4, #130	; 0x82
    5dda:	0064      	lsls	r4, r4, #1
    5ddc:	5515      	strb	r5, [r2, r4]
    5dde:	6802      	ldr	r2, [r0, #0]
    5de0:	1852      	adds	r2, r2, r1
    5de2:	2108      	movs	r1, #8
    5de4:	31ff      	adds	r1, #255	; 0xff
    5de6:	5c51      	ldrb	r1, [r2, r1]
    5de8:	0649      	lsls	r1, r1, #25
    5dea:	d5eb      	bpl.n	5dc4 <usb_device_endpoint_clear_halt+0x46>
    5dec:	3cc4      	subs	r4, #196	; 0xc4
    5dee:	2108      	movs	r1, #8
    5df0:	31ff      	adds	r1, #255	; 0xff
    5df2:	5454      	strb	r4, [r2, r1]
    5df4:	6802      	ldr	r2, [r0, #0]
    5df6:	3308      	adds	r3, #8
    5df8:	015b      	lsls	r3, r3, #5
    5dfa:	18d3      	adds	r3, r2, r3
    5dfc:	2202      	movs	r2, #2
    5dfe:	711a      	strb	r2, [r3, #4]
    5e00:	e7e0      	b.n	5dc4 <usb_device_endpoint_clear_halt+0x46>
	...

00005e04 <usb_device_endpoint_write_buffer_job>:
    5e04:	b530      	push	{r4, r5, lr}
    5e06:	000c      	movs	r4, r1
    5e08:	3408      	adds	r4, #8
    5e0a:	0164      	lsls	r4, r4, #5
    5e0c:	6805      	ldr	r5, [r0, #0]
    5e0e:	5d64      	ldrb	r4, [r4, r5]
    5e10:	0664      	lsls	r4, r4, #25
    5e12:	0f64      	lsrs	r4, r4, #29
    5e14:	251c      	movs	r5, #28
    5e16:	2c00      	cmp	r4, #0
    5e18:	d101      	bne.n	5e1e <usb_device_endpoint_write_buffer_job+0x1a>
    5e1a:	0028      	movs	r0, r5
    5e1c:	bd30      	pop	{r4, r5, pc}
    5e1e:	014c      	lsls	r4, r1, #5
    5e20:	4d0b      	ldr	r5, [pc, #44]	; (5e50 <usb_device_endpoint_write_buffer_job+0x4c>)
    5e22:	192d      	adds	r5, r5, r4
    5e24:	002c      	movs	r4, r5
    5e26:	612a      	str	r2, [r5, #16]
    5e28:	696a      	ldr	r2, [r5, #20]
    5e2a:	4d0a      	ldr	r5, [pc, #40]	; (5e54 <usb_device_endpoint_write_buffer_job+0x50>)
    5e2c:	402a      	ands	r2, r5
    5e2e:	6162      	str	r2, [r4, #20]
    5e30:	6962      	ldr	r2, [r4, #20]
    5e32:	049b      	lsls	r3, r3, #18
    5e34:	0c9b      	lsrs	r3, r3, #18
    5e36:	0b92      	lsrs	r2, r2, #14
    5e38:	0392      	lsls	r2, r2, #14
    5e3a:	4313      	orrs	r3, r2
    5e3c:	6163      	str	r3, [r4, #20]
    5e3e:	6803      	ldr	r3, [r0, #0]
    5e40:	3108      	adds	r1, #8
    5e42:	0149      	lsls	r1, r1, #5
    5e44:	1859      	adds	r1, r3, r1
    5e46:	2380      	movs	r3, #128	; 0x80
    5e48:	714b      	strb	r3, [r1, #5]
    5e4a:	2500      	movs	r5, #0
    5e4c:	e7e5      	b.n	5e1a <usb_device_endpoint_write_buffer_job+0x16>
    5e4e:	46c0      	nop			; (mov r8, r8)
    5e50:	200028b4 	.word	0x200028b4
    5e54:	f0003fff 	.word	0xf0003fff

00005e58 <usb_device_endpoint_read_buffer_job>:
    5e58:	b530      	push	{r4, r5, lr}
    5e5a:	000c      	movs	r4, r1
    5e5c:	3408      	adds	r4, #8
    5e5e:	0164      	lsls	r4, r4, #5
    5e60:	6805      	ldr	r5, [r0, #0]
    5e62:	5d64      	ldrb	r4, [r4, r5]
    5e64:	0764      	lsls	r4, r4, #29
    5e66:	251c      	movs	r5, #28
    5e68:	2c00      	cmp	r4, #0
    5e6a:	d101      	bne.n	5e70 <usb_device_endpoint_read_buffer_job+0x18>
    5e6c:	0028      	movs	r0, r5
    5e6e:	bd30      	pop	{r4, r5, pc}
    5e70:	4c0b      	ldr	r4, [pc, #44]	; (5ea0 <usb_device_endpoint_read_buffer_job+0x48>)
    5e72:	014d      	lsls	r5, r1, #5
    5e74:	512a      	str	r2, [r5, r4]
    5e76:	1962      	adds	r2, r4, r5
    5e78:	6854      	ldr	r4, [r2, #4]
    5e7a:	049b      	lsls	r3, r3, #18
    5e7c:	091b      	lsrs	r3, r3, #4
    5e7e:	4d09      	ldr	r5, [pc, #36]	; (5ea4 <usb_device_endpoint_read_buffer_job+0x4c>)
    5e80:	402c      	ands	r4, r5
    5e82:	4323      	orrs	r3, r4
    5e84:	6053      	str	r3, [r2, #4]
    5e86:	6853      	ldr	r3, [r2, #4]
    5e88:	0b9b      	lsrs	r3, r3, #14
    5e8a:	039b      	lsls	r3, r3, #14
    5e8c:	6053      	str	r3, [r2, #4]
    5e8e:	6803      	ldr	r3, [r0, #0]
    5e90:	3108      	adds	r1, #8
    5e92:	0149      	lsls	r1, r1, #5
    5e94:	1859      	adds	r1, r3, r1
    5e96:	2340      	movs	r3, #64	; 0x40
    5e98:	710b      	strb	r3, [r1, #4]
    5e9a:	2500      	movs	r5, #0
    5e9c:	e7e6      	b.n	5e6c <usb_device_endpoint_read_buffer_job+0x14>
    5e9e:	46c0      	nop			; (mov r8, r8)
    5ea0:	200028b4 	.word	0x200028b4
    5ea4:	f0003fff 	.word	0xf0003fff

00005ea8 <usb_device_endpoint_setup_buffer_job>:
    5ea8:	4b09      	ldr	r3, [pc, #36]	; (5ed0 <usb_device_endpoint_setup_buffer_job+0x28>)
    5eaa:	6019      	str	r1, [r3, #0]
    5eac:	685a      	ldr	r2, [r3, #4]
    5eae:	4909      	ldr	r1, [pc, #36]	; (5ed4 <usb_device_endpoint_setup_buffer_job+0x2c>)
    5eb0:	4011      	ands	r1, r2
    5eb2:	2280      	movs	r2, #128	; 0x80
    5eb4:	0292      	lsls	r2, r2, #10
    5eb6:	430a      	orrs	r2, r1
    5eb8:	605a      	str	r2, [r3, #4]
    5eba:	685a      	ldr	r2, [r3, #4]
    5ebc:	0b92      	lsrs	r2, r2, #14
    5ebe:	0392      	lsls	r2, r2, #14
    5ec0:	605a      	str	r2, [r3, #4]
    5ec2:	6802      	ldr	r2, [r0, #0]
    5ec4:	2140      	movs	r1, #64	; 0x40
    5ec6:	2382      	movs	r3, #130	; 0x82
    5ec8:	005b      	lsls	r3, r3, #1
    5eca:	54d1      	strb	r1, [r2, r3]
    5ecc:	2000      	movs	r0, #0
    5ece:	4770      	bx	lr
    5ed0:	200028b4 	.word	0x200028b4
    5ed4:	f0003fff 	.word	0xf0003fff

00005ed8 <usb_enable>:
    5ed8:	6802      	ldr	r2, [r0, #0]
    5eda:	7813      	ldrb	r3, [r2, #0]
    5edc:	2102      	movs	r1, #2
    5ede:	430b      	orrs	r3, r1
    5ee0:	7013      	strb	r3, [r2, #0]
    5ee2:	6802      	ldr	r2, [r0, #0]
    5ee4:	7893      	ldrb	r3, [r2, #2]
    5ee6:	2b02      	cmp	r3, #2
    5ee8:	d0fc      	beq.n	5ee4 <usb_enable+0xc>
    5eea:	4770      	bx	lr

00005eec <USB_Handler>:
    5eec:	b5f0      	push	{r4, r5, r6, r7, lr}
    5eee:	46de      	mov	lr, fp
    5ef0:	4657      	mov	r7, sl
    5ef2:	464e      	mov	r6, r9
    5ef4:	4645      	mov	r5, r8
    5ef6:	b5e0      	push	{r5, r6, r7, lr}
    5ef8:	b083      	sub	sp, #12
    5efa:	4bc2      	ldr	r3, [pc, #776]	; (6204 <USB_Handler+0x318>)
    5efc:	681f      	ldr	r7, [r3, #0]
    5efe:	683d      	ldr	r5, [r7, #0]
    5f00:	782b      	ldrb	r3, [r5, #0]
    5f02:	09db      	lsrs	r3, r3, #7
    5f04:	d114      	bne.n	5f30 <USB_Handler+0x44>
    5f06:	8c2e      	ldrh	r6, [r5, #32]
    5f08:	b2b6      	uxth	r6, r6
    5f0a:	2e00      	cmp	r6, #0
    5f0c:	d000      	beq.n	5f10 <USB_Handler+0x24>
    5f0e:	e1a9      	b.n	6264 <USB_Handler+0x378>
    5f10:	8bae      	ldrh	r6, [r5, #28]
    5f12:	b2b6      	uxth	r6, r6
    5f14:	23ab      	movs	r3, #171	; 0xab
    5f16:	005b      	lsls	r3, r3, #1
    5f18:	5afb      	ldrh	r3, [r7, r3]
    5f1a:	22aa      	movs	r2, #170	; 0xaa
    5f1c:	0052      	lsls	r2, r2, #1
    5f1e:	5abd      	ldrh	r5, [r7, r2]
    5f20:	401d      	ands	r5, r3
    5f22:	4035      	ands	r5, r6
    5f24:	2400      	movs	r4, #0
    5f26:	4fb8      	ldr	r7, [pc, #736]	; (6208 <USB_Handler+0x31c>)
    5f28:	4bb6      	ldr	r3, [pc, #728]	; (6204 <USB_Handler+0x318>)
    5f2a:	4699      	mov	r9, r3
    5f2c:	4698      	mov	r8, r3
    5f2e:	e184      	b.n	623a <USB_Handler+0x34e>
    5f30:	8c2b      	ldrh	r3, [r5, #32]
    5f32:	b29b      	uxth	r3, r3
    5f34:	2b00      	cmp	r3, #0
    5f36:	d100      	bne.n	5f3a <USB_Handler+0x4e>
    5f38:	e0de      	b.n	60f8 <USB_Handler+0x20c>
    5f3a:	8c28      	ldrh	r0, [r5, #32]
    5f3c:	b280      	uxth	r0, r0
    5f3e:	4bb3      	ldr	r3, [pc, #716]	; (620c <USB_Handler+0x320>)
    5f40:	4798      	blx	r3
    5f42:	0004      	movs	r4, r0
    5f44:	281f      	cmp	r0, #31
    5f46:	d900      	bls.n	5f4a <USB_Handler+0x5e>
    5f48:	e0d6      	b.n	60f8 <USB_Handler+0x20c>
    5f4a:	0003      	movs	r3, r0
    5f4c:	3308      	adds	r3, #8
    5f4e:	015b      	lsls	r3, r3, #5
    5f50:	18ed      	adds	r5, r5, r3
    5f52:	79ed      	ldrb	r5, [r5, #7]
    5f54:	b2ed      	uxtb	r5, r5
    5f56:	07ab      	lsls	r3, r5, #30
    5f58:	d041      	beq.n	5fde <USB_Handler+0xf2>
    5f5a:	4aad      	ldr	r2, [pc, #692]	; (6210 <USB_Handler+0x324>)
    5f5c:	2301      	movs	r3, #1
    5f5e:	4083      	lsls	r3, r0
    5f60:	6811      	ldr	r1, [r2, #0]
    5f62:	4399      	bics	r1, r3
    5f64:	6011      	str	r1, [r2, #0]
    5f66:	0003      	movs	r3, r0
    5f68:	3308      	adds	r3, #8
    5f6a:	015b      	lsls	r3, r3, #5
    5f6c:	683a      	ldr	r2, [r7, #0]
    5f6e:	4694      	mov	ip, r2
    5f70:	4463      	add	r3, ip
    5f72:	2203      	movs	r2, #3
    5f74:	71da      	strb	r2, [r3, #7]
    5f76:	183b      	adds	r3, r7, r0
    5f78:	33ae      	adds	r3, #174	; 0xae
    5f7a:	781b      	ldrb	r3, [r3, #0]
    5f7c:	07db      	lsls	r3, r3, #31
    5f7e:	d52e      	bpl.n	5fde <USB_Handler+0xf2>
    5f80:	4ba4      	ldr	r3, [pc, #656]	; (6214 <USB_Handler+0x328>)
    5f82:	7018      	strb	r0, [r3, #0]
    5f84:	683a      	ldr	r2, [r7, #0]
    5f86:	0003      	movs	r3, r0
    5f88:	3308      	adds	r3, #8
    5f8a:	015b      	lsls	r3, r3, #5
    5f8c:	5c9b      	ldrb	r3, [r3, r2]
    5f8e:	079b      	lsls	r3, r3, #30
    5f90:	0f9b      	lsrs	r3, r3, #30
    5f92:	2b01      	cmp	r3, #1
    5f94:	d100      	bne.n	5f98 <USB_Handler+0xac>
    5f96:	e081      	b.n	609c <USB_Handler+0x1b0>
    5f98:	0142      	lsls	r2, r0, #5
    5f9a:	4b9f      	ldr	r3, [pc, #636]	; (6218 <USB_Handler+0x32c>)
    5f9c:	189b      	adds	r3, r3, r2
    5f9e:	685a      	ldr	r2, [r3, #4]
    5fa0:	0112      	lsls	r2, r2, #4
    5fa2:	0c92      	lsrs	r2, r2, #18
    5fa4:	b290      	uxth	r0, r2
    5fa6:	499b      	ldr	r1, [pc, #620]	; (6214 <USB_Handler+0x328>)
    5fa8:	804a      	strh	r2, [r1, #2]
    5faa:	685a      	ldr	r2, [r3, #4]
    5fac:	0492      	lsls	r2, r2, #18
    5fae:	0c92      	lsrs	r2, r2, #18
    5fb0:	808a      	strh	r2, [r1, #4]
    5fb2:	685a      	ldr	r2, [r3, #4]
    5fb4:	4999      	ldr	r1, [pc, #612]	; (621c <USB_Handler+0x330>)
    5fb6:	400a      	ands	r2, r1
    5fb8:	605a      	str	r2, [r3, #4]
    5fba:	2800      	cmp	r0, #0
    5fbc:	d107      	bne.n	5fce <USB_Handler+0xe2>
    5fbe:	0162      	lsls	r2, r4, #5
    5fc0:	4b95      	ldr	r3, [pc, #596]	; (6218 <USB_Handler+0x32c>)
    5fc2:	189b      	adds	r3, r3, r2
    5fc4:	685b      	ldr	r3, [r3, #4]
    5fc6:	049b      	lsls	r3, r3, #18
    5fc8:	0c9b      	lsrs	r3, r3, #18
    5fca:	4a92      	ldr	r2, [pc, #584]	; (6214 <USB_Handler+0x328>)
    5fcc:	8053      	strh	r3, [r2, #2]
    5fce:	4b8d      	ldr	r3, [pc, #564]	; (6204 <USB_Handler+0x318>)
    5fd0:	6818      	ldr	r0, [r3, #0]
    5fd2:	1ca3      	adds	r3, r4, #2
    5fd4:	011b      	lsls	r3, r3, #4
    5fd6:	18c3      	adds	r3, r0, r3
    5fd8:	685b      	ldr	r3, [r3, #4]
    5fda:	498e      	ldr	r1, [pc, #568]	; (6214 <USB_Handler+0x328>)
    5fdc:	4798      	blx	r3
    5fde:	076b      	lsls	r3, r5, #29
    5fe0:	d50e      	bpl.n	6000 <USB_Handler+0x114>
    5fe2:	4a8b      	ldr	r2, [pc, #556]	; (6210 <USB_Handler+0x324>)
    5fe4:	2301      	movs	r3, #1
    5fe6:	40a3      	lsls	r3, r4
    5fe8:	6811      	ldr	r1, [r2, #0]
    5fea:	4399      	bics	r1, r3
    5fec:	6011      	str	r1, [r2, #0]
    5fee:	4b85      	ldr	r3, [pc, #532]	; (6204 <USB_Handler+0x318>)
    5ff0:	681b      	ldr	r3, [r3, #0]
    5ff2:	681b      	ldr	r3, [r3, #0]
    5ff4:	0022      	movs	r2, r4
    5ff6:	3208      	adds	r2, #8
    5ff8:	0152      	lsls	r2, r2, #5
    5ffa:	189b      	adds	r3, r3, r2
    5ffc:	2204      	movs	r2, #4
    5ffe:	71da      	strb	r2, [r3, #7]
    6000:	072b      	lsls	r3, r5, #28
    6002:	d514      	bpl.n	602e <USB_Handler+0x142>
    6004:	4a82      	ldr	r2, [pc, #520]	; (6210 <USB_Handler+0x324>)
    6006:	2301      	movs	r3, #1
    6008:	40a3      	lsls	r3, r4
    600a:	6811      	ldr	r1, [r2, #0]
    600c:	4399      	bics	r1, r3
    600e:	6011      	str	r1, [r2, #0]
    6010:	4b7c      	ldr	r3, [pc, #496]	; (6204 <USB_Handler+0x318>)
    6012:	6818      	ldr	r0, [r3, #0]
    6014:	0023      	movs	r3, r4
    6016:	3308      	adds	r3, #8
    6018:	015b      	lsls	r3, r3, #5
    601a:	6802      	ldr	r2, [r0, #0]
    601c:	4694      	mov	ip, r2
    601e:	4463      	add	r3, ip
    6020:	2208      	movs	r2, #8
    6022:	71da      	strb	r2, [r3, #7]
    6024:	1903      	adds	r3, r0, r4
    6026:	33ae      	adds	r3, #174	; 0xae
    6028:	781b      	ldrb	r3, [r3, #0]
    602a:	079b      	lsls	r3, r3, #30
    602c:	d447      	bmi.n	60be <USB_Handler+0x1d2>
    602e:	06eb      	lsls	r3, r5, #27
    6030:	d514      	bpl.n	605c <USB_Handler+0x170>
    6032:	4a77      	ldr	r2, [pc, #476]	; (6210 <USB_Handler+0x324>)
    6034:	2301      	movs	r3, #1
    6036:	40a3      	lsls	r3, r4
    6038:	6811      	ldr	r1, [r2, #0]
    603a:	4399      	bics	r1, r3
    603c:	6011      	str	r1, [r2, #0]
    603e:	4b71      	ldr	r3, [pc, #452]	; (6204 <USB_Handler+0x318>)
    6040:	6818      	ldr	r0, [r3, #0]
    6042:	0023      	movs	r3, r4
    6044:	3308      	adds	r3, #8
    6046:	015b      	lsls	r3, r3, #5
    6048:	6802      	ldr	r2, [r0, #0]
    604a:	4694      	mov	ip, r2
    604c:	4463      	add	r3, ip
    604e:	2210      	movs	r2, #16
    6050:	71da      	strb	r2, [r3, #7]
    6052:	1903      	adds	r3, r0, r4
    6054:	33ae      	adds	r3, #174	; 0xae
    6056:	781b      	ldrb	r3, [r3, #0]
    6058:	075b      	lsls	r3, r3, #29
    605a:	d43e      	bmi.n	60da <USB_Handler+0x1ee>
    605c:	06ab      	lsls	r3, r5, #26
    605e:	d400      	bmi.n	6062 <USB_Handler+0x176>
    6060:	e0b0      	b.n	61c4 <USB_Handler+0x2d8>
    6062:	4a6b      	ldr	r2, [pc, #428]	; (6210 <USB_Handler+0x324>)
    6064:	2301      	movs	r3, #1
    6066:	40a3      	lsls	r3, r4
    6068:	6811      	ldr	r1, [r2, #0]
    606a:	4399      	bics	r1, r3
    606c:	6011      	str	r1, [r2, #0]
    606e:	4b65      	ldr	r3, [pc, #404]	; (6204 <USB_Handler+0x318>)
    6070:	6818      	ldr	r0, [r3, #0]
    6072:	0023      	movs	r3, r4
    6074:	3308      	adds	r3, #8
    6076:	015b      	lsls	r3, r3, #5
    6078:	6802      	ldr	r2, [r0, #0]
    607a:	4694      	mov	ip, r2
    607c:	4463      	add	r3, ip
    607e:	2220      	movs	r2, #32
    6080:	71da      	strb	r2, [r3, #7]
    6082:	1903      	adds	r3, r0, r4
    6084:	33ae      	adds	r3, #174	; 0xae
    6086:	781b      	ldrb	r3, [r3, #0]
    6088:	071b      	lsls	r3, r3, #28
    608a:	d400      	bmi.n	608e <USB_Handler+0x1a2>
    608c:	e09a      	b.n	61c4 <USB_Handler+0x2d8>
    608e:	4961      	ldr	r1, [pc, #388]	; (6214 <USB_Handler+0x328>)
    6090:	700c      	strb	r4, [r1, #0]
    6092:	0124      	lsls	r4, r4, #4
    6094:	1904      	adds	r4, r0, r4
    6096:	6b23      	ldr	r3, [r4, #48]	; 0x30
    6098:	4798      	blx	r3
    609a:	e093      	b.n	61c4 <USB_Handler+0x2d8>
    609c:	0142      	lsls	r2, r0, #5
    609e:	4b5e      	ldr	r3, [pc, #376]	; (6218 <USB_Handler+0x32c>)
    60a0:	189b      	adds	r3, r3, r2
    60a2:	685a      	ldr	r2, [r3, #4]
    60a4:	0492      	lsls	r2, r2, #18
    60a6:	0c92      	lsrs	r2, r2, #18
    60a8:	495a      	ldr	r1, [pc, #360]	; (6214 <USB_Handler+0x328>)
    60aa:	804a      	strh	r2, [r1, #2]
    60ac:	685a      	ldr	r2, [r3, #4]
    60ae:	0112      	lsls	r2, r2, #4
    60b0:	0c92      	lsrs	r2, r2, #18
    60b2:	808a      	strh	r2, [r1, #4]
    60b4:	685a      	ldr	r2, [r3, #4]
    60b6:	0b92      	lsrs	r2, r2, #14
    60b8:	0392      	lsls	r2, r2, #14
    60ba:	605a      	str	r2, [r3, #4]
    60bc:	e787      	b.n	5fce <USB_Handler+0xe2>
    60be:	4955      	ldr	r1, [pc, #340]	; (6214 <USB_Handler+0x328>)
    60c0:	700c      	strb	r4, [r1, #0]
    60c2:	0162      	lsls	r2, r4, #5
    60c4:	4b54      	ldr	r3, [pc, #336]	; (6218 <USB_Handler+0x32c>)
    60c6:	189b      	adds	r3, r3, r2
    60c8:	89db      	ldrh	r3, [r3, #14]
    60ca:	221f      	movs	r2, #31
    60cc:	4013      	ands	r3, r2
    60ce:	704b      	strb	r3, [r1, #1]
    60d0:	0123      	lsls	r3, r4, #4
    60d2:	18c3      	adds	r3, r0, r3
    60d4:	6a9b      	ldr	r3, [r3, #40]	; 0x28
    60d6:	4798      	blx	r3
    60d8:	e7a9      	b.n	602e <USB_Handler+0x142>
    60da:	494e      	ldr	r1, [pc, #312]	; (6214 <USB_Handler+0x328>)
    60dc:	700c      	strb	r4, [r1, #0]
    60de:	0162      	lsls	r2, r4, #5
    60e0:	4b4d      	ldr	r3, [pc, #308]	; (6218 <USB_Handler+0x32c>)
    60e2:	189b      	adds	r3, r3, r2
    60e4:	685b      	ldr	r3, [r3, #4]
    60e6:	011b      	lsls	r3, r3, #4
    60e8:	0c9b      	lsrs	r3, r3, #18
    60ea:	804b      	strh	r3, [r1, #2]
    60ec:	0123      	lsls	r3, r4, #4
    60ee:	18c3      	adds	r3, r0, r3
    60f0:	6adb      	ldr	r3, [r3, #44]	; 0x2c
    60f2:	2100      	movs	r1, #0
    60f4:	4798      	blx	r3
    60f6:	e7b1      	b.n	605c <USB_Handler+0x170>
    60f8:	8bac      	ldrh	r4, [r5, #28]
    60fa:	b2a4      	uxth	r4, r4
    60fc:	0763      	lsls	r3, r4, #29
    60fe:	d505      	bpl.n	610c <USB_Handler+0x220>
    6100:	2304      	movs	r3, #4
    6102:	83ab      	strh	r3, [r5, #28]
    6104:	33a1      	adds	r3, #161	; 0xa1
    6106:	5cfb      	ldrb	r3, [r7, r3]
    6108:	07db      	lsls	r3, r3, #31
    610a:	d462      	bmi.n	61d2 <USB_Handler+0x2e6>
    610c:	0723      	lsls	r3, r4, #28
    610e:	d50b      	bpl.n	6128 <USB_Handler+0x23c>
    6110:	2200      	movs	r2, #0
    6112:	4b3f      	ldr	r3, [pc, #252]	; (6210 <USB_Handler+0x324>)
    6114:	601a      	str	r2, [r3, #0]
    6116:	4b3b      	ldr	r3, [pc, #236]	; (6204 <USB_Handler+0x318>)
    6118:	6818      	ldr	r0, [r3, #0]
    611a:	2308      	movs	r3, #8
    611c:	6802      	ldr	r2, [r0, #0]
    611e:	8393      	strh	r3, [r2, #28]
    6120:	339d      	adds	r3, #157	; 0x9d
    6122:	5cc3      	ldrb	r3, [r0, r3]
    6124:	079b      	lsls	r3, r3, #30
    6126:	d458      	bmi.n	61da <USB_Handler+0x2ee>
    6128:	0663      	lsls	r3, r4, #25
    612a:	d508      	bpl.n	613e <USB_Handler+0x252>
    612c:	4b35      	ldr	r3, [pc, #212]	; (6204 <USB_Handler+0x318>)
    612e:	6818      	ldr	r0, [r3, #0]
    6130:	2340      	movs	r3, #64	; 0x40
    6132:	6802      	ldr	r2, [r0, #0]
    6134:	8393      	strh	r3, [r2, #28]
    6136:	3365      	adds	r3, #101	; 0x65
    6138:	5cc3      	ldrb	r3, [r0, r3]
    613a:	06db      	lsls	r3, r3, #27
    613c:	d450      	bmi.n	61e0 <USB_Handler+0x2f4>
    613e:	06a3      	lsls	r3, r4, #26
    6140:	d508      	bpl.n	6154 <USB_Handler+0x268>
    6142:	4b30      	ldr	r3, [pc, #192]	; (6204 <USB_Handler+0x318>)
    6144:	6818      	ldr	r0, [r3, #0]
    6146:	2320      	movs	r3, #32
    6148:	6802      	ldr	r2, [r0, #0]
    614a:	8393      	strh	r3, [r2, #28]
    614c:	3385      	adds	r3, #133	; 0x85
    614e:	5cc3      	ldrb	r3, [r0, r3]
    6150:	071b      	lsls	r3, r3, #28
    6152:	d448      	bmi.n	61e6 <USB_Handler+0x2fa>
    6154:	06e3      	lsls	r3, r4, #27
    6156:	d508      	bpl.n	616a <USB_Handler+0x27e>
    6158:	4b2a      	ldr	r3, [pc, #168]	; (6204 <USB_Handler+0x318>)
    615a:	6818      	ldr	r0, [r3, #0]
    615c:	2310      	movs	r3, #16
    615e:	6802      	ldr	r2, [r0, #0]
    6160:	8393      	strh	r3, [r2, #28]
    6162:	3395      	adds	r3, #149	; 0x95
    6164:	5cc3      	ldrb	r3, [r0, r3]
    6166:	075b      	lsls	r3, r3, #29
    6168:	d440      	bmi.n	61ec <USB_Handler+0x300>
    616a:	0623      	lsls	r3, r4, #24
    616c:	d50b      	bpl.n	6186 <USB_Handler+0x29a>
    616e:	2200      	movs	r2, #0
    6170:	4b27      	ldr	r3, [pc, #156]	; (6210 <USB_Handler+0x324>)
    6172:	601a      	str	r2, [r3, #0]
    6174:	4b23      	ldr	r3, [pc, #140]	; (6204 <USB_Handler+0x318>)
    6176:	6818      	ldr	r0, [r3, #0]
    6178:	2380      	movs	r3, #128	; 0x80
    617a:	6802      	ldr	r2, [r0, #0]
    617c:	8393      	strh	r3, [r2, #28]
    617e:	3325      	adds	r3, #37	; 0x25
    6180:	5cc3      	ldrb	r3, [r0, r3]
    6182:	069b      	lsls	r3, r3, #26
    6184:	d435      	bmi.n	61f2 <USB_Handler+0x306>
    6186:	05e3      	lsls	r3, r4, #23
    6188:	d50c      	bpl.n	61a4 <USB_Handler+0x2b8>
    618a:	2200      	movs	r2, #0
    618c:	4b20      	ldr	r3, [pc, #128]	; (6210 <USB_Handler+0x324>)
    618e:	601a      	str	r2, [r3, #0]
    6190:	4b1c      	ldr	r3, [pc, #112]	; (6204 <USB_Handler+0x318>)
    6192:	6818      	ldr	r0, [r3, #0]
    6194:	2380      	movs	r3, #128	; 0x80
    6196:	005b      	lsls	r3, r3, #1
    6198:	6802      	ldr	r2, [r0, #0]
    619a:	8393      	strh	r3, [r2, #28]
    619c:	3b5b      	subs	r3, #91	; 0x5b
    619e:	5cc3      	ldrb	r3, [r0, r3]
    61a0:	065b      	lsls	r3, r3, #25
    61a2:	d429      	bmi.n	61f8 <USB_Handler+0x30c>
    61a4:	05a3      	lsls	r3, r4, #22
    61a6:	d50d      	bpl.n	61c4 <USB_Handler+0x2d8>
    61a8:	2200      	movs	r2, #0
    61aa:	4b19      	ldr	r3, [pc, #100]	; (6210 <USB_Handler+0x324>)
    61ac:	601a      	str	r2, [r3, #0]
    61ae:	4b15      	ldr	r3, [pc, #84]	; (6204 <USB_Handler+0x318>)
    61b0:	6818      	ldr	r0, [r3, #0]
    61b2:	2380      	movs	r3, #128	; 0x80
    61b4:	009b      	lsls	r3, r3, #2
    61b6:	6802      	ldr	r2, [r0, #0]
    61b8:	8393      	strh	r3, [r2, #28]
    61ba:	3b5c      	subs	r3, #92	; 0x5c
    61bc:	3bff      	subs	r3, #255	; 0xff
    61be:	5cc3      	ldrb	r3, [r0, r3]
    61c0:	2b7f      	cmp	r3, #127	; 0x7f
    61c2:	d81c      	bhi.n	61fe <USB_Handler+0x312>
    61c4:	b003      	add	sp, #12
    61c6:	bc3c      	pop	{r2, r3, r4, r5}
    61c8:	4690      	mov	r8, r2
    61ca:	4699      	mov	r9, r3
    61cc:	46a2      	mov	sl, r4
    61ce:	46ab      	mov	fp, r5
    61d0:	bdf0      	pop	{r4, r5, r6, r7, pc}
    61d2:	687b      	ldr	r3, [r7, #4]
    61d4:	0038      	movs	r0, r7
    61d6:	4798      	blx	r3
    61d8:	e798      	b.n	610c <USB_Handler+0x220>
    61da:	6883      	ldr	r3, [r0, #8]
    61dc:	4798      	blx	r3
    61de:	e7a3      	b.n	6128 <USB_Handler+0x23c>
    61e0:	6943      	ldr	r3, [r0, #20]
    61e2:	4798      	blx	r3
    61e4:	e7ab      	b.n	613e <USB_Handler+0x252>
    61e6:	6903      	ldr	r3, [r0, #16]
    61e8:	4798      	blx	r3
    61ea:	e7b3      	b.n	6154 <USB_Handler+0x268>
    61ec:	68c3      	ldr	r3, [r0, #12]
    61ee:	4798      	blx	r3
    61f0:	e7bb      	b.n	616a <USB_Handler+0x27e>
    61f2:	6983      	ldr	r3, [r0, #24]
    61f4:	4798      	blx	r3
    61f6:	e7c6      	b.n	6186 <USB_Handler+0x29a>
    61f8:	69c3      	ldr	r3, [r0, #28]
    61fa:	4798      	blx	r3
    61fc:	e7d2      	b.n	61a4 <USB_Handler+0x2b8>
    61fe:	6a03      	ldr	r3, [r0, #32]
    6200:	4798      	blx	r3
    6202:	e7df      	b.n	61c4 <USB_Handler+0x2d8>
    6204:	20000f08 	.word	0x20000f08
    6208:	0000c4c0 	.word	0x0000c4c0
    620c:	000092f9 	.word	0x000092f9
    6210:	20000f18 	.word	0x20000f18
    6214:	20000f1c 	.word	0x20000f1c
    6218:	200028b4 	.word	0x200028b4
    621c:	f0003fff 	.word	0xf0003fff
    6220:	0023      	movs	r3, r4
    6222:	332e      	adds	r3, #46	; 0x2e
    6224:	009b      	lsls	r3, r3, #2
    6226:	4642      	mov	r2, r8
    6228:	6812      	ldr	r2, [r2, #0]
    622a:	589b      	ldr	r3, [r3, r2]
    622c:	499e      	ldr	r1, [pc, #632]	; (64a8 <USB_Handler+0x5bc>)
    622e:	4642      	mov	r2, r8
    6230:	6810      	ldr	r0, [r2, #0]
    6232:	4798      	blx	r3
    6234:	3401      	adds	r4, #1
    6236:	2c07      	cmp	r4, #7
    6238:	d0c4      	beq.n	61c4 <USB_Handler+0x2d8>
    623a:	0063      	lsls	r3, r4, #1
    623c:	5bdb      	ldrh	r3, [r3, r7]
    623e:	4233      	tst	r3, r6
    6240:	d003      	beq.n	624a <USB_Handler+0x35e>
    6242:	464a      	mov	r2, r9
    6244:	6812      	ldr	r2, [r2, #0]
    6246:	6812      	ldr	r2, [r2, #0]
    6248:	8393      	strh	r3, [r2, #28]
    624a:	422b      	tst	r3, r5
    624c:	d0f2      	beq.n	6234 <USB_Handler+0x348>
    624e:	2c06      	cmp	r4, #6
    6250:	d1e6      	bne.n	6220 <USB_Handler+0x334>
    6252:	4b96      	ldr	r3, [pc, #600]	; (64ac <USB_Handler+0x5c0>)
    6254:	891b      	ldrh	r3, [r3, #8]
    6256:	091b      	lsrs	r3, r3, #4
    6258:	2280      	movs	r2, #128	; 0x80
    625a:	0052      	lsls	r2, r2, #1
    625c:	4013      	ands	r3, r2
    625e:	4a92      	ldr	r2, [pc, #584]	; (64a8 <USB_Handler+0x5bc>)
    6260:	6013      	str	r3, [r2, #0]
    6262:	e7dd      	b.n	6220 <USB_Handler+0x334>
    6264:	003c      	movs	r4, r7
    6266:	3459      	adds	r4, #89	; 0x59
    6268:	34ff      	adds	r4, #255	; 0xff
    626a:	2300      	movs	r3, #0
    626c:	2201      	movs	r2, #1
    626e:	4694      	mov	ip, r2
    6270:	325f      	adds	r2, #95	; 0x5f
    6272:	4691      	mov	r9, r2
    6274:	3a50      	subs	r2, #80	; 0x50
    6276:	4692      	mov	sl, r2
    6278:	3a0d      	subs	r2, #13
    627a:	4693      	mov	fp, r2
    627c:	46b8      	mov	r8, r7
    627e:	002f      	movs	r7, r5
    6280:	e0b9      	b.n	63f6 <USB_Handler+0x50a>
    6282:	002a      	movs	r2, r5
    6284:	003d      	movs	r5, r7
    6286:	4647      	mov	r7, r8
    6288:	4690      	mov	r8, r2
    628a:	015b      	lsls	r3, r3, #5
    628c:	18ed      	adds	r5, r5, r3
    628e:	2308      	movs	r3, #8
    6290:	33ff      	adds	r3, #255	; 0xff
    6292:	5ceb      	ldrb	r3, [r5, r3]
    6294:	065b      	lsls	r3, r3, #25
    6296:	d516      	bpl.n	62c6 <USB_Handler+0x3da>
    6298:	2240      	movs	r2, #64	; 0x40
    629a:	2308      	movs	r3, #8
    629c:	33ff      	adds	r3, #255	; 0xff
    629e:	54ea      	strb	r2, [r5, r3]
    62a0:	3b88      	subs	r3, #136	; 0x88
    62a2:	3bff      	subs	r3, #255	; 0xff
    62a4:	4642      	mov	r2, r8
    62a6:	4313      	orrs	r3, r2
    62a8:	4a81      	ldr	r2, [pc, #516]	; (64b0 <USB_Handler+0x5c4>)
    62aa:	7193      	strb	r3, [r2, #6]
    62ac:	2360      	movs	r3, #96	; 0x60
    62ae:	420b      	tst	r3, r1
    62b0:	d100      	bne.n	62b4 <USB_Handler+0x3c8>
    62b2:	e787      	b.n	61c4 <USB_Handler+0x2d8>
    62b4:	9b01      	ldr	r3, [sp, #4]
    62b6:	011b      	lsls	r3, r3, #4
    62b8:	18fb      	adds	r3, r7, r3
    62ba:	33e0      	adds	r3, #224	; 0xe0
    62bc:	681b      	ldr	r3, [r3, #0]
    62be:	497c      	ldr	r1, [pc, #496]	; (64b0 <USB_Handler+0x5c4>)
    62c0:	0038      	movs	r0, r7
    62c2:	4798      	blx	r3
    62c4:	e77e      	b.n	61c4 <USB_Handler+0x2d8>
    62c6:	2308      	movs	r3, #8
    62c8:	33ff      	adds	r3, #255	; 0xff
    62ca:	5ceb      	ldrb	r3, [r5, r3]
    62cc:	069b      	lsls	r3, r3, #26
    62ce:	d5ed      	bpl.n	62ac <USB_Handler+0x3c0>
    62d0:	2220      	movs	r2, #32
    62d2:	2308      	movs	r3, #8
    62d4:	33ff      	adds	r3, #255	; 0xff
    62d6:	54ea      	strb	r2, [r5, r3]
    62d8:	4b75      	ldr	r3, [pc, #468]	; (64b0 <USB_Handler+0x5c4>)
    62da:	4642      	mov	r2, r8
    62dc:	719a      	strb	r2, [r3, #6]
    62de:	e7e5      	b.n	62ac <USB_Handler+0x3c0>
    62e0:	003d      	movs	r5, r7
    62e2:	4647      	mov	r7, r8
    62e4:	9a01      	ldr	r2, [sp, #4]
    62e6:	0013      	movs	r3, r2
    62e8:	3308      	adds	r3, #8
    62ea:	015b      	lsls	r3, r3, #5
    62ec:	18ed      	adds	r5, r5, r3
    62ee:	2310      	movs	r3, #16
    62f0:	71eb      	strb	r3, [r5, #7]
    62f2:	18bb      	adds	r3, r7, r2
    62f4:	3361      	adds	r3, #97	; 0x61
    62f6:	33ff      	adds	r3, #255	; 0xff
    62f8:	781b      	ldrb	r3, [r3, #0]
    62fa:	06db      	lsls	r3, r3, #27
    62fc:	d400      	bmi.n	6300 <USB_Handler+0x414>
    62fe:	e761      	b.n	61c4 <USB_Handler+0x2d8>
    6300:	0010      	movs	r0, r2
    6302:	0152      	lsls	r2, r2, #5
    6304:	4b69      	ldr	r3, [pc, #420]	; (64ac <USB_Handler+0x5c0>)
    6306:	189b      	adds	r3, r3, r2
    6308:	685b      	ldr	r3, [r3, #4]
    630a:	049b      	lsls	r3, r3, #18
    630c:	0c9b      	lsrs	r3, r3, #18
    630e:	4968      	ldr	r1, [pc, #416]	; (64b0 <USB_Handler+0x5c4>)
    6310:	800b      	strh	r3, [r1, #0]
    6312:	0103      	lsls	r3, r0, #4
    6314:	18fb      	adds	r3, r7, r3
    6316:	33dc      	adds	r3, #220	; 0xdc
    6318:	681b      	ldr	r3, [r3, #0]
    631a:	4640      	mov	r0, r8
    631c:	4798      	blx	r3
    631e:	e751      	b.n	61c4 <USB_Handler+0x2d8>
    6320:	002a      	movs	r2, r5
    6322:	003d      	movs	r5, r7
    6324:	4647      	mov	r7, r8
    6326:	4690      	mov	r8, r2
    6328:	015b      	lsls	r3, r3, #5
    632a:	18ed      	adds	r5, r5, r3
    632c:	2308      	movs	r3, #8
    632e:	33ff      	adds	r3, #255	; 0xff
    6330:	5ceb      	ldrb	r3, [r5, r3]
    6332:	079b      	lsls	r3, r3, #30
    6334:	d51e      	bpl.n	6374 <USB_Handler+0x488>
    6336:	2202      	movs	r2, #2
    6338:	2308      	movs	r3, #8
    633a:	33ff      	adds	r3, #255	; 0xff
    633c:	54ea      	strb	r2, [r5, r3]
    633e:	485c      	ldr	r0, [pc, #368]	; (64b0 <USB_Handler+0x5c4>)
    6340:	3b88      	subs	r3, #136	; 0x88
    6342:	3bff      	subs	r3, #255	; 0xff
    6344:	4642      	mov	r2, r8
    6346:	4313      	orrs	r3, r2
    6348:	7183      	strb	r3, [r0, #6]
    634a:	9b01      	ldr	r3, [sp, #4]
    634c:	015a      	lsls	r2, r3, #5
    634e:	4b57      	ldr	r3, [pc, #348]	; (64ac <USB_Handler+0x5c0>)
    6350:	189b      	adds	r3, r3, r2
    6352:	3310      	adds	r3, #16
    6354:	685b      	ldr	r3, [r3, #4]
    6356:	049b      	lsls	r3, r3, #18
    6358:	0c9b      	lsrs	r3, r3, #18
    635a:	8043      	strh	r3, [r0, #2]
    635c:	078b      	lsls	r3, r1, #30
    635e:	d100      	bne.n	6362 <USB_Handler+0x476>
    6360:	e730      	b.n	61c4 <USB_Handler+0x2d8>
    6362:	9b01      	ldr	r3, [sp, #4]
    6364:	330d      	adds	r3, #13
    6366:	011b      	lsls	r3, r3, #4
    6368:	18fb      	adds	r3, r7, r3
    636a:	685b      	ldr	r3, [r3, #4]
    636c:	4950      	ldr	r1, [pc, #320]	; (64b0 <USB_Handler+0x5c4>)
    636e:	0038      	movs	r0, r7
    6370:	4798      	blx	r3
    6372:	e727      	b.n	61c4 <USB_Handler+0x2d8>
    6374:	2308      	movs	r3, #8
    6376:	33ff      	adds	r3, #255	; 0xff
    6378:	5ceb      	ldrb	r3, [r5, r3]
    637a:	07db      	lsls	r3, r3, #31
    637c:	d5ee      	bpl.n	635c <USB_Handler+0x470>
    637e:	2201      	movs	r2, #1
    6380:	2308      	movs	r3, #8
    6382:	33ff      	adds	r3, #255	; 0xff
    6384:	54ea      	strb	r2, [r5, r3]
    6386:	484a      	ldr	r0, [pc, #296]	; (64b0 <USB_Handler+0x5c4>)
    6388:	4643      	mov	r3, r8
    638a:	7183      	strb	r3, [r0, #6]
    638c:	9b01      	ldr	r3, [sp, #4]
    638e:	015b      	lsls	r3, r3, #5
    6390:	4a46      	ldr	r2, [pc, #280]	; (64ac <USB_Handler+0x5c0>)
    6392:	18d2      	adds	r2, r2, r3
    6394:	6853      	ldr	r3, [r2, #4]
    6396:	049b      	lsls	r3, r3, #18
    6398:	0c9b      	lsrs	r3, r3, #18
    639a:	8003      	strh	r3, [r0, #0]
    639c:	6853      	ldr	r3, [r2, #4]
    639e:	011b      	lsls	r3, r3, #4
    63a0:	0c9b      	lsrs	r3, r3, #18
    63a2:	8083      	strh	r3, [r0, #4]
    63a4:	e7da      	b.n	635c <USB_Handler+0x470>
    63a6:	2208      	movs	r2, #8
    63a8:	32ff      	adds	r2, #255	; 0xff
    63aa:	5c9a      	ldrb	r2, [r3, r2]
    63ac:	0752      	lsls	r2, r2, #29
    63ae:	d56e      	bpl.n	648e <USB_Handler+0x5a2>
    63b0:	2004      	movs	r0, #4
    63b2:	2208      	movs	r2, #8
    63b4:	32ff      	adds	r2, #255	; 0xff
    63b6:	5498      	strb	r0, [r3, r2]
    63b8:	9801      	ldr	r0, [sp, #4]
    63ba:	0142      	lsls	r2, r0, #5
    63bc:	4b3b      	ldr	r3, [pc, #236]	; (64ac <USB_Handler+0x5c0>)
    63be:	189b      	adds	r3, r3, r2
    63c0:	7a9b      	ldrb	r3, [r3, #10]
    63c2:	079b      	lsls	r3, r3, #30
    63c4:	d505      	bpl.n	63d2 <USB_Handler+0x4e6>
    63c6:	4b39      	ldr	r3, [pc, #228]	; (64ac <USB_Handler+0x5c0>)
    63c8:	189b      	adds	r3, r3, r2
    63ca:	7a9a      	ldrb	r2, [r3, #10]
    63cc:	2002      	movs	r0, #2
    63ce:	4382      	bics	r2, r0
    63d0:	729a      	strb	r2, [r3, #10]
    63d2:	4b37      	ldr	r3, [pc, #220]	; (64b0 <USB_Handler+0x5c4>)
    63d4:	4642      	mov	r2, r8
    63d6:	719a      	strb	r2, [r3, #6]
    63d8:	9b01      	ldr	r3, [sp, #4]
    63da:	3308      	adds	r3, #8
    63dc:	015b      	lsls	r3, r3, #5
    63de:	683a      	ldr	r2, [r7, #0]
    63e0:	4694      	mov	ip, r2
    63e2:	4463      	add	r3, ip
    63e4:	79db      	ldrb	r3, [r3, #7]
    63e6:	07db      	lsls	r3, r3, #31
    63e8:	d551      	bpl.n	648e <USB_Handler+0x5a2>
    63ea:	e6eb      	b.n	61c4 <USB_Handler+0x2d8>
    63ec:	3301      	adds	r3, #1
    63ee:	3401      	adds	r4, #1
    63f0:	2b08      	cmp	r3, #8
    63f2:	d100      	bne.n	63f6 <USB_Handler+0x50a>
    63f4:	e6e6      	b.n	61c4 <USB_Handler+0x2d8>
    63f6:	b2dd      	uxtb	r5, r3
    63f8:	9301      	str	r3, [sp, #4]
    63fa:	0032      	movs	r2, r6
    63fc:	411a      	asrs	r2, r3
    63fe:	4661      	mov	r1, ip
    6400:	4211      	tst	r1, r2
    6402:	d0f3      	beq.n	63ec <USB_Handler+0x500>
    6404:	001a      	movs	r2, r3
    6406:	3208      	adds	r2, #8
    6408:	0152      	lsls	r2, r2, #5
    640a:	18ba      	adds	r2, r7, r2
    640c:	79d2      	ldrb	r2, [r2, #7]
    640e:	b2d2      	uxtb	r2, r2
    6410:	7a21      	ldrb	r1, [r4, #8]
    6412:	4011      	ands	r1, r2
    6414:	7820      	ldrb	r0, [r4, #0]
    6416:	4001      	ands	r1, r0
    6418:	4648      	mov	r0, r9
    641a:	4210      	tst	r0, r2
    641c:	d000      	beq.n	6420 <USB_Handler+0x534>
    641e:	e730      	b.n	6282 <USB_Handler+0x396>
    6420:	4650      	mov	r0, sl
    6422:	4210      	tst	r0, r2
    6424:	d000      	beq.n	6428 <USB_Handler+0x53c>
    6426:	e75b      	b.n	62e0 <USB_Handler+0x3f4>
    6428:	4658      	mov	r0, fp
    642a:	4210      	tst	r0, r2
    642c:	d000      	beq.n	6430 <USB_Handler+0x544>
    642e:	e777      	b.n	6320 <USB_Handler+0x434>
    6430:	200c      	movs	r0, #12
    6432:	4210      	tst	r0, r2
    6434:	d0da      	beq.n	63ec <USB_Handler+0x500>
    6436:	002a      	movs	r2, r5
    6438:	003d      	movs	r5, r7
    643a:	4647      	mov	r7, r8
    643c:	4690      	mov	r8, r2
    643e:	015b      	lsls	r3, r3, #5
    6440:	18eb      	adds	r3, r5, r3
    6442:	2208      	movs	r2, #8
    6444:	32ff      	adds	r2, #255	; 0xff
    6446:	5c9a      	ldrb	r2, [r3, r2]
    6448:	0712      	lsls	r2, r2, #28
    644a:	d5ac      	bpl.n	63a6 <USB_Handler+0x4ba>
    644c:	3804      	subs	r0, #4
    644e:	2208      	movs	r2, #8
    6450:	32ff      	adds	r2, #255	; 0xff
    6452:	5498      	strb	r0, [r3, r2]
    6454:	9801      	ldr	r0, [sp, #4]
    6456:	0142      	lsls	r2, r0, #5
    6458:	4b14      	ldr	r3, [pc, #80]	; (64ac <USB_Handler+0x5c0>)
    645a:	189b      	adds	r3, r3, r2
    645c:	7e9b      	ldrb	r3, [r3, #26]
    645e:	079b      	lsls	r3, r3, #30
    6460:	d505      	bpl.n	646e <USB_Handler+0x582>
    6462:	4b12      	ldr	r3, [pc, #72]	; (64ac <USB_Handler+0x5c0>)
    6464:	189b      	adds	r3, r3, r2
    6466:	7e9a      	ldrb	r2, [r3, #26]
    6468:	2002      	movs	r0, #2
    646a:	4382      	bics	r2, r0
    646c:	769a      	strb	r2, [r3, #26]
    646e:	2380      	movs	r3, #128	; 0x80
    6470:	425b      	negs	r3, r3
    6472:	4642      	mov	r2, r8
    6474:	4313      	orrs	r3, r2
    6476:	4a0e      	ldr	r2, [pc, #56]	; (64b0 <USB_Handler+0x5c4>)
    6478:	7193      	strb	r3, [r2, #6]
    647a:	9b01      	ldr	r3, [sp, #4]
    647c:	3308      	adds	r3, #8
    647e:	015b      	lsls	r3, r3, #5
    6480:	683a      	ldr	r2, [r7, #0]
    6482:	4694      	mov	ip, r2
    6484:	4463      	add	r3, ip
    6486:	79db      	ldrb	r3, [r3, #7]
    6488:	079b      	lsls	r3, r3, #30
    648a:	d500      	bpl.n	648e <USB_Handler+0x5a2>
    648c:	e69a      	b.n	61c4 <USB_Handler+0x2d8>
    648e:	230c      	movs	r3, #12
    6490:	420b      	tst	r3, r1
    6492:	d100      	bne.n	6496 <USB_Handler+0x5aa>
    6494:	e696      	b.n	61c4 <USB_Handler+0x2d8>
    6496:	9b01      	ldr	r3, [sp, #4]
    6498:	011b      	lsls	r3, r3, #4
    649a:	18fb      	adds	r3, r7, r3
    649c:	33d8      	adds	r3, #216	; 0xd8
    649e:	681b      	ldr	r3, [r3, #0]
    64a0:	4903      	ldr	r1, [pc, #12]	; (64b0 <USB_Handler+0x5c4>)
    64a2:	0038      	movs	r0, r7
    64a4:	4798      	blx	r3
    64a6:	e68d      	b.n	61c4 <USB_Handler+0x2d8>
    64a8:	20000f0c 	.word	0x20000f0c
    64ac:	200028b4 	.word	0x200028b4
    64b0:	20000f10 	.word	0x20000f10

000064b4 <usb_get_config_defaults>:
    64b4:	2200      	movs	r2, #0
    64b6:	7002      	strb	r2, [r0, #0]
    64b8:	2301      	movs	r3, #1
    64ba:	7043      	strb	r3, [r0, #1]
    64bc:	7082      	strb	r2, [r0, #2]
    64be:	70c3      	strb	r3, [r0, #3]
    64c0:	4770      	bx	lr
	...

000064c4 <usb_init>:
    64c4:	b5f0      	push	{r4, r5, r6, r7, lr}
    64c6:	46ce      	mov	lr, r9
    64c8:	4647      	mov	r7, r8
    64ca:	b580      	push	{r7, lr}
    64cc:	b083      	sub	sp, #12
    64ce:	0004      	movs	r4, r0
    64d0:	000d      	movs	r5, r1
    64d2:	0016      	movs	r6, r2
    64d4:	2300      	movs	r3, #0
    64d6:	4a6e      	ldr	r2, [pc, #440]	; (6690 <usb_init+0x1cc>)
    64d8:	6013      	str	r3, [r2, #0]
    64da:	4a6e      	ldr	r2, [pc, #440]	; (6694 <usb_init+0x1d0>)
    64dc:	6010      	str	r0, [r2, #0]
    64de:	6021      	str	r1, [r4, #0]
    64e0:	496d      	ldr	r1, [pc, #436]	; (6698 <usb_init+0x1d4>)
    64e2:	69ca      	ldr	r2, [r1, #28]
    64e4:	2020      	movs	r0, #32
    64e6:	4302      	orrs	r2, r0
    64e8:	61ca      	str	r2, [r1, #28]
    64ea:	af01      	add	r7, sp, #4
    64ec:	707b      	strb	r3, [r7, #1]
    64ee:	2201      	movs	r2, #1
    64f0:	70ba      	strb	r2, [r7, #2]
    64f2:	70fb      	strb	r3, [r7, #3]
    64f4:	3306      	adds	r3, #6
    64f6:	4699      	mov	r9, r3
    64f8:	703b      	strb	r3, [r7, #0]
    64fa:	0039      	movs	r1, r7
    64fc:	3808      	subs	r0, #8
    64fe:	4b67      	ldr	r3, [pc, #412]	; (669c <usb_init+0x1d8>)
    6500:	4698      	mov	r8, r3
    6502:	4798      	blx	r3
    6504:	464b      	mov	r3, r9
    6506:	703b      	strb	r3, [r7, #0]
    6508:	0039      	movs	r1, r7
    650a:	2019      	movs	r0, #25
    650c:	47c0      	blx	r8
    650e:	78b3      	ldrb	r3, [r6, #2]
    6510:	466a      	mov	r2, sp
    6512:	7013      	strb	r3, [r2, #0]
    6514:	4669      	mov	r1, sp
    6516:	2006      	movs	r0, #6
    6518:	4b61      	ldr	r3, [pc, #388]	; (66a0 <usb_init+0x1dc>)
    651a:	4798      	blx	r3
    651c:	2006      	movs	r0, #6
    651e:	4b61      	ldr	r3, [pc, #388]	; (66a4 <usb_init+0x1e0>)
    6520:	4798      	blx	r3
    6522:	782b      	ldrb	r3, [r5, #0]
    6524:	2201      	movs	r2, #1
    6526:	4313      	orrs	r3, r2
    6528:	702b      	strb	r3, [r5, #0]
    652a:	78ab      	ldrb	r3, [r5, #2]
    652c:	07db      	lsls	r3, r3, #31
    652e:	d4fc      	bmi.n	652a <usb_init+0x66>
    6530:	4a5d      	ldr	r2, [pc, #372]	; (66a8 <usb_init+0x1e4>)
    6532:	78d3      	ldrb	r3, [r2, #3]
    6534:	2103      	movs	r1, #3
    6536:	438b      	bics	r3, r1
    6538:	2102      	movs	r1, #2
    653a:	430b      	orrs	r3, r1
    653c:	70d3      	strb	r3, [r2, #3]
    653e:	78d3      	ldrb	r3, [r2, #3]
    6540:	210c      	movs	r1, #12
    6542:	438b      	bics	r3, r1
    6544:	2108      	movs	r1, #8
    6546:	430b      	orrs	r3, r1
    6548:	70d3      	strb	r3, [r2, #3]
    654a:	4b58      	ldr	r3, [pc, #352]	; (66ac <usb_init+0x1e8>)
    654c:	681b      	ldr	r3, [r3, #0]
    654e:	039b      	lsls	r3, r3, #14
    6550:	0edb      	lsrs	r3, r3, #27
    6552:	2b1f      	cmp	r3, #31
    6554:	d100      	bne.n	6558 <usb_init+0x94>
    6556:	e08f      	b.n	6678 <usb_init+0x1b4>
    6558:	8d2a      	ldrh	r2, [r5, #40]	; 0x28
    655a:	019b      	lsls	r3, r3, #6
    655c:	4954      	ldr	r1, [pc, #336]	; (66b0 <usb_init+0x1ec>)
    655e:	400a      	ands	r2, r1
    6560:	4313      	orrs	r3, r2
    6562:	852b      	strh	r3, [r5, #40]	; 0x28
    6564:	4b51      	ldr	r3, [pc, #324]	; (66ac <usb_init+0x1e8>)
    6566:	681b      	ldr	r3, [r3, #0]
    6568:	025b      	lsls	r3, r3, #9
    656a:	0edb      	lsrs	r3, r3, #27
    656c:	2b1f      	cmp	r3, #31
    656e:	d100      	bne.n	6572 <usb_init+0xae>
    6570:	e084      	b.n	667c <usb_init+0x1b8>
    6572:	8d2a      	ldrh	r2, [r5, #40]	; 0x28
    6574:	211f      	movs	r1, #31
    6576:	438a      	bics	r2, r1
    6578:	4313      	orrs	r3, r2
    657a:	852b      	strh	r3, [r5, #40]	; 0x28
    657c:	4b4b      	ldr	r3, [pc, #300]	; (66ac <usb_init+0x1e8>)
    657e:	681b      	ldr	r3, [r3, #0]
    6580:	019b      	lsls	r3, r3, #6
    6582:	0f5b      	lsrs	r3, r3, #29
    6584:	2b07      	cmp	r3, #7
    6586:	d100      	bne.n	658a <usb_init+0xc6>
    6588:	e07a      	b.n	6680 <usb_init+0x1bc>
    658a:	8d2a      	ldrh	r2, [r5, #40]	; 0x28
    658c:	031b      	lsls	r3, r3, #12
    658e:	4949      	ldr	r1, [pc, #292]	; (66b4 <usb_init+0x1f0>)
    6590:	400a      	ands	r2, r1
    6592:	4313      	orrs	r3, r2
    6594:	852b      	strh	r3, [r5, #40]	; 0x28
    6596:	7832      	ldrb	r2, [r6, #0]
    6598:	7829      	ldrb	r1, [r5, #0]
    659a:	01d2      	lsls	r2, r2, #7
    659c:	237f      	movs	r3, #127	; 0x7f
    659e:	400b      	ands	r3, r1
    65a0:	4313      	orrs	r3, r2
    65a2:	702b      	strb	r3, [r5, #0]
    65a4:	7871      	ldrb	r1, [r6, #1]
    65a6:	782b      	ldrb	r3, [r5, #0]
    65a8:	2201      	movs	r2, #1
    65aa:	400a      	ands	r2, r1
    65ac:	0092      	lsls	r2, r2, #2
    65ae:	2104      	movs	r1, #4
    65b0:	438b      	bics	r3, r1
    65b2:	4313      	orrs	r3, r2
    65b4:	702b      	strb	r3, [r5, #0]
    65b6:	4b40      	ldr	r3, [pc, #256]	; (66b8 <usb_init+0x1f4>)
    65b8:	626b      	str	r3, [r5, #36]	; 0x24
    65ba:	78f3      	ldrb	r3, [r6, #3]
    65bc:	2b01      	cmp	r3, #1
    65be:	d061      	beq.n	6684 <usb_init+0x1c0>
    65c0:	2b00      	cmp	r3, #0
    65c2:	d106      	bne.n	65d2 <usb_init+0x10e>
    65c4:	6822      	ldr	r2, [r4, #0]
    65c6:	8913      	ldrh	r3, [r2, #8]
    65c8:	210c      	movs	r1, #12
    65ca:	438b      	bics	r3, r1
    65cc:	2104      	movs	r1, #4
    65ce:	430b      	orrs	r3, r1
    65d0:	8113      	strh	r3, [r2, #8]
    65d2:	2280      	movs	r2, #128	; 0x80
    65d4:	0052      	lsls	r2, r2, #1
    65d6:	2100      	movs	r1, #0
    65d8:	4837      	ldr	r0, [pc, #220]	; (66b8 <usb_init+0x1f4>)
    65da:	4b38      	ldr	r3, [pc, #224]	; (66bc <usb_init+0x1f8>)
    65dc:	4798      	blx	r3
    65de:	1d23      	adds	r3, r4, #4
    65e0:	0021      	movs	r1, r4
    65e2:	3124      	adds	r1, #36	; 0x24
    65e4:	2200      	movs	r2, #0
    65e6:	c304      	stmia	r3!, {r2}
    65e8:	428b      	cmp	r3, r1
    65ea:	d1fc      	bne.n	65e6 <usb_init+0x122>
    65ec:	0021      	movs	r1, r4
    65ee:	31a4      	adds	r1, #164	; 0xa4
    65f0:	2200      	movs	r2, #0
    65f2:	601a      	str	r2, [r3, #0]
    65f4:	605a      	str	r2, [r3, #4]
    65f6:	609a      	str	r2, [r3, #8]
    65f8:	60da      	str	r2, [r3, #12]
    65fa:	3310      	adds	r3, #16
    65fc:	428b      	cmp	r3, r1
    65fe:	d1f8      	bne.n	65f2 <usb_init+0x12e>
    6600:	2300      	movs	r3, #0
    6602:	22a4      	movs	r2, #164	; 0xa4
    6604:	54a3      	strb	r3, [r4, r2]
    6606:	3201      	adds	r2, #1
    6608:	54a3      	strb	r3, [r4, r2]
    660a:	0023      	movs	r3, r4
    660c:	33a6      	adds	r3, #166	; 0xa6
    660e:	0021      	movs	r1, r4
    6610:	31ae      	adds	r1, #174	; 0xae
    6612:	2200      	movs	r2, #0
    6614:	701a      	strb	r2, [r3, #0]
    6616:	721a      	strb	r2, [r3, #8]
    6618:	3301      	adds	r3, #1
    661a:	4299      	cmp	r1, r3
    661c:	d1fa      	bne.n	6614 <usb_init+0x150>
    661e:	0023      	movs	r3, r4
    6620:	33b8      	adds	r3, #184	; 0xb8
    6622:	0021      	movs	r1, r4
    6624:	31d4      	adds	r1, #212	; 0xd4
    6626:	2200      	movs	r2, #0
    6628:	c304      	stmia	r3!, {r2}
    662a:	428b      	cmp	r3, r1
    662c:	d1fc      	bne.n	6628 <usb_init+0x164>
    662e:	0021      	movs	r1, r4
    6630:	3155      	adds	r1, #85	; 0x55
    6632:	31ff      	adds	r1, #255	; 0xff
    6634:	2200      	movs	r2, #0
    6636:	601a      	str	r2, [r3, #0]
    6638:	605a      	str	r2, [r3, #4]
    663a:	609a      	str	r2, [r3, #8]
    663c:	60da      	str	r2, [r3, #12]
    663e:	3310      	adds	r3, #16
    6640:	428b      	cmp	r3, r1
    6642:	d1f8      	bne.n	6636 <usb_init+0x172>
    6644:	2300      	movs	r3, #0
    6646:	22aa      	movs	r2, #170	; 0xaa
    6648:	0052      	lsls	r2, r2, #1
    664a:	52a3      	strh	r3, [r4, r2]
    664c:	3202      	adds	r2, #2
    664e:	52a3      	strh	r3, [r4, r2]
    6650:	0023      	movs	r3, r4
    6652:	3359      	adds	r3, #89	; 0x59
    6654:	33ff      	adds	r3, #255	; 0xff
    6656:	3461      	adds	r4, #97	; 0x61
    6658:	34ff      	adds	r4, #255	; 0xff
    665a:	2200      	movs	r2, #0
    665c:	701a      	strb	r2, [r3, #0]
    665e:	721a      	strb	r2, [r3, #8]
    6660:	3301      	adds	r3, #1
    6662:	42a3      	cmp	r3, r4
    6664:	d1fa      	bne.n	665c <usb_init+0x198>
    6666:	2280      	movs	r2, #128	; 0x80
    6668:	4b15      	ldr	r3, [pc, #84]	; (66c0 <usb_init+0x1fc>)
    666a:	601a      	str	r2, [r3, #0]
    666c:	2000      	movs	r0, #0
    666e:	b003      	add	sp, #12
    6670:	bc0c      	pop	{r2, r3}
    6672:	4690      	mov	r8, r2
    6674:	4699      	mov	r9, r3
    6676:	bdf0      	pop	{r4, r5, r6, r7, pc}
    6678:	3b1a      	subs	r3, #26
    667a:	e76d      	b.n	6558 <usb_init+0x94>
    667c:	3b02      	subs	r3, #2
    667e:	e778      	b.n	6572 <usb_init+0xae>
    6680:	3b04      	subs	r3, #4
    6682:	e782      	b.n	658a <usb_init+0xc6>
    6684:	6822      	ldr	r2, [r4, #0]
    6686:	8913      	ldrh	r3, [r2, #8]
    6688:	3108      	adds	r1, #8
    668a:	438b      	bics	r3, r1
    668c:	8113      	strh	r3, [r2, #8]
    668e:	e7a0      	b.n	65d2 <usb_init+0x10e>
    6690:	20000f18 	.word	0x20000f18
    6694:	20000f08 	.word	0x20000f08
    6698:	40000400 	.word	0x40000400
    669c:	00008acd 	.word	0x00008acd
    66a0:	000089d5 	.word	0x000089d5
    66a4:	00008949 	.word	0x00008949
    66a8:	41005000 	.word	0x41005000
    66ac:	00806024 	.word	0x00806024
    66b0:	fffff83f 	.word	0xfffff83f
    66b4:	ffff8fff 	.word	0xffff8fff
    66b8:	200028b4 	.word	0x200028b4
    66bc:	0000bdff 	.word	0x0000bdff
    66c0:	e000e100 	.word	0xe000e100

000066c4 <usart_init>:
    66c4:	b5f0      	push	{r4, r5, r6, r7, lr}
    66c6:	46de      	mov	lr, fp
    66c8:	4657      	mov	r7, sl
    66ca:	464e      	mov	r6, r9
    66cc:	4645      	mov	r5, r8
    66ce:	b5e0      	push	{r5, r6, r7, lr}
    66d0:	b091      	sub	sp, #68	; 0x44
    66d2:	0005      	movs	r5, r0
    66d4:	000c      	movs	r4, r1
    66d6:	0016      	movs	r6, r2
    66d8:	6029      	str	r1, [r5, #0]
    66da:	0008      	movs	r0, r1
    66dc:	4bbc      	ldr	r3, [pc, #752]	; (69d0 <usart_init+0x30c>)
    66de:	4798      	blx	r3
    66e0:	0002      	movs	r2, r0
    66e2:	6823      	ldr	r3, [r4, #0]
    66e4:	2005      	movs	r0, #5
    66e6:	07db      	lsls	r3, r3, #31
    66e8:	d506      	bpl.n	66f8 <usart_init+0x34>
    66ea:	b011      	add	sp, #68	; 0x44
    66ec:	bc3c      	pop	{r2, r3, r4, r5}
    66ee:	4690      	mov	r8, r2
    66f0:	4699      	mov	r9, r3
    66f2:	46a2      	mov	sl, r4
    66f4:	46ab      	mov	fp, r5
    66f6:	bdf0      	pop	{r4, r5, r6, r7, pc}
    66f8:	6823      	ldr	r3, [r4, #0]
    66fa:	3017      	adds	r0, #23
    66fc:	079b      	lsls	r3, r3, #30
    66fe:	d4f4      	bmi.n	66ea <usart_init+0x26>
    6700:	49b4      	ldr	r1, [pc, #720]	; (69d4 <usart_init+0x310>)
    6702:	6a08      	ldr	r0, [r1, #32]
    6704:	1c97      	adds	r7, r2, #2
    6706:	2301      	movs	r3, #1
    6708:	40bb      	lsls	r3, r7
    670a:	4303      	orrs	r3, r0
    670c:	620b      	str	r3, [r1, #32]
    670e:	a90f      	add	r1, sp, #60	; 0x3c
    6710:	272d      	movs	r7, #45	; 0x2d
    6712:	5df3      	ldrb	r3, [r6, r7]
    6714:	700b      	strb	r3, [r1, #0]
    6716:	3214      	adds	r2, #20
    6718:	b2d3      	uxtb	r3, r2
    671a:	9302      	str	r3, [sp, #8]
    671c:	0018      	movs	r0, r3
    671e:	4bae      	ldr	r3, [pc, #696]	; (69d8 <usart_init+0x314>)
    6720:	4798      	blx	r3
    6722:	9802      	ldr	r0, [sp, #8]
    6724:	4bad      	ldr	r3, [pc, #692]	; (69dc <usart_init+0x318>)
    6726:	4798      	blx	r3
    6728:	5df0      	ldrb	r0, [r6, r7]
    672a:	2100      	movs	r1, #0
    672c:	4bac      	ldr	r3, [pc, #688]	; (69e0 <usart_init+0x31c>)
    672e:	4798      	blx	r3
    6730:	7af3      	ldrb	r3, [r6, #11]
    6732:	716b      	strb	r3, [r5, #5]
    6734:	2324      	movs	r3, #36	; 0x24
    6736:	5cf3      	ldrb	r3, [r6, r3]
    6738:	71ab      	strb	r3, [r5, #6]
    673a:	2325      	movs	r3, #37	; 0x25
    673c:	5cf3      	ldrb	r3, [r6, r3]
    673e:	71eb      	strb	r3, [r5, #7]
    6740:	7ef3      	ldrb	r3, [r6, #27]
    6742:	722b      	strb	r3, [r5, #8]
    6744:	7f33      	ldrb	r3, [r6, #28]
    6746:	726b      	strb	r3, [r5, #9]
    6748:	682b      	ldr	r3, [r5, #0]
    674a:	4698      	mov	r8, r3
    674c:	0018      	movs	r0, r3
    674e:	4ba0      	ldr	r3, [pc, #640]	; (69d0 <usart_init+0x30c>)
    6750:	4798      	blx	r3
    6752:	3014      	adds	r0, #20
    6754:	2200      	movs	r2, #0
    6756:	230e      	movs	r3, #14
    6758:	a906      	add	r1, sp, #24
    675a:	468c      	mov	ip, r1
    675c:	4463      	add	r3, ip
    675e:	801a      	strh	r2, [r3, #0]
    6760:	8a32      	ldrh	r2, [r6, #16]
    6762:	9202      	str	r2, [sp, #8]
    6764:	2380      	movs	r3, #128	; 0x80
    6766:	01db      	lsls	r3, r3, #7
    6768:	429a      	cmp	r2, r3
    676a:	d100      	bne.n	676e <usart_init+0xaa>
    676c:	e09e      	b.n	68ac <usart_init+0x1e8>
    676e:	d90f      	bls.n	6790 <usart_init+0xcc>
    6770:	23c0      	movs	r3, #192	; 0xc0
    6772:	01db      	lsls	r3, r3, #7
    6774:	9a02      	ldr	r2, [sp, #8]
    6776:	429a      	cmp	r2, r3
    6778:	d100      	bne.n	677c <usart_init+0xb8>
    677a:	e092      	b.n	68a2 <usart_init+0x1de>
    677c:	2380      	movs	r3, #128	; 0x80
    677e:	021b      	lsls	r3, r3, #8
    6780:	429a      	cmp	r2, r3
    6782:	d000      	beq.n	6786 <usart_init+0xc2>
    6784:	e11f      	b.n	69c6 <usart_init+0x302>
    6786:	2303      	movs	r3, #3
    6788:	9306      	str	r3, [sp, #24]
    678a:	2300      	movs	r3, #0
    678c:	9307      	str	r3, [sp, #28]
    678e:	e008      	b.n	67a2 <usart_init+0xde>
    6790:	2380      	movs	r3, #128	; 0x80
    6792:	019b      	lsls	r3, r3, #6
    6794:	429a      	cmp	r2, r3
    6796:	d000      	beq.n	679a <usart_init+0xd6>
    6798:	e115      	b.n	69c6 <usart_init+0x302>
    679a:	2310      	movs	r3, #16
    679c:	9306      	str	r3, [sp, #24]
    679e:	3b0f      	subs	r3, #15
    67a0:	9307      	str	r3, [sp, #28]
    67a2:	6833      	ldr	r3, [r6, #0]
    67a4:	9305      	str	r3, [sp, #20]
    67a6:	68f3      	ldr	r3, [r6, #12]
    67a8:	9303      	str	r3, [sp, #12]
    67aa:	6973      	ldr	r3, [r6, #20]
    67ac:	9304      	str	r3, [sp, #16]
    67ae:	7e33      	ldrb	r3, [r6, #24]
    67b0:	469b      	mov	fp, r3
    67b2:	2326      	movs	r3, #38	; 0x26
    67b4:	5cf3      	ldrb	r3, [r6, r3]
    67b6:	469a      	mov	sl, r3
    67b8:	6873      	ldr	r3, [r6, #4]
    67ba:	4699      	mov	r9, r3
    67bc:	2b00      	cmp	r3, #0
    67be:	d100      	bne.n	67c2 <usart_init+0xfe>
    67c0:	e0a0      	b.n	6904 <usart_init+0x240>
    67c2:	2380      	movs	r3, #128	; 0x80
    67c4:	055b      	lsls	r3, r3, #21
    67c6:	4599      	cmp	r9, r3
    67c8:	d100      	bne.n	67cc <usart_init+0x108>
    67ca:	e084      	b.n	68d6 <usart_init+0x212>
    67cc:	7e73      	ldrb	r3, [r6, #25]
    67ce:	2b00      	cmp	r3, #0
    67d0:	d002      	beq.n	67d8 <usart_init+0x114>
    67d2:	7eb3      	ldrb	r3, [r6, #26]
    67d4:	4642      	mov	r2, r8
    67d6:	7393      	strb	r3, [r2, #14]
    67d8:	682a      	ldr	r2, [r5, #0]
    67da:	9f02      	ldr	r7, [sp, #8]
    67dc:	69d3      	ldr	r3, [r2, #28]
    67de:	2b00      	cmp	r3, #0
    67e0:	d1fc      	bne.n	67dc <usart_init+0x118>
    67e2:	330e      	adds	r3, #14
    67e4:	aa06      	add	r2, sp, #24
    67e6:	4694      	mov	ip, r2
    67e8:	4463      	add	r3, ip
    67ea:	881b      	ldrh	r3, [r3, #0]
    67ec:	4642      	mov	r2, r8
    67ee:	8193      	strh	r3, [r2, #12]
    67f0:	9b05      	ldr	r3, [sp, #20]
    67f2:	9a03      	ldr	r2, [sp, #12]
    67f4:	4313      	orrs	r3, r2
    67f6:	9a04      	ldr	r2, [sp, #16]
    67f8:	4313      	orrs	r3, r2
    67fa:	464a      	mov	r2, r9
    67fc:	4313      	orrs	r3, r2
    67fe:	431f      	orrs	r7, r3
    6800:	465b      	mov	r3, fp
    6802:	021b      	lsls	r3, r3, #8
    6804:	431f      	orrs	r7, r3
    6806:	4653      	mov	r3, sl
    6808:	075b      	lsls	r3, r3, #29
    680a:	431f      	orrs	r7, r3
    680c:	2327      	movs	r3, #39	; 0x27
    680e:	5cf3      	ldrb	r3, [r6, r3]
    6810:	2b00      	cmp	r3, #0
    6812:	d101      	bne.n	6818 <usart_init+0x154>
    6814:	3304      	adds	r3, #4
    6816:	431f      	orrs	r7, r3
    6818:	7e73      	ldrb	r3, [r6, #25]
    681a:	029b      	lsls	r3, r3, #10
    681c:	7f32      	ldrb	r2, [r6, #28]
    681e:	0252      	lsls	r2, r2, #9
    6820:	4313      	orrs	r3, r2
    6822:	7f72      	ldrb	r2, [r6, #29]
    6824:	0212      	lsls	r2, r2, #8
    6826:	4313      	orrs	r3, r2
    6828:	2224      	movs	r2, #36	; 0x24
    682a:	5cb2      	ldrb	r2, [r6, r2]
    682c:	0452      	lsls	r2, r2, #17
    682e:	4313      	orrs	r3, r2
    6830:	2225      	movs	r2, #37	; 0x25
    6832:	5cb2      	ldrb	r2, [r6, r2]
    6834:	0412      	lsls	r2, r2, #16
    6836:	4313      	orrs	r3, r2
    6838:	7ab1      	ldrb	r1, [r6, #10]
    683a:	7af2      	ldrb	r2, [r6, #11]
    683c:	4311      	orrs	r1, r2
    683e:	4319      	orrs	r1, r3
    6840:	8933      	ldrh	r3, [r6, #8]
    6842:	2bff      	cmp	r3, #255	; 0xff
    6844:	d100      	bne.n	6848 <usart_init+0x184>
    6846:	e081      	b.n	694c <usart_init+0x288>
    6848:	2280      	movs	r2, #128	; 0x80
    684a:	0452      	lsls	r2, r2, #17
    684c:	4317      	orrs	r7, r2
    684e:	4319      	orrs	r1, r3
    6850:	232c      	movs	r3, #44	; 0x2c
    6852:	5cf3      	ldrb	r3, [r6, r3]
    6854:	2b00      	cmp	r3, #0
    6856:	d103      	bne.n	6860 <usart_init+0x19c>
    6858:	4b62      	ldr	r3, [pc, #392]	; (69e4 <usart_init+0x320>)
    685a:	789b      	ldrb	r3, [r3, #2]
    685c:	079b      	lsls	r3, r3, #30
    685e:	d501      	bpl.n	6864 <usart_init+0x1a0>
    6860:	2380      	movs	r3, #128	; 0x80
    6862:	431f      	orrs	r7, r3
    6864:	682a      	ldr	r2, [r5, #0]
    6866:	69d3      	ldr	r3, [r2, #28]
    6868:	2b00      	cmp	r3, #0
    686a:	d1fc      	bne.n	6866 <usart_init+0x1a2>
    686c:	4643      	mov	r3, r8
    686e:	6059      	str	r1, [r3, #4]
    6870:	682a      	ldr	r2, [r5, #0]
    6872:	69d3      	ldr	r3, [r2, #28]
    6874:	2b00      	cmp	r3, #0
    6876:	d1fc      	bne.n	6872 <usart_init+0x1ae>
    6878:	4643      	mov	r3, r8
    687a:	601f      	str	r7, [r3, #0]
    687c:	ab0e      	add	r3, sp, #56	; 0x38
    687e:	2280      	movs	r2, #128	; 0x80
    6880:	701a      	strb	r2, [r3, #0]
    6882:	2200      	movs	r2, #0
    6884:	705a      	strb	r2, [r3, #1]
    6886:	70da      	strb	r2, [r3, #3]
    6888:	709a      	strb	r2, [r3, #2]
    688a:	6b33      	ldr	r3, [r6, #48]	; 0x30
    688c:	930a      	str	r3, [sp, #40]	; 0x28
    688e:	6b73      	ldr	r3, [r6, #52]	; 0x34
    6890:	930b      	str	r3, [sp, #44]	; 0x2c
    6892:	6bb3      	ldr	r3, [r6, #56]	; 0x38
    6894:	930c      	str	r3, [sp, #48]	; 0x30
    6896:	6bf3      	ldr	r3, [r6, #60]	; 0x3c
    6898:	9302      	str	r3, [sp, #8]
    689a:	930d      	str	r3, [sp, #52]	; 0x34
    689c:	2700      	movs	r7, #0
    689e:	ae0a      	add	r6, sp, #40	; 0x28
    68a0:	e063      	b.n	696a <usart_init+0x2a6>
    68a2:	2308      	movs	r3, #8
    68a4:	9306      	str	r3, [sp, #24]
    68a6:	3b07      	subs	r3, #7
    68a8:	9307      	str	r3, [sp, #28]
    68aa:	e77a      	b.n	67a2 <usart_init+0xde>
    68ac:	6833      	ldr	r3, [r6, #0]
    68ae:	9305      	str	r3, [sp, #20]
    68b0:	68f3      	ldr	r3, [r6, #12]
    68b2:	9303      	str	r3, [sp, #12]
    68b4:	6973      	ldr	r3, [r6, #20]
    68b6:	9304      	str	r3, [sp, #16]
    68b8:	7e33      	ldrb	r3, [r6, #24]
    68ba:	469b      	mov	fp, r3
    68bc:	2326      	movs	r3, #38	; 0x26
    68be:	5cf3      	ldrb	r3, [r6, r3]
    68c0:	469a      	mov	sl, r3
    68c2:	6873      	ldr	r3, [r6, #4]
    68c4:	4699      	mov	r9, r3
    68c6:	2b00      	cmp	r3, #0
    68c8:	d018      	beq.n	68fc <usart_init+0x238>
    68ca:	2380      	movs	r3, #128	; 0x80
    68cc:	055b      	lsls	r3, r3, #21
    68ce:	4599      	cmp	r9, r3
    68d0:	d001      	beq.n	68d6 <usart_init+0x212>
    68d2:	2000      	movs	r0, #0
    68d4:	e025      	b.n	6922 <usart_init+0x25e>
    68d6:	2327      	movs	r3, #39	; 0x27
    68d8:	5cf3      	ldrb	r3, [r6, r3]
    68da:	2b00      	cmp	r3, #0
    68dc:	d000      	beq.n	68e0 <usart_init+0x21c>
    68de:	e775      	b.n	67cc <usart_init+0x108>
    68e0:	6a33      	ldr	r3, [r6, #32]
    68e2:	001f      	movs	r7, r3
    68e4:	b2c0      	uxtb	r0, r0
    68e6:	4b40      	ldr	r3, [pc, #256]	; (69e8 <usart_init+0x324>)
    68e8:	4798      	blx	r3
    68ea:	0001      	movs	r1, r0
    68ec:	220e      	movs	r2, #14
    68ee:	ab06      	add	r3, sp, #24
    68f0:	469c      	mov	ip, r3
    68f2:	4462      	add	r2, ip
    68f4:	0038      	movs	r0, r7
    68f6:	4b3d      	ldr	r3, [pc, #244]	; (69ec <usart_init+0x328>)
    68f8:	4798      	blx	r3
    68fa:	e012      	b.n	6922 <usart_init+0x25e>
    68fc:	2308      	movs	r3, #8
    68fe:	9306      	str	r3, [sp, #24]
    6900:	2300      	movs	r3, #0
    6902:	9307      	str	r3, [sp, #28]
    6904:	2327      	movs	r3, #39	; 0x27
    6906:	5cf3      	ldrb	r3, [r6, r3]
    6908:	2b00      	cmp	r3, #0
    690a:	d00e      	beq.n	692a <usart_init+0x266>
    690c:	9b06      	ldr	r3, [sp, #24]
    690e:	9300      	str	r3, [sp, #0]
    6910:	9b07      	ldr	r3, [sp, #28]
    6912:	220e      	movs	r2, #14
    6914:	a906      	add	r1, sp, #24
    6916:	468c      	mov	ip, r1
    6918:	4462      	add	r2, ip
    691a:	6ab1      	ldr	r1, [r6, #40]	; 0x28
    691c:	6a30      	ldr	r0, [r6, #32]
    691e:	4f34      	ldr	r7, [pc, #208]	; (69f0 <usart_init+0x32c>)
    6920:	47b8      	blx	r7
    6922:	2800      	cmp	r0, #0
    6924:	d000      	beq.n	6928 <usart_init+0x264>
    6926:	e6e0      	b.n	66ea <usart_init+0x26>
    6928:	e750      	b.n	67cc <usart_init+0x108>
    692a:	6a33      	ldr	r3, [r6, #32]
    692c:	001f      	movs	r7, r3
    692e:	b2c0      	uxtb	r0, r0
    6930:	4b2d      	ldr	r3, [pc, #180]	; (69e8 <usart_init+0x324>)
    6932:	4798      	blx	r3
    6934:	0001      	movs	r1, r0
    6936:	9b06      	ldr	r3, [sp, #24]
    6938:	9300      	str	r3, [sp, #0]
    693a:	9b07      	ldr	r3, [sp, #28]
    693c:	220e      	movs	r2, #14
    693e:	a806      	add	r0, sp, #24
    6940:	4684      	mov	ip, r0
    6942:	4462      	add	r2, ip
    6944:	0038      	movs	r0, r7
    6946:	4f2a      	ldr	r7, [pc, #168]	; (69f0 <usart_init+0x32c>)
    6948:	47b8      	blx	r7
    694a:	e7ea      	b.n	6922 <usart_init+0x25e>
    694c:	7ef3      	ldrb	r3, [r6, #27]
    694e:	2b00      	cmp	r3, #0
    6950:	d100      	bne.n	6954 <usart_init+0x290>
    6952:	e77d      	b.n	6850 <usart_init+0x18c>
    6954:	2380      	movs	r3, #128	; 0x80
    6956:	04db      	lsls	r3, r3, #19
    6958:	431f      	orrs	r7, r3
    695a:	e779      	b.n	6850 <usart_init+0x18c>
    695c:	0020      	movs	r0, r4
    695e:	4b25      	ldr	r3, [pc, #148]	; (69f4 <usart_init+0x330>)
    6960:	4798      	blx	r3
    6962:	e007      	b.n	6974 <usart_init+0x2b0>
    6964:	3701      	adds	r7, #1
    6966:	2f04      	cmp	r7, #4
    6968:	d00d      	beq.n	6986 <usart_init+0x2c2>
    696a:	b2f9      	uxtb	r1, r7
    696c:	00bb      	lsls	r3, r7, #2
    696e:	5998      	ldr	r0, [r3, r6]
    6970:	2800      	cmp	r0, #0
    6972:	d0f3      	beq.n	695c <usart_init+0x298>
    6974:	1c43      	adds	r3, r0, #1
    6976:	d0f5      	beq.n	6964 <usart_init+0x2a0>
    6978:	a90e      	add	r1, sp, #56	; 0x38
    697a:	7008      	strb	r0, [r1, #0]
    697c:	0c00      	lsrs	r0, r0, #16
    697e:	b2c0      	uxtb	r0, r0
    6980:	4b1d      	ldr	r3, [pc, #116]	; (69f8 <usart_init+0x334>)
    6982:	4798      	blx	r3
    6984:	e7ee      	b.n	6964 <usart_init+0x2a0>
    6986:	2300      	movs	r3, #0
    6988:	60eb      	str	r3, [r5, #12]
    698a:	612b      	str	r3, [r5, #16]
    698c:	616b      	str	r3, [r5, #20]
    698e:	61ab      	str	r3, [r5, #24]
    6990:	61eb      	str	r3, [r5, #28]
    6992:	622b      	str	r3, [r5, #32]
    6994:	62ab      	str	r3, [r5, #40]	; 0x28
    6996:	626b      	str	r3, [r5, #36]	; 0x24
    6998:	2200      	movs	r2, #0
    699a:	85eb      	strh	r3, [r5, #46]	; 0x2e
    699c:	85ab      	strh	r3, [r5, #44]	; 0x2c
    699e:	3330      	adds	r3, #48	; 0x30
    69a0:	54ea      	strb	r2, [r5, r3]
    69a2:	3301      	adds	r3, #1
    69a4:	54ea      	strb	r2, [r5, r3]
    69a6:	3301      	adds	r3, #1
    69a8:	54ea      	strb	r2, [r5, r3]
    69aa:	3301      	adds	r3, #1
    69ac:	54ea      	strb	r2, [r5, r3]
    69ae:	6828      	ldr	r0, [r5, #0]
    69b0:	4b07      	ldr	r3, [pc, #28]	; (69d0 <usart_init+0x30c>)
    69b2:	4798      	blx	r3
    69b4:	0004      	movs	r4, r0
    69b6:	4911      	ldr	r1, [pc, #68]	; (69fc <usart_init+0x338>)
    69b8:	4b11      	ldr	r3, [pc, #68]	; (6a00 <usart_init+0x33c>)
    69ba:	4798      	blx	r3
    69bc:	00a4      	lsls	r4, r4, #2
    69be:	4b11      	ldr	r3, [pc, #68]	; (6a04 <usart_init+0x340>)
    69c0:	50e5      	str	r5, [r4, r3]
    69c2:	2000      	movs	r0, #0
    69c4:	e691      	b.n	66ea <usart_init+0x26>
    69c6:	2310      	movs	r3, #16
    69c8:	9306      	str	r3, [sp, #24]
    69ca:	2300      	movs	r3, #0
    69cc:	9307      	str	r3, [sp, #28]
    69ce:	e6e8      	b.n	67a2 <usart_init+0xde>
    69d0:	00007071 	.word	0x00007071
    69d4:	40000400 	.word	0x40000400
    69d8:	000089d5 	.word	0x000089d5
    69dc:	00008949 	.word	0x00008949
    69e0:	00006ead 	.word	0x00006ead
    69e4:	41002000 	.word	0x41002000
    69e8:	000089f1 	.word	0x000089f1
    69ec:	00006def 	.word	0x00006def
    69f0:	00006e19 	.word	0x00006e19
    69f4:	00006ef9 	.word	0x00006ef9
    69f8:	00008acd 	.word	0x00008acd
    69fc:	00006ba1 	.word	0x00006ba1
    6a00:	000070ad 	.word	0x000070ad
    6a04:	200029b4 	.word	0x200029b4

00006a08 <usart_write_wait>:
    6a08:	79c2      	ldrb	r2, [r0, #7]
    6a0a:	231c      	movs	r3, #28
    6a0c:	2a00      	cmp	r2, #0
    6a0e:	d101      	bne.n	6a14 <usart_write_wait+0xc>
    6a10:	0018      	movs	r0, r3
    6a12:	4770      	bx	lr
    6a14:	8dc2      	ldrh	r2, [r0, #46]	; 0x2e
    6a16:	b292      	uxth	r2, r2
    6a18:	3b17      	subs	r3, #23
    6a1a:	2a00      	cmp	r2, #0
    6a1c:	d1f8      	bne.n	6a10 <usart_write_wait+0x8>
    6a1e:	6803      	ldr	r3, [r0, #0]
    6a20:	69da      	ldr	r2, [r3, #28]
    6a22:	2a00      	cmp	r2, #0
    6a24:	d1fc      	bne.n	6a20 <usart_write_wait+0x18>
    6a26:	8519      	strh	r1, [r3, #40]	; 0x28
    6a28:	2102      	movs	r1, #2
    6a2a:	7e1a      	ldrb	r2, [r3, #24]
    6a2c:	420a      	tst	r2, r1
    6a2e:	d0fc      	beq.n	6a2a <usart_write_wait+0x22>
    6a30:	2300      	movs	r3, #0
    6a32:	e7ed      	b.n	6a10 <usart_write_wait+0x8>

00006a34 <usart_write_buffer_wait>:
    6a34:	b5f0      	push	{r4, r5, r6, r7, lr}
    6a36:	46ce      	mov	lr, r9
    6a38:	4647      	mov	r7, r8
    6a3a:	b580      	push	{r7, lr}
    6a3c:	b083      	sub	sp, #12
    6a3e:	0005      	movs	r5, r0
    6a40:	9101      	str	r1, [sp, #4]
    6a42:	2017      	movs	r0, #23
    6a44:	2a00      	cmp	r2, #0
    6a46:	d104      	bne.n	6a52 <usart_write_buffer_wait+0x1e>
    6a48:	b003      	add	sp, #12
    6a4a:	bc0c      	pop	{r2, r3}
    6a4c:	4690      	mov	r8, r2
    6a4e:	4699      	mov	r9, r3
    6a50:	bdf0      	pop	{r4, r5, r6, r7, pc}
    6a52:	79eb      	ldrb	r3, [r5, #7]
    6a54:	3005      	adds	r0, #5
    6a56:	2b00      	cmp	r3, #0
    6a58:	d0f6      	beq.n	6a48 <usart_write_buffer_wait+0x14>
    6a5a:	682c      	ldr	r4, [r5, #0]
    6a5c:	69e3      	ldr	r3, [r4, #28]
    6a5e:	2b00      	cmp	r3, #0
    6a60:	d1fc      	bne.n	6a5c <usart_write_buffer_wait+0x28>
    6a62:	3a01      	subs	r2, #1
    6a64:	b293      	uxth	r3, r2
    6a66:	4699      	mov	r9, r3
    6a68:	2600      	movs	r6, #0
    6a6a:	2701      	movs	r7, #1
    6a6c:	4b1f      	ldr	r3, [pc, #124]	; (6aec <usart_write_buffer_wait+0xb8>)
    6a6e:	4698      	mov	r8, r3
    6a70:	e011      	b.n	6a96 <usart_write_buffer_wait+0x62>
    6a72:	1c73      	adds	r3, r6, #1
    6a74:	b29b      	uxth	r3, r3
    6a76:	9a01      	ldr	r2, [sp, #4]
    6a78:	5d91      	ldrb	r1, [r2, r6]
    6a7a:	796a      	ldrb	r2, [r5, #5]
    6a7c:	2a01      	cmp	r2, #1
    6a7e:	d017      	beq.n	6ab0 <usart_write_buffer_wait+0x7c>
    6a80:	b289      	uxth	r1, r1
    6a82:	001e      	movs	r6, r3
    6a84:	0028      	movs	r0, r5
    6a86:	4b1a      	ldr	r3, [pc, #104]	; (6af0 <usart_write_buffer_wait+0xbc>)
    6a88:	4798      	blx	r3
    6a8a:	464b      	mov	r3, r9
    6a8c:	3b01      	subs	r3, #1
    6a8e:	b29b      	uxth	r3, r3
    6a90:	4699      	mov	r9, r3
    6a92:	4543      	cmp	r3, r8
    6a94:	d013      	beq.n	6abe <usart_write_buffer_wait+0x8a>
    6a96:	7e23      	ldrb	r3, [r4, #24]
    6a98:	423b      	tst	r3, r7
    6a9a:	d1ea      	bne.n	6a72 <usart_write_buffer_wait+0x3e>
    6a9c:	4b13      	ldr	r3, [pc, #76]	; (6aec <usart_write_buffer_wait+0xb8>)
    6a9e:	7e22      	ldrb	r2, [r4, #24]
    6aa0:	423a      	tst	r2, r7
    6aa2:	d1e6      	bne.n	6a72 <usart_write_buffer_wait+0x3e>
    6aa4:	2b01      	cmp	r3, #1
    6aa6:	d019      	beq.n	6adc <usart_write_buffer_wait+0xa8>
    6aa8:	3b01      	subs	r3, #1
    6aaa:	2b00      	cmp	r3, #0
    6aac:	d1f7      	bne.n	6a9e <usart_write_buffer_wait+0x6a>
    6aae:	e7e0      	b.n	6a72 <usart_write_buffer_wait+0x3e>
    6ab0:	3602      	adds	r6, #2
    6ab2:	b2b6      	uxth	r6, r6
    6ab4:	9a01      	ldr	r2, [sp, #4]
    6ab6:	5cd3      	ldrb	r3, [r2, r3]
    6ab8:	021b      	lsls	r3, r3, #8
    6aba:	4319      	orrs	r1, r3
    6abc:	e7e2      	b.n	6a84 <usart_write_buffer_wait+0x50>
    6abe:	7e23      	ldrb	r3, [r4, #24]
    6ac0:	079b      	lsls	r3, r3, #30
    6ac2:	d40d      	bmi.n	6ae0 <usart_write_buffer_wait+0xac>
    6ac4:	4b09      	ldr	r3, [pc, #36]	; (6aec <usart_write_buffer_wait+0xb8>)
    6ac6:	2102      	movs	r1, #2
    6ac8:	7e22      	ldrb	r2, [r4, #24]
    6aca:	420a      	tst	r2, r1
    6acc:	d10a      	bne.n	6ae4 <usart_write_buffer_wait+0xb0>
    6ace:	2b01      	cmp	r3, #1
    6ad0:	d00a      	beq.n	6ae8 <usart_write_buffer_wait+0xb4>
    6ad2:	3b01      	subs	r3, #1
    6ad4:	2b00      	cmp	r3, #0
    6ad6:	d1f7      	bne.n	6ac8 <usart_write_buffer_wait+0x94>
    6ad8:	2000      	movs	r0, #0
    6ada:	e7b5      	b.n	6a48 <usart_write_buffer_wait+0x14>
    6adc:	2012      	movs	r0, #18
    6ade:	e7b3      	b.n	6a48 <usart_write_buffer_wait+0x14>
    6ae0:	2000      	movs	r0, #0
    6ae2:	e7b1      	b.n	6a48 <usart_write_buffer_wait+0x14>
    6ae4:	2000      	movs	r0, #0
    6ae6:	e7af      	b.n	6a48 <usart_write_buffer_wait+0x14>
    6ae8:	2012      	movs	r0, #18
    6aea:	e7ad      	b.n	6a48 <usart_write_buffer_wait+0x14>
    6aec:	0000ffff 	.word	0x0000ffff
    6af0:	00006a09 	.word	0x00006a09

00006af4 <_usart_read_buffer>:
    6af4:	b5f8      	push	{r3, r4, r5, r6, r7, lr}
    6af6:	0004      	movs	r4, r0
    6af8:	000d      	movs	r5, r1
    6afa:	0016      	movs	r6, r2
    6afc:	6807      	ldr	r7, [r0, #0]
    6afe:	4b0f      	ldr	r3, [pc, #60]	; (6b3c <_usart_read_buffer+0x48>)
    6b00:	4798      	blx	r3
    6b02:	8da3      	ldrh	r3, [r4, #44]	; 0x2c
    6b04:	b29b      	uxth	r3, r3
    6b06:	2b00      	cmp	r3, #0
    6b08:	d003      	beq.n	6b12 <_usart_read_buffer+0x1e>
    6b0a:	4b0d      	ldr	r3, [pc, #52]	; (6b40 <_usart_read_buffer+0x4c>)
    6b0c:	4798      	blx	r3
    6b0e:	2005      	movs	r0, #5
    6b10:	bdf8      	pop	{r3, r4, r5, r6, r7, pc}
    6b12:	85a6      	strh	r6, [r4, #44]	; 0x2c
    6b14:	4b0a      	ldr	r3, [pc, #40]	; (6b40 <_usart_read_buffer+0x4c>)
    6b16:	4798      	blx	r3
    6b18:	6265      	str	r5, [r4, #36]	; 0x24
    6b1a:	2205      	movs	r2, #5
    6b1c:	2332      	movs	r3, #50	; 0x32
    6b1e:	54e2      	strb	r2, [r4, r3]
    6b20:	3b2e      	subs	r3, #46	; 0x2e
    6b22:	75bb      	strb	r3, [r7, #22]
    6b24:	7a23      	ldrb	r3, [r4, #8]
    6b26:	2b00      	cmp	r3, #0
    6b28:	d001      	beq.n	6b2e <_usart_read_buffer+0x3a>
    6b2a:	2320      	movs	r3, #32
    6b2c:	75bb      	strb	r3, [r7, #22]
    6b2e:	7a63      	ldrb	r3, [r4, #9]
    6b30:	2000      	movs	r0, #0
    6b32:	2b00      	cmp	r3, #0
    6b34:	d0ec      	beq.n	6b10 <_usart_read_buffer+0x1c>
    6b36:	2308      	movs	r3, #8
    6b38:	75bb      	strb	r3, [r7, #22]
    6b3a:	e7e9      	b.n	6b10 <_usart_read_buffer+0x1c>
    6b3c:	000082b9 	.word	0x000082b9
    6b40:	000082f9 	.word	0x000082f9

00006b44 <usart_read_buffer_job>:
    6b44:	b510      	push	{r4, lr}
    6b46:	2317      	movs	r3, #23
    6b48:	2a00      	cmp	r2, #0
    6b4a:	d101      	bne.n	6b50 <usart_read_buffer_job+0xc>
    6b4c:	0018      	movs	r0, r3
    6b4e:	bd10      	pop	{r4, pc}
    6b50:	7984      	ldrb	r4, [r0, #6]
    6b52:	3305      	adds	r3, #5
    6b54:	2c00      	cmp	r4, #0
    6b56:	d0f9      	beq.n	6b4c <usart_read_buffer_job+0x8>
    6b58:	4b01      	ldr	r3, [pc, #4]	; (6b60 <usart_read_buffer_job+0x1c>)
    6b5a:	4798      	blx	r3
    6b5c:	0003      	movs	r3, r0
    6b5e:	e7f5      	b.n	6b4c <usart_read_buffer_job+0x8>
    6b60:	00006af5 	.word	0x00006af5

00006b64 <usart_abort_job>:
    6b64:	6803      	ldr	r3, [r0, #0]
    6b66:	2900      	cmp	r1, #0
    6b68:	d002      	beq.n	6b70 <usart_abort_job+0xc>
    6b6a:	2901      	cmp	r1, #1
    6b6c:	d005      	beq.n	6b7a <usart_abort_job+0x16>
    6b6e:	4770      	bx	lr
    6b70:	2204      	movs	r2, #4
    6b72:	761a      	strb	r2, [r3, #24]
    6b74:	2300      	movs	r3, #0
    6b76:	8583      	strh	r3, [r0, #44]	; 0x2c
    6b78:	e7f9      	b.n	6b6e <usart_abort_job+0xa>
    6b7a:	2202      	movs	r2, #2
    6b7c:	761a      	strb	r2, [r3, #24]
    6b7e:	2300      	movs	r3, #0
    6b80:	85c3      	strh	r3, [r0, #46]	; 0x2e
    6b82:	e7f4      	b.n	6b6e <usart_abort_job+0xa>

00006b84 <usart_get_job_status>:
    6b84:	2900      	cmp	r1, #0
    6b86:	d003      	beq.n	6b90 <usart_get_job_status+0xc>
    6b88:	2901      	cmp	r1, #1
    6b8a:	d005      	beq.n	6b98 <usart_get_job_status+0x14>
    6b8c:	2017      	movs	r0, #23
    6b8e:	e002      	b.n	6b96 <usart_get_job_status+0x12>
    6b90:	2332      	movs	r3, #50	; 0x32
    6b92:	5cc0      	ldrb	r0, [r0, r3]
    6b94:	b2c0      	uxtb	r0, r0
    6b96:	4770      	bx	lr
    6b98:	2333      	movs	r3, #51	; 0x33
    6b9a:	5cc0      	ldrb	r0, [r0, r3]
    6b9c:	b2c0      	uxtb	r0, r0
    6b9e:	e7fa      	b.n	6b96 <usart_get_job_status+0x12>

00006ba0 <_usart_interrupt_handler>:
    6ba0:	b5f8      	push	{r3, r4, r5, r6, r7, lr}
    6ba2:	0080      	lsls	r0, r0, #2
    6ba4:	4b62      	ldr	r3, [pc, #392]	; (6d30 <_usart_interrupt_handler+0x190>)
    6ba6:	58c5      	ldr	r5, [r0, r3]
    6ba8:	682c      	ldr	r4, [r5, #0]
    6baa:	69e3      	ldr	r3, [r4, #28]
    6bac:	2b00      	cmp	r3, #0
    6bae:	d1fc      	bne.n	6baa <_usart_interrupt_handler+0xa>
    6bb0:	7e23      	ldrb	r3, [r4, #24]
    6bb2:	7da6      	ldrb	r6, [r4, #22]
    6bb4:	401e      	ands	r6, r3
    6bb6:	2330      	movs	r3, #48	; 0x30
    6bb8:	5ceb      	ldrb	r3, [r5, r3]
    6bba:	2231      	movs	r2, #49	; 0x31
    6bbc:	5caf      	ldrb	r7, [r5, r2]
    6bbe:	401f      	ands	r7, r3
    6bc0:	07f3      	lsls	r3, r6, #31
    6bc2:	d522      	bpl.n	6c0a <_usart_interrupt_handler+0x6a>
    6bc4:	8deb      	ldrh	r3, [r5, #46]	; 0x2e
    6bc6:	b29b      	uxth	r3, r3
    6bc8:	2b00      	cmp	r3, #0
    6bca:	d01c      	beq.n	6c06 <_usart_interrupt_handler+0x66>
    6bcc:	6aaa      	ldr	r2, [r5, #40]	; 0x28
    6bce:	7813      	ldrb	r3, [r2, #0]
    6bd0:	b2db      	uxtb	r3, r3
    6bd2:	1c51      	adds	r1, r2, #1
    6bd4:	62a9      	str	r1, [r5, #40]	; 0x28
    6bd6:	7969      	ldrb	r1, [r5, #5]
    6bd8:	2901      	cmp	r1, #1
    6bda:	d00e      	beq.n	6bfa <_usart_interrupt_handler+0x5a>
    6bdc:	b29b      	uxth	r3, r3
    6bde:	05db      	lsls	r3, r3, #23
    6be0:	0ddb      	lsrs	r3, r3, #23
    6be2:	8523      	strh	r3, [r4, #40]	; 0x28
    6be4:	8deb      	ldrh	r3, [r5, #46]	; 0x2e
    6be6:	3b01      	subs	r3, #1
    6be8:	b29b      	uxth	r3, r3
    6bea:	85eb      	strh	r3, [r5, #46]	; 0x2e
    6bec:	2b00      	cmp	r3, #0
    6bee:	d10c      	bne.n	6c0a <_usart_interrupt_handler+0x6a>
    6bf0:	3301      	adds	r3, #1
    6bf2:	7523      	strb	r3, [r4, #20]
    6bf4:	3301      	adds	r3, #1
    6bf6:	75a3      	strb	r3, [r4, #22]
    6bf8:	e007      	b.n	6c0a <_usart_interrupt_handler+0x6a>
    6bfa:	7851      	ldrb	r1, [r2, #1]
    6bfc:	0209      	lsls	r1, r1, #8
    6bfe:	430b      	orrs	r3, r1
    6c00:	3202      	adds	r2, #2
    6c02:	62aa      	str	r2, [r5, #40]	; 0x28
    6c04:	e7eb      	b.n	6bde <_usart_interrupt_handler+0x3e>
    6c06:	2301      	movs	r3, #1
    6c08:	7523      	strb	r3, [r4, #20]
    6c0a:	07b3      	lsls	r3, r6, #30
    6c0c:	d506      	bpl.n	6c1c <_usart_interrupt_handler+0x7c>
    6c0e:	2302      	movs	r3, #2
    6c10:	7523      	strb	r3, [r4, #20]
    6c12:	2200      	movs	r2, #0
    6c14:	3331      	adds	r3, #49	; 0x31
    6c16:	54ea      	strb	r2, [r5, r3]
    6c18:	07fb      	lsls	r3, r7, #31
    6c1a:	d41a      	bmi.n	6c52 <_usart_interrupt_handler+0xb2>
    6c1c:	0773      	lsls	r3, r6, #29
    6c1e:	d565      	bpl.n	6cec <_usart_interrupt_handler+0x14c>
    6c20:	8dab      	ldrh	r3, [r5, #44]	; 0x2c
    6c22:	b29b      	uxth	r3, r3
    6c24:	2b00      	cmp	r3, #0
    6c26:	d05f      	beq.n	6ce8 <_usart_interrupt_handler+0x148>
    6c28:	8b63      	ldrh	r3, [r4, #26]
    6c2a:	b2db      	uxtb	r3, r3
    6c2c:	071a      	lsls	r2, r3, #28
    6c2e:	d414      	bmi.n	6c5a <_usart_interrupt_handler+0xba>
    6c30:	223f      	movs	r2, #63	; 0x3f
    6c32:	4013      	ands	r3, r2
    6c34:	2b00      	cmp	r3, #0
    6c36:	d034      	beq.n	6ca2 <_usart_interrupt_handler+0x102>
    6c38:	079a      	lsls	r2, r3, #30
    6c3a:	d511      	bpl.n	6c60 <_usart_interrupt_handler+0xc0>
    6c3c:	221a      	movs	r2, #26
    6c3e:	2332      	movs	r3, #50	; 0x32
    6c40:	54ea      	strb	r2, [r5, r3]
    6c42:	3b30      	subs	r3, #48	; 0x30
    6c44:	8363      	strh	r3, [r4, #26]
    6c46:	077b      	lsls	r3, r7, #29
    6c48:	d550      	bpl.n	6cec <_usart_interrupt_handler+0x14c>
    6c4a:	0028      	movs	r0, r5
    6c4c:	696b      	ldr	r3, [r5, #20]
    6c4e:	4798      	blx	r3
    6c50:	e04c      	b.n	6cec <_usart_interrupt_handler+0x14c>
    6c52:	0028      	movs	r0, r5
    6c54:	68eb      	ldr	r3, [r5, #12]
    6c56:	4798      	blx	r3
    6c58:	e7e0      	b.n	6c1c <_usart_interrupt_handler+0x7c>
    6c5a:	2237      	movs	r2, #55	; 0x37
    6c5c:	4013      	ands	r3, r2
    6c5e:	e7e9      	b.n	6c34 <_usart_interrupt_handler+0x94>
    6c60:	075a      	lsls	r2, r3, #29
    6c62:	d505      	bpl.n	6c70 <_usart_interrupt_handler+0xd0>
    6c64:	221e      	movs	r2, #30
    6c66:	2332      	movs	r3, #50	; 0x32
    6c68:	54ea      	strb	r2, [r5, r3]
    6c6a:	3b2e      	subs	r3, #46	; 0x2e
    6c6c:	8363      	strh	r3, [r4, #26]
    6c6e:	e7ea      	b.n	6c46 <_usart_interrupt_handler+0xa6>
    6c70:	07da      	lsls	r2, r3, #31
    6c72:	d505      	bpl.n	6c80 <_usart_interrupt_handler+0xe0>
    6c74:	2213      	movs	r2, #19
    6c76:	2332      	movs	r3, #50	; 0x32
    6c78:	54ea      	strb	r2, [r5, r3]
    6c7a:	3b31      	subs	r3, #49	; 0x31
    6c7c:	8363      	strh	r3, [r4, #26]
    6c7e:	e7e2      	b.n	6c46 <_usart_interrupt_handler+0xa6>
    6c80:	06da      	lsls	r2, r3, #27
    6c82:	d505      	bpl.n	6c90 <_usart_interrupt_handler+0xf0>
    6c84:	2242      	movs	r2, #66	; 0x42
    6c86:	2332      	movs	r3, #50	; 0x32
    6c88:	54ea      	strb	r2, [r5, r3]
    6c8a:	3b22      	subs	r3, #34	; 0x22
    6c8c:	8363      	strh	r3, [r4, #26]
    6c8e:	e7da      	b.n	6c46 <_usart_interrupt_handler+0xa6>
    6c90:	2220      	movs	r2, #32
    6c92:	421a      	tst	r2, r3
    6c94:	d0d7      	beq.n	6c46 <_usart_interrupt_handler+0xa6>
    6c96:	3221      	adds	r2, #33	; 0x21
    6c98:	2332      	movs	r3, #50	; 0x32
    6c9a:	54ea      	strb	r2, [r5, r3]
    6c9c:	3b12      	subs	r3, #18
    6c9e:	8363      	strh	r3, [r4, #26]
    6ca0:	e7d1      	b.n	6c46 <_usart_interrupt_handler+0xa6>
    6ca2:	8d23      	ldrh	r3, [r4, #40]	; 0x28
    6ca4:	05db      	lsls	r3, r3, #23
    6ca6:	0ddb      	lsrs	r3, r3, #23
    6ca8:	b2da      	uxtb	r2, r3
    6caa:	6a69      	ldr	r1, [r5, #36]	; 0x24
    6cac:	700a      	strb	r2, [r1, #0]
    6cae:	6a6a      	ldr	r2, [r5, #36]	; 0x24
    6cb0:	1c51      	adds	r1, r2, #1
    6cb2:	6269      	str	r1, [r5, #36]	; 0x24
    6cb4:	7969      	ldrb	r1, [r5, #5]
    6cb6:	2901      	cmp	r1, #1
    6cb8:	d010      	beq.n	6cdc <_usart_interrupt_handler+0x13c>
    6cba:	8dab      	ldrh	r3, [r5, #44]	; 0x2c
    6cbc:	3b01      	subs	r3, #1
    6cbe:	b29b      	uxth	r3, r3
    6cc0:	85ab      	strh	r3, [r5, #44]	; 0x2c
    6cc2:	2b00      	cmp	r3, #0
    6cc4:	d112      	bne.n	6cec <_usart_interrupt_handler+0x14c>
    6cc6:	3304      	adds	r3, #4
    6cc8:	7523      	strb	r3, [r4, #20]
    6cca:	2200      	movs	r2, #0
    6ccc:	332e      	adds	r3, #46	; 0x2e
    6cce:	54ea      	strb	r2, [r5, r3]
    6cd0:	07bb      	lsls	r3, r7, #30
    6cd2:	d50b      	bpl.n	6cec <_usart_interrupt_handler+0x14c>
    6cd4:	0028      	movs	r0, r5
    6cd6:	692b      	ldr	r3, [r5, #16]
    6cd8:	4798      	blx	r3
    6cda:	e007      	b.n	6cec <_usart_interrupt_handler+0x14c>
    6cdc:	0a1b      	lsrs	r3, r3, #8
    6cde:	7053      	strb	r3, [r2, #1]
    6ce0:	6a6b      	ldr	r3, [r5, #36]	; 0x24
    6ce2:	3301      	adds	r3, #1
    6ce4:	626b      	str	r3, [r5, #36]	; 0x24
    6ce6:	e7e8      	b.n	6cba <_usart_interrupt_handler+0x11a>
    6ce8:	2304      	movs	r3, #4
    6cea:	7523      	strb	r3, [r4, #20]
    6cec:	06f3      	lsls	r3, r6, #27
    6cee:	d504      	bpl.n	6cfa <_usart_interrupt_handler+0x15a>
    6cf0:	2310      	movs	r3, #16
    6cf2:	7523      	strb	r3, [r4, #20]
    6cf4:	7623      	strb	r3, [r4, #24]
    6cf6:	06fb      	lsls	r3, r7, #27
    6cf8:	d40e      	bmi.n	6d18 <_usart_interrupt_handler+0x178>
    6cfa:	06b3      	lsls	r3, r6, #26
    6cfc:	d504      	bpl.n	6d08 <_usart_interrupt_handler+0x168>
    6cfe:	2320      	movs	r3, #32
    6d00:	7523      	strb	r3, [r4, #20]
    6d02:	7623      	strb	r3, [r4, #24]
    6d04:	073b      	lsls	r3, r7, #28
    6d06:	d40b      	bmi.n	6d20 <_usart_interrupt_handler+0x180>
    6d08:	0733      	lsls	r3, r6, #28
    6d0a:	d504      	bpl.n	6d16 <_usart_interrupt_handler+0x176>
    6d0c:	2308      	movs	r3, #8
    6d0e:	7523      	strb	r3, [r4, #20]
    6d10:	7623      	strb	r3, [r4, #24]
    6d12:	06bb      	lsls	r3, r7, #26
    6d14:	d408      	bmi.n	6d28 <_usart_interrupt_handler+0x188>
    6d16:	bdf8      	pop	{r3, r4, r5, r6, r7, pc}
    6d18:	0028      	movs	r0, r5
    6d1a:	69eb      	ldr	r3, [r5, #28]
    6d1c:	4798      	blx	r3
    6d1e:	e7ec      	b.n	6cfa <_usart_interrupt_handler+0x15a>
    6d20:	0028      	movs	r0, r5
    6d22:	69ab      	ldr	r3, [r5, #24]
    6d24:	4798      	blx	r3
    6d26:	e7ef      	b.n	6d08 <_usart_interrupt_handler+0x168>
    6d28:	6a2b      	ldr	r3, [r5, #32]
    6d2a:	0028      	movs	r0, r5
    6d2c:	4798      	blx	r3
    6d2e:	e7f2      	b.n	6d16 <_usart_interrupt_handler+0x176>
    6d30:	200029b4 	.word	0x200029b4

00006d34 <long_division>:
    6d34:	b5f0      	push	{r4, r5, r6, r7, lr}
    6d36:	46de      	mov	lr, fp
    6d38:	4657      	mov	r7, sl
    6d3a:	464e      	mov	r6, r9
    6d3c:	4645      	mov	r5, r8
    6d3e:	b5e0      	push	{r5, r6, r7, lr}
    6d40:	b087      	sub	sp, #28
    6d42:	4680      	mov	r8, r0
    6d44:	9104      	str	r1, [sp, #16]
    6d46:	0016      	movs	r6, r2
    6d48:	001f      	movs	r7, r3
    6d4a:	2200      	movs	r2, #0
    6d4c:	2300      	movs	r3, #0
    6d4e:	2100      	movs	r1, #0
    6d50:	468b      	mov	fp, r1
    6d52:	243f      	movs	r4, #63	; 0x3f
    6d54:	2001      	movs	r0, #1
    6d56:	0021      	movs	r1, r4
    6d58:	9600      	str	r6, [sp, #0]
    6d5a:	9701      	str	r7, [sp, #4]
    6d5c:	465c      	mov	r4, fp
    6d5e:	9403      	str	r4, [sp, #12]
    6d60:	4644      	mov	r4, r8
    6d62:	9405      	str	r4, [sp, #20]
    6d64:	e013      	b.n	6d8e <long_division+0x5a>
    6d66:	2420      	movs	r4, #32
    6d68:	1a64      	subs	r4, r4, r1
    6d6a:	0005      	movs	r5, r0
    6d6c:	40e5      	lsrs	r5, r4
    6d6e:	46a8      	mov	r8, r5
    6d70:	e014      	b.n	6d9c <long_division+0x68>
    6d72:	9c00      	ldr	r4, [sp, #0]
    6d74:	9d01      	ldr	r5, [sp, #4]
    6d76:	1b12      	subs	r2, r2, r4
    6d78:	41ab      	sbcs	r3, r5
    6d7a:	465c      	mov	r4, fp
    6d7c:	464d      	mov	r5, r9
    6d7e:	432c      	orrs	r4, r5
    6d80:	46a3      	mov	fp, r4
    6d82:	9c03      	ldr	r4, [sp, #12]
    6d84:	4645      	mov	r5, r8
    6d86:	432c      	orrs	r4, r5
    6d88:	9403      	str	r4, [sp, #12]
    6d8a:	3901      	subs	r1, #1
    6d8c:	d325      	bcc.n	6dda <long_division+0xa6>
    6d8e:	2420      	movs	r4, #32
    6d90:	4264      	negs	r4, r4
    6d92:	190c      	adds	r4, r1, r4
    6d94:	d4e7      	bmi.n	6d66 <long_division+0x32>
    6d96:	0005      	movs	r5, r0
    6d98:	40a5      	lsls	r5, r4
    6d9a:	46a8      	mov	r8, r5
    6d9c:	0004      	movs	r4, r0
    6d9e:	408c      	lsls	r4, r1
    6da0:	46a1      	mov	r9, r4
    6da2:	1892      	adds	r2, r2, r2
    6da4:	415b      	adcs	r3, r3
    6da6:	0014      	movs	r4, r2
    6da8:	001d      	movs	r5, r3
    6daa:	9e05      	ldr	r6, [sp, #20]
    6dac:	464f      	mov	r7, r9
    6dae:	403e      	ands	r6, r7
    6db0:	46b4      	mov	ip, r6
    6db2:	9e04      	ldr	r6, [sp, #16]
    6db4:	4647      	mov	r7, r8
    6db6:	403e      	ands	r6, r7
    6db8:	46b2      	mov	sl, r6
    6dba:	4666      	mov	r6, ip
    6dbc:	4657      	mov	r7, sl
    6dbe:	433e      	orrs	r6, r7
    6dc0:	d003      	beq.n	6dca <long_division+0x96>
    6dc2:	0006      	movs	r6, r0
    6dc4:	4326      	orrs	r6, r4
    6dc6:	0032      	movs	r2, r6
    6dc8:	002b      	movs	r3, r5
    6dca:	9c00      	ldr	r4, [sp, #0]
    6dcc:	9d01      	ldr	r5, [sp, #4]
    6dce:	429d      	cmp	r5, r3
    6dd0:	d8db      	bhi.n	6d8a <long_division+0x56>
    6dd2:	d1ce      	bne.n	6d72 <long_division+0x3e>
    6dd4:	4294      	cmp	r4, r2
    6dd6:	d8d8      	bhi.n	6d8a <long_division+0x56>
    6dd8:	e7cb      	b.n	6d72 <long_division+0x3e>
    6dda:	9b03      	ldr	r3, [sp, #12]
    6ddc:	4658      	mov	r0, fp
    6dde:	0019      	movs	r1, r3
    6de0:	b007      	add	sp, #28
    6de2:	bc3c      	pop	{r2, r3, r4, r5}
    6de4:	4690      	mov	r8, r2
    6de6:	4699      	mov	r9, r3
    6de8:	46a2      	mov	sl, r4
    6dea:	46ab      	mov	fp, r5
    6dec:	bdf0      	pop	{r4, r5, r6, r7, pc}

00006dee <_sercom_get_sync_baud_val>:
    6dee:	b510      	push	{r4, lr}
    6df0:	0849      	lsrs	r1, r1, #1
    6df2:	2340      	movs	r3, #64	; 0x40
    6df4:	2400      	movs	r4, #0
    6df6:	4281      	cmp	r1, r0
    6df8:	d202      	bcs.n	6e00 <_sercom_get_sync_baud_val+0x12>
    6dfa:	0018      	movs	r0, r3
    6dfc:	bd10      	pop	{r4, pc}
    6dfe:	001c      	movs	r4, r3
    6e00:	1a09      	subs	r1, r1, r0
    6e02:	1c63      	adds	r3, r4, #1
    6e04:	b29b      	uxth	r3, r3
    6e06:	4288      	cmp	r0, r1
    6e08:	d9f9      	bls.n	6dfe <_sercom_get_sync_baud_val+0x10>
    6e0a:	2340      	movs	r3, #64	; 0x40
    6e0c:	2cff      	cmp	r4, #255	; 0xff
    6e0e:	d8f4      	bhi.n	6dfa <_sercom_get_sync_baud_val+0xc>
    6e10:	8014      	strh	r4, [r2, #0]
    6e12:	2300      	movs	r3, #0
    6e14:	e7f1      	b.n	6dfa <_sercom_get_sync_baud_val+0xc>
	...

00006e18 <_sercom_get_async_baud_val>:
    6e18:	b5f0      	push	{r4, r5, r6, r7, lr}
    6e1a:	b083      	sub	sp, #12
    6e1c:	000f      	movs	r7, r1
    6e1e:	0016      	movs	r6, r2
    6e20:	aa08      	add	r2, sp, #32
    6e22:	7811      	ldrb	r1, [r2, #0]
    6e24:	0004      	movs	r4, r0
    6e26:	434c      	muls	r4, r1
    6e28:	2240      	movs	r2, #64	; 0x40
    6e2a:	42bc      	cmp	r4, r7
    6e2c:	d902      	bls.n	6e34 <_sercom_get_async_baud_val+0x1c>
    6e2e:	0010      	movs	r0, r2
    6e30:	b003      	add	sp, #12
    6e32:	bdf0      	pop	{r4, r5, r6, r7, pc}
    6e34:	2b00      	cmp	r3, #0
    6e36:	d114      	bne.n	6e62 <_sercom_get_async_baud_val+0x4a>
    6e38:	0002      	movs	r2, r0
    6e3a:	0008      	movs	r0, r1
    6e3c:	2100      	movs	r1, #0
    6e3e:	4c19      	ldr	r4, [pc, #100]	; (6ea4 <_sercom_get_async_baud_val+0x8c>)
    6e40:	47a0      	blx	r4
    6e42:	0001      	movs	r1, r0
    6e44:	003a      	movs	r2, r7
    6e46:	2300      	movs	r3, #0
    6e48:	2000      	movs	r0, #0
    6e4a:	4c17      	ldr	r4, [pc, #92]	; (6ea8 <_sercom_get_async_baud_val+0x90>)
    6e4c:	47a0      	blx	r4
    6e4e:	2200      	movs	r2, #0
    6e50:	2301      	movs	r3, #1
    6e52:	1a12      	subs	r2, r2, r0
    6e54:	418b      	sbcs	r3, r1
    6e56:	0c12      	lsrs	r2, r2, #16
    6e58:	041b      	lsls	r3, r3, #16
    6e5a:	431a      	orrs	r2, r3
    6e5c:	8032      	strh	r2, [r6, #0]
    6e5e:	2200      	movs	r2, #0
    6e60:	e7e5      	b.n	6e2e <_sercom_get_async_baud_val+0x16>
    6e62:	2200      	movs	r2, #0
    6e64:	2b01      	cmp	r3, #1
    6e66:	d1f9      	bne.n	6e5c <_sercom_get_async_baud_val+0x44>
    6e68:	000a      	movs	r2, r1
    6e6a:	2300      	movs	r3, #0
    6e6c:	2100      	movs	r1, #0
    6e6e:	4c0d      	ldr	r4, [pc, #52]	; (6ea4 <_sercom_get_async_baud_val+0x8c>)
    6e70:	47a0      	blx	r4
    6e72:	0002      	movs	r2, r0
    6e74:	000b      	movs	r3, r1
    6e76:	9200      	str	r2, [sp, #0]
    6e78:	9301      	str	r3, [sp, #4]
    6e7a:	0038      	movs	r0, r7
    6e7c:	2100      	movs	r1, #0
    6e7e:	4c0a      	ldr	r4, [pc, #40]	; (6ea8 <_sercom_get_async_baud_val+0x90>)
    6e80:	47a0      	blx	r4
    6e82:	0005      	movs	r5, r0
    6e84:	2380      	movs	r3, #128	; 0x80
    6e86:	019b      	lsls	r3, r3, #6
    6e88:	2240      	movs	r2, #64	; 0x40
    6e8a:	4298      	cmp	r0, r3
    6e8c:	d8cf      	bhi.n	6e2e <_sercom_get_async_baud_val+0x16>
    6e8e:	0f79      	lsrs	r1, r7, #29
    6e90:	00f8      	lsls	r0, r7, #3
    6e92:	9a00      	ldr	r2, [sp, #0]
    6e94:	9b01      	ldr	r3, [sp, #4]
    6e96:	47a0      	blx	r4
    6e98:	00ea      	lsls	r2, r5, #3
    6e9a:	1a82      	subs	r2, r0, r2
    6e9c:	b2d2      	uxtb	r2, r2
    6e9e:	0352      	lsls	r2, r2, #13
    6ea0:	432a      	orrs	r2, r5
    6ea2:	e7db      	b.n	6e5c <_sercom_get_async_baud_val+0x44>
    6ea4:	00009379 	.word	0x00009379
    6ea8:	00006d35 	.word	0x00006d35

00006eac <sercom_set_gclk_generator>:
    6eac:	b510      	push	{r4, lr}
    6eae:	b082      	sub	sp, #8
    6eb0:	0004      	movs	r4, r0
    6eb2:	4b0e      	ldr	r3, [pc, #56]	; (6eec <sercom_set_gclk_generator+0x40>)
    6eb4:	781b      	ldrb	r3, [r3, #0]
    6eb6:	2b00      	cmp	r3, #0
    6eb8:	d007      	beq.n	6eca <sercom_set_gclk_generator+0x1e>
    6eba:	2900      	cmp	r1, #0
    6ebc:	d105      	bne.n	6eca <sercom_set_gclk_generator+0x1e>
    6ebe:	4b0b      	ldr	r3, [pc, #44]	; (6eec <sercom_set_gclk_generator+0x40>)
    6ec0:	785b      	ldrb	r3, [r3, #1]
    6ec2:	4283      	cmp	r3, r0
    6ec4:	d010      	beq.n	6ee8 <sercom_set_gclk_generator+0x3c>
    6ec6:	201d      	movs	r0, #29
    6ec8:	e00c      	b.n	6ee4 <sercom_set_gclk_generator+0x38>
    6eca:	a901      	add	r1, sp, #4
    6ecc:	700c      	strb	r4, [r1, #0]
    6ece:	2013      	movs	r0, #19
    6ed0:	4b07      	ldr	r3, [pc, #28]	; (6ef0 <sercom_set_gclk_generator+0x44>)
    6ed2:	4798      	blx	r3
    6ed4:	2013      	movs	r0, #19
    6ed6:	4b07      	ldr	r3, [pc, #28]	; (6ef4 <sercom_set_gclk_generator+0x48>)
    6ed8:	4798      	blx	r3
    6eda:	4b04      	ldr	r3, [pc, #16]	; (6eec <sercom_set_gclk_generator+0x40>)
    6edc:	705c      	strb	r4, [r3, #1]
    6ede:	2201      	movs	r2, #1
    6ee0:	701a      	strb	r2, [r3, #0]
    6ee2:	2000      	movs	r0, #0
    6ee4:	b002      	add	sp, #8
    6ee6:	bd10      	pop	{r4, pc}
    6ee8:	2000      	movs	r0, #0
    6eea:	e7fb      	b.n	6ee4 <sercom_set_gclk_generator+0x38>
    6eec:	20000f24 	.word	0x20000f24
    6ef0:	000089d5 	.word	0x000089d5
    6ef4:	00008949 	.word	0x00008949

00006ef8 <_sercom_get_default_pad>:
    6ef8:	4b40      	ldr	r3, [pc, #256]	; (6ffc <_sercom_get_default_pad+0x104>)
    6efa:	4298      	cmp	r0, r3
    6efc:	d031      	beq.n	6f62 <_sercom_get_default_pad+0x6a>
    6efe:	d90a      	bls.n	6f16 <_sercom_get_default_pad+0x1e>
    6f00:	4b3f      	ldr	r3, [pc, #252]	; (7000 <_sercom_get_default_pad+0x108>)
    6f02:	4298      	cmp	r0, r3
    6f04:	d04d      	beq.n	6fa2 <_sercom_get_default_pad+0xaa>
    6f06:	4b3f      	ldr	r3, [pc, #252]	; (7004 <_sercom_get_default_pad+0x10c>)
    6f08:	4298      	cmp	r0, r3
    6f0a:	d05a      	beq.n	6fc2 <_sercom_get_default_pad+0xca>
    6f0c:	4b3e      	ldr	r3, [pc, #248]	; (7008 <_sercom_get_default_pad+0x110>)
    6f0e:	4298      	cmp	r0, r3
    6f10:	d037      	beq.n	6f82 <_sercom_get_default_pad+0x8a>
    6f12:	2000      	movs	r0, #0
    6f14:	4770      	bx	lr
    6f16:	4b3d      	ldr	r3, [pc, #244]	; (700c <_sercom_get_default_pad+0x114>)
    6f18:	4298      	cmp	r0, r3
    6f1a:	d00c      	beq.n	6f36 <_sercom_get_default_pad+0x3e>
    6f1c:	4b3c      	ldr	r3, [pc, #240]	; (7010 <_sercom_get_default_pad+0x118>)
    6f1e:	4298      	cmp	r0, r3
    6f20:	d1f7      	bne.n	6f12 <_sercom_get_default_pad+0x1a>
    6f22:	2901      	cmp	r1, #1
    6f24:	d017      	beq.n	6f56 <_sercom_get_default_pad+0x5e>
    6f26:	2900      	cmp	r1, #0
    6f28:	d05d      	beq.n	6fe6 <_sercom_get_default_pad+0xee>
    6f2a:	2902      	cmp	r1, #2
    6f2c:	d015      	beq.n	6f5a <_sercom_get_default_pad+0x62>
    6f2e:	2903      	cmp	r1, #3
    6f30:	d015      	beq.n	6f5e <_sercom_get_default_pad+0x66>
    6f32:	2000      	movs	r0, #0
    6f34:	e7ee      	b.n	6f14 <_sercom_get_default_pad+0x1c>
    6f36:	2901      	cmp	r1, #1
    6f38:	d007      	beq.n	6f4a <_sercom_get_default_pad+0x52>
    6f3a:	2900      	cmp	r1, #0
    6f3c:	d051      	beq.n	6fe2 <_sercom_get_default_pad+0xea>
    6f3e:	2902      	cmp	r1, #2
    6f40:	d005      	beq.n	6f4e <_sercom_get_default_pad+0x56>
    6f42:	2903      	cmp	r1, #3
    6f44:	d005      	beq.n	6f52 <_sercom_get_default_pad+0x5a>
    6f46:	2000      	movs	r0, #0
    6f48:	e7e4      	b.n	6f14 <_sercom_get_default_pad+0x1c>
    6f4a:	4832      	ldr	r0, [pc, #200]	; (7014 <_sercom_get_default_pad+0x11c>)
    6f4c:	e7e2      	b.n	6f14 <_sercom_get_default_pad+0x1c>
    6f4e:	4832      	ldr	r0, [pc, #200]	; (7018 <_sercom_get_default_pad+0x120>)
    6f50:	e7e0      	b.n	6f14 <_sercom_get_default_pad+0x1c>
    6f52:	4832      	ldr	r0, [pc, #200]	; (701c <_sercom_get_default_pad+0x124>)
    6f54:	e7de      	b.n	6f14 <_sercom_get_default_pad+0x1c>
    6f56:	4832      	ldr	r0, [pc, #200]	; (7020 <_sercom_get_default_pad+0x128>)
    6f58:	e7dc      	b.n	6f14 <_sercom_get_default_pad+0x1c>
    6f5a:	4832      	ldr	r0, [pc, #200]	; (7024 <_sercom_get_default_pad+0x12c>)
    6f5c:	e7da      	b.n	6f14 <_sercom_get_default_pad+0x1c>
    6f5e:	4832      	ldr	r0, [pc, #200]	; (7028 <_sercom_get_default_pad+0x130>)
    6f60:	e7d8      	b.n	6f14 <_sercom_get_default_pad+0x1c>
    6f62:	2901      	cmp	r1, #1
    6f64:	d007      	beq.n	6f76 <_sercom_get_default_pad+0x7e>
    6f66:	2900      	cmp	r1, #0
    6f68:	d03f      	beq.n	6fea <_sercom_get_default_pad+0xf2>
    6f6a:	2902      	cmp	r1, #2
    6f6c:	d005      	beq.n	6f7a <_sercom_get_default_pad+0x82>
    6f6e:	2903      	cmp	r1, #3
    6f70:	d005      	beq.n	6f7e <_sercom_get_default_pad+0x86>
    6f72:	2000      	movs	r0, #0
    6f74:	e7ce      	b.n	6f14 <_sercom_get_default_pad+0x1c>
    6f76:	482d      	ldr	r0, [pc, #180]	; (702c <_sercom_get_default_pad+0x134>)
    6f78:	e7cc      	b.n	6f14 <_sercom_get_default_pad+0x1c>
    6f7a:	482d      	ldr	r0, [pc, #180]	; (7030 <_sercom_get_default_pad+0x138>)
    6f7c:	e7ca      	b.n	6f14 <_sercom_get_default_pad+0x1c>
    6f7e:	482d      	ldr	r0, [pc, #180]	; (7034 <_sercom_get_default_pad+0x13c>)
    6f80:	e7c8      	b.n	6f14 <_sercom_get_default_pad+0x1c>
    6f82:	2901      	cmp	r1, #1
    6f84:	d007      	beq.n	6f96 <_sercom_get_default_pad+0x9e>
    6f86:	2900      	cmp	r1, #0
    6f88:	d031      	beq.n	6fee <_sercom_get_default_pad+0xf6>
    6f8a:	2902      	cmp	r1, #2
    6f8c:	d005      	beq.n	6f9a <_sercom_get_default_pad+0xa2>
    6f8e:	2903      	cmp	r1, #3
    6f90:	d005      	beq.n	6f9e <_sercom_get_default_pad+0xa6>
    6f92:	2000      	movs	r0, #0
    6f94:	e7be      	b.n	6f14 <_sercom_get_default_pad+0x1c>
    6f96:	4828      	ldr	r0, [pc, #160]	; (7038 <_sercom_get_default_pad+0x140>)
    6f98:	e7bc      	b.n	6f14 <_sercom_get_default_pad+0x1c>
    6f9a:	4828      	ldr	r0, [pc, #160]	; (703c <_sercom_get_default_pad+0x144>)
    6f9c:	e7ba      	b.n	6f14 <_sercom_get_default_pad+0x1c>
    6f9e:	4828      	ldr	r0, [pc, #160]	; (7040 <_sercom_get_default_pad+0x148>)
    6fa0:	e7b8      	b.n	6f14 <_sercom_get_default_pad+0x1c>
    6fa2:	2901      	cmp	r1, #1
    6fa4:	d007      	beq.n	6fb6 <_sercom_get_default_pad+0xbe>
    6fa6:	2900      	cmp	r1, #0
    6fa8:	d023      	beq.n	6ff2 <_sercom_get_default_pad+0xfa>
    6faa:	2902      	cmp	r1, #2
    6fac:	d005      	beq.n	6fba <_sercom_get_default_pad+0xc2>
    6fae:	2903      	cmp	r1, #3
    6fb0:	d005      	beq.n	6fbe <_sercom_get_default_pad+0xc6>
    6fb2:	2000      	movs	r0, #0
    6fb4:	e7ae      	b.n	6f14 <_sercom_get_default_pad+0x1c>
    6fb6:	4823      	ldr	r0, [pc, #140]	; (7044 <_sercom_get_default_pad+0x14c>)
    6fb8:	e7ac      	b.n	6f14 <_sercom_get_default_pad+0x1c>
    6fba:	4823      	ldr	r0, [pc, #140]	; (7048 <_sercom_get_default_pad+0x150>)
    6fbc:	e7aa      	b.n	6f14 <_sercom_get_default_pad+0x1c>
    6fbe:	4823      	ldr	r0, [pc, #140]	; (704c <_sercom_get_default_pad+0x154>)
    6fc0:	e7a8      	b.n	6f14 <_sercom_get_default_pad+0x1c>
    6fc2:	2901      	cmp	r1, #1
    6fc4:	d007      	beq.n	6fd6 <_sercom_get_default_pad+0xde>
    6fc6:	2900      	cmp	r1, #0
    6fc8:	d015      	beq.n	6ff6 <_sercom_get_default_pad+0xfe>
    6fca:	2902      	cmp	r1, #2
    6fcc:	d005      	beq.n	6fda <_sercom_get_default_pad+0xe2>
    6fce:	2903      	cmp	r1, #3
    6fd0:	d005      	beq.n	6fde <_sercom_get_default_pad+0xe6>
    6fd2:	2000      	movs	r0, #0
    6fd4:	e79e      	b.n	6f14 <_sercom_get_default_pad+0x1c>
    6fd6:	481e      	ldr	r0, [pc, #120]	; (7050 <_sercom_get_default_pad+0x158>)
    6fd8:	e79c      	b.n	6f14 <_sercom_get_default_pad+0x1c>
    6fda:	481e      	ldr	r0, [pc, #120]	; (7054 <_sercom_get_default_pad+0x15c>)
    6fdc:	e79a      	b.n	6f14 <_sercom_get_default_pad+0x1c>
    6fde:	481e      	ldr	r0, [pc, #120]	; (7058 <_sercom_get_default_pad+0x160>)
    6fe0:	e798      	b.n	6f14 <_sercom_get_default_pad+0x1c>
    6fe2:	481e      	ldr	r0, [pc, #120]	; (705c <_sercom_get_default_pad+0x164>)
    6fe4:	e796      	b.n	6f14 <_sercom_get_default_pad+0x1c>
    6fe6:	2003      	movs	r0, #3
    6fe8:	e794      	b.n	6f14 <_sercom_get_default_pad+0x1c>
    6fea:	481d      	ldr	r0, [pc, #116]	; (7060 <_sercom_get_default_pad+0x168>)
    6fec:	e792      	b.n	6f14 <_sercom_get_default_pad+0x1c>
    6fee:	481d      	ldr	r0, [pc, #116]	; (7064 <_sercom_get_default_pad+0x16c>)
    6ff0:	e790      	b.n	6f14 <_sercom_get_default_pad+0x1c>
    6ff2:	481d      	ldr	r0, [pc, #116]	; (7068 <_sercom_get_default_pad+0x170>)
    6ff4:	e78e      	b.n	6f14 <_sercom_get_default_pad+0x1c>
    6ff6:	481d      	ldr	r0, [pc, #116]	; (706c <_sercom_get_default_pad+0x174>)
    6ff8:	e78c      	b.n	6f14 <_sercom_get_default_pad+0x1c>
    6ffa:	46c0      	nop			; (mov r8, r8)
    6ffc:	42001000 	.word	0x42001000
    7000:	42001800 	.word	0x42001800
    7004:	42001c00 	.word	0x42001c00
    7008:	42001400 	.word	0x42001400
    700c:	42000800 	.word	0x42000800
    7010:	42000c00 	.word	0x42000c00
    7014:	00050003 	.word	0x00050003
    7018:	00060003 	.word	0x00060003
    701c:	00070003 	.word	0x00070003
    7020:	00010003 	.word	0x00010003
    7024:	001e0003 	.word	0x001e0003
    7028:	001f0003 	.word	0x001f0003
    702c:	00090003 	.word	0x00090003
    7030:	000a0003 	.word	0x000a0003
    7034:	000b0003 	.word	0x000b0003
    7038:	00110003 	.word	0x00110003
    703c:	00120003 	.word	0x00120003
    7040:	00130003 	.word	0x00130003
    7044:	000d0003 	.word	0x000d0003
    7048:	000e0003 	.word	0x000e0003
    704c:	000f0003 	.word	0x000f0003
    7050:	00170003 	.word	0x00170003
    7054:	00180003 	.word	0x00180003
    7058:	00190003 	.word	0x00190003
    705c:	00040003 	.word	0x00040003
    7060:	00080003 	.word	0x00080003
    7064:	00100003 	.word	0x00100003
    7068:	000c0003 	.word	0x000c0003
    706c:	00160003 	.word	0x00160003

00007070 <_sercom_get_sercom_inst_index>:
    7070:	b530      	push	{r4, r5, lr}
    7072:	b087      	sub	sp, #28
    7074:	4b0b      	ldr	r3, [pc, #44]	; (70a4 <_sercom_get_sercom_inst_index+0x34>)
    7076:	466a      	mov	r2, sp
    7078:	cb32      	ldmia	r3!, {r1, r4, r5}
    707a:	c232      	stmia	r2!, {r1, r4, r5}
    707c:	cb32      	ldmia	r3!, {r1, r4, r5}
    707e:	c232      	stmia	r2!, {r1, r4, r5}
    7080:	9b00      	ldr	r3, [sp, #0]
    7082:	4283      	cmp	r3, r0
    7084:	d00b      	beq.n	709e <_sercom_get_sercom_inst_index+0x2e>
    7086:	2301      	movs	r3, #1
    7088:	009a      	lsls	r2, r3, #2
    708a:	4669      	mov	r1, sp
    708c:	5852      	ldr	r2, [r2, r1]
    708e:	4282      	cmp	r2, r0
    7090:	d006      	beq.n	70a0 <_sercom_get_sercom_inst_index+0x30>
    7092:	3301      	adds	r3, #1
    7094:	2b06      	cmp	r3, #6
    7096:	d1f7      	bne.n	7088 <_sercom_get_sercom_inst_index+0x18>
    7098:	2000      	movs	r0, #0
    709a:	b007      	add	sp, #28
    709c:	bd30      	pop	{r4, r5, pc}
    709e:	2300      	movs	r3, #0
    70a0:	b2d8      	uxtb	r0, r3
    70a2:	e7fa      	b.n	709a <_sercom_get_sercom_inst_index+0x2a>
    70a4:	0000c4d4 	.word	0x0000c4d4

000070a8 <_sercom_default_handler>:
    70a8:	4770      	bx	lr
	...

000070ac <_sercom_set_handler>:
    70ac:	b5f0      	push	{r4, r5, r6, r7, lr}
    70ae:	4b0a      	ldr	r3, [pc, #40]	; (70d8 <_sercom_set_handler+0x2c>)
    70b0:	781b      	ldrb	r3, [r3, #0]
    70b2:	2b00      	cmp	r3, #0
    70b4:	d10c      	bne.n	70d0 <_sercom_set_handler+0x24>
    70b6:	4f09      	ldr	r7, [pc, #36]	; (70dc <_sercom_set_handler+0x30>)
    70b8:	4e09      	ldr	r6, [pc, #36]	; (70e0 <_sercom_set_handler+0x34>)
    70ba:	4d0a      	ldr	r5, [pc, #40]	; (70e4 <_sercom_set_handler+0x38>)
    70bc:	2400      	movs	r4, #0
    70be:	51de      	str	r6, [r3, r7]
    70c0:	195a      	adds	r2, r3, r5
    70c2:	6014      	str	r4, [r2, #0]
    70c4:	3304      	adds	r3, #4
    70c6:	2b18      	cmp	r3, #24
    70c8:	d1f9      	bne.n	70be <_sercom_set_handler+0x12>
    70ca:	2201      	movs	r2, #1
    70cc:	4b02      	ldr	r3, [pc, #8]	; (70d8 <_sercom_set_handler+0x2c>)
    70ce:	701a      	strb	r2, [r3, #0]
    70d0:	0080      	lsls	r0, r0, #2
    70d2:	4b02      	ldr	r3, [pc, #8]	; (70dc <_sercom_set_handler+0x30>)
    70d4:	50c1      	str	r1, [r0, r3]
    70d6:	bdf0      	pop	{r4, r5, r6, r7, pc}
    70d8:	20000f26 	.word	0x20000f26
    70dc:	20000f28 	.word	0x20000f28
    70e0:	000070a9 	.word	0x000070a9
    70e4:	200029b4 	.word	0x200029b4

000070e8 <_sercom_get_interrupt_vector>:
    70e8:	b500      	push	{lr}
    70ea:	b083      	sub	sp, #12
    70ec:	2309      	movs	r3, #9
    70ee:	466a      	mov	r2, sp
    70f0:	7013      	strb	r3, [r2, #0]
    70f2:	3301      	adds	r3, #1
    70f4:	7053      	strb	r3, [r2, #1]
    70f6:	3301      	adds	r3, #1
    70f8:	7093      	strb	r3, [r2, #2]
    70fa:	3301      	adds	r3, #1
    70fc:	70d3      	strb	r3, [r2, #3]
    70fe:	3301      	adds	r3, #1
    7100:	7113      	strb	r3, [r2, #4]
    7102:	3301      	adds	r3, #1
    7104:	7153      	strb	r3, [r2, #5]
    7106:	4b03      	ldr	r3, [pc, #12]	; (7114 <_sercom_get_interrupt_vector+0x2c>)
    7108:	4798      	blx	r3
    710a:	466b      	mov	r3, sp
    710c:	5618      	ldrsb	r0, [r3, r0]
    710e:	b003      	add	sp, #12
    7110:	bd00      	pop	{pc}
    7112:	46c0      	nop			; (mov r8, r8)
    7114:	00007071 	.word	0x00007071

00007118 <SERCOM0_Handler>:
    7118:	b510      	push	{r4, lr}
    711a:	4b02      	ldr	r3, [pc, #8]	; (7124 <SERCOM0_Handler+0xc>)
    711c:	681b      	ldr	r3, [r3, #0]
    711e:	2000      	movs	r0, #0
    7120:	4798      	blx	r3
    7122:	bd10      	pop	{r4, pc}
    7124:	20000f28 	.word	0x20000f28

00007128 <SERCOM1_Handler>:
    7128:	b510      	push	{r4, lr}
    712a:	4b02      	ldr	r3, [pc, #8]	; (7134 <SERCOM1_Handler+0xc>)
    712c:	685b      	ldr	r3, [r3, #4]
    712e:	2001      	movs	r0, #1
    7130:	4798      	blx	r3
    7132:	bd10      	pop	{r4, pc}
    7134:	20000f28 	.word	0x20000f28

00007138 <SERCOM2_Handler>:
    7138:	b510      	push	{r4, lr}
    713a:	4b02      	ldr	r3, [pc, #8]	; (7144 <SERCOM2_Handler+0xc>)
    713c:	689b      	ldr	r3, [r3, #8]
    713e:	2002      	movs	r0, #2
    7140:	4798      	blx	r3
    7142:	bd10      	pop	{r4, pc}
    7144:	20000f28 	.word	0x20000f28

00007148 <SERCOM3_Handler>:
    7148:	b510      	push	{r4, lr}
    714a:	4b02      	ldr	r3, [pc, #8]	; (7154 <SERCOM3_Handler+0xc>)
    714c:	68db      	ldr	r3, [r3, #12]
    714e:	2003      	movs	r0, #3
    7150:	4798      	blx	r3
    7152:	bd10      	pop	{r4, pc}
    7154:	20000f28 	.word	0x20000f28

00007158 <SERCOM4_Handler>:
    7158:	b510      	push	{r4, lr}
    715a:	4b02      	ldr	r3, [pc, #8]	; (7164 <SERCOM4_Handler+0xc>)
    715c:	691b      	ldr	r3, [r3, #16]
    715e:	2004      	movs	r0, #4
    7160:	4798      	blx	r3
    7162:	bd10      	pop	{r4, pc}
    7164:	20000f28 	.word	0x20000f28

00007168 <SERCOM5_Handler>:
    7168:	b510      	push	{r4, lr}
    716a:	4b02      	ldr	r3, [pc, #8]	; (7174 <SERCOM5_Handler+0xc>)
    716c:	695b      	ldr	r3, [r3, #20]
    716e:	2005      	movs	r0, #5
    7170:	4798      	blx	r3
    7172:	bd10      	pop	{r4, pc}
    7174:	20000f28 	.word	0x20000f28

00007178 <I2S_Handler>:
    7178:	b5f8      	push	{r3, r4, r5, r6, r7, lr}
    717a:	4b79      	ldr	r3, [pc, #484]	; (7360 <I2S_Handler+0x1e8>)
    717c:	6818      	ldr	r0, [r3, #0]
    717e:	6804      	ldr	r4, [r0, #0]
    7180:	8aa3      	ldrh	r3, [r4, #20]
    7182:	b29b      	uxth	r3, r3
    7184:	8a22      	ldrh	r2, [r4, #16]
    7186:	401a      	ands	r2, r3
    7188:	4976      	ldr	r1, [pc, #472]	; (7364 <I2S_Handler+0x1ec>)
    718a:	420b      	tst	r3, r1
    718c:	d00b      	beq.n	71a6 <I2S_Handler+0x2e>
    718e:	7e01      	ldrb	r1, [r0, #24]
    7190:	7e45      	ldrb	r5, [r0, #25]
    7192:	4029      	ands	r1, r5
    7194:	05d5      	lsls	r5, r2, #23
    7196:	d41b      	bmi.n	71d0 <I2S_Handler+0x58>
    7198:	07d5      	lsls	r5, r2, #31
    719a:	d500      	bpl.n	719e <I2S_Handler+0x26>
    719c:	e074      	b.n	7288 <I2S_Handler+0x110>
    719e:	4d72      	ldr	r5, [pc, #456]	; (7368 <I2S_Handler+0x1f0>)
    71a0:	422a      	tst	r2, r5
    71a2:	d000      	beq.n	71a6 <I2S_Handler+0x2e>
    71a4:	e0cb      	b.n	733e <I2S_Handler+0x1c6>
    71a6:	4971      	ldr	r1, [pc, #452]	; (736c <I2S_Handler+0x1f4>)
    71a8:	420b      	tst	r3, r1
    71aa:	d00c      	beq.n	71c6 <I2S_Handler+0x4e>
    71ac:	2334      	movs	r3, #52	; 0x34
    71ae:	5cc3      	ldrb	r3, [r0, r3]
    71b0:	2135      	movs	r1, #53	; 0x35
    71b2:	5c41      	ldrb	r1, [r0, r1]
    71b4:	4019      	ands	r1, r3
    71b6:	0593      	lsls	r3, r2, #22
    71b8:	d406      	bmi.n	71c8 <I2S_Handler+0x50>
    71ba:	0793      	lsls	r3, r2, #30
    71bc:	d461      	bmi.n	7282 <I2S_Handler+0x10a>
    71be:	4b6c      	ldr	r3, [pc, #432]	; (7370 <I2S_Handler+0x1f8>)
    71c0:	421a      	tst	r2, r3
    71c2:	d000      	beq.n	71c6 <I2S_Handler+0x4e>
    71c4:	e0b9      	b.n	733a <I2S_Handler+0x1c2>
    71c6:	bdf8      	pop	{r3, r4, r5, r6, r7, pc}
    71c8:	2280      	movs	r2, #128	; 0x80
    71ca:	0092      	lsls	r2, r2, #2
    71cc:	2501      	movs	r5, #1
    71ce:	e002      	b.n	71d6 <I2S_Handler+0x5e>
    71d0:	2280      	movs	r2, #128	; 0x80
    71d2:	0052      	lsls	r2, r2, #1
    71d4:	2500      	movs	r5, #0
    71d6:	00eb      	lsls	r3, r5, #3
    71d8:	1b5b      	subs	r3, r3, r5
    71da:	009b      	lsls	r3, r3, #2
    71dc:	18c3      	adds	r3, r0, r3
    71de:	695e      	ldr	r6, [r3, #20]
    71e0:	691b      	ldr	r3, [r3, #16]
    71e2:	429e      	cmp	r6, r3
    71e4:	d230      	bcs.n	7248 <I2S_Handler+0xd0>
    71e6:	8b23      	ldrh	r3, [r4, #24]
    71e8:	4213      	tst	r3, r2
    71ea:	d1fc      	bne.n	71e6 <I2S_Handler+0x6e>
    71ec:	00eb      	lsls	r3, r5, #3
    71ee:	1b5b      	subs	r3, r3, r5
    71f0:	009b      	lsls	r3, r3, #2
    71f2:	18c3      	adds	r3, r0, r3
    71f4:	7f1b      	ldrb	r3, [r3, #28]
    71f6:	b2df      	uxtb	r7, r3
    71f8:	2f03      	cmp	r7, #3
    71fa:	d90d      	bls.n	7218 <I2S_Handler+0xa0>
    71fc:	2f05      	cmp	r7, #5
    71fe:	d835      	bhi.n	726c <I2S_Handler+0xf4>
    7200:	00eb      	lsls	r3, r5, #3
    7202:	1b5b      	subs	r3, r3, r5
    7204:	009b      	lsls	r3, r3, #2
    7206:	18c3      	adds	r3, r0, r3
    7208:	68db      	ldr	r3, [r3, #12]
    720a:	0076      	lsls	r6, r6, #1
    720c:	5af6      	ldrh	r6, [r6, r3]
    720e:	002b      	movs	r3, r5
    7210:	330c      	adds	r3, #12
    7212:	009b      	lsls	r3, r3, #2
    7214:	511e      	str	r6, [r3, r4]
    7216:	e00a      	b.n	722e <I2S_Handler+0xb6>
    7218:	00eb      	lsls	r3, r5, #3
    721a:	1b5b      	subs	r3, r3, r5
    721c:	009b      	lsls	r3, r3, #2
    721e:	18c3      	adds	r3, r0, r3
    7220:	68db      	ldr	r3, [r3, #12]
    7222:	00b6      	lsls	r6, r6, #2
    7224:	58f6      	ldr	r6, [r6, r3]
    7226:	002b      	movs	r3, r5
    7228:	330c      	adds	r3, #12
    722a:	009b      	lsls	r3, r3, #2
    722c:	511e      	str	r6, [r3, r4]
    722e:	b293      	uxth	r3, r2
    7230:	6804      	ldr	r4, [r0, #0]
    7232:	82a3      	strh	r3, [r4, #20]
    7234:	00eb      	lsls	r3, r5, #3
    7236:	1b5b      	subs	r3, r3, r5
    7238:	009b      	lsls	r3, r3, #2
    723a:	18c3      	adds	r3, r0, r3
    723c:	695c      	ldr	r4, [r3, #20]
    723e:	3401      	adds	r4, #1
    7240:	615c      	str	r4, [r3, #20]
    7242:	691b      	ldr	r3, [r3, #16]
    7244:	429c      	cmp	r4, r3
    7246:	d3be      	bcc.n	71c6 <I2S_Handler+0x4e>
    7248:	00eb      	lsls	r3, r5, #3
    724a:	1b5b      	subs	r3, r3, r5
    724c:	009b      	lsls	r3, r3, #2
    724e:	18c3      	adds	r3, r0, r3
    7250:	2400      	movs	r4, #0
    7252:	769c      	strb	r4, [r3, #26]
    7254:	b292      	uxth	r2, r2
    7256:	6803      	ldr	r3, [r0, #0]
    7258:	819a      	strh	r2, [r3, #12]
    725a:	07cb      	lsls	r3, r1, #31
    725c:	d5b3      	bpl.n	71c6 <I2S_Handler+0x4e>
    725e:	00eb      	lsls	r3, r5, #3
    7260:	1b5b      	subs	r3, r3, r5
    7262:	009b      	lsls	r3, r3, #2
    7264:	18c3      	adds	r3, r0, r3
    7266:	685b      	ldr	r3, [r3, #4]
    7268:	4798      	blx	r3
    726a:	e7ac      	b.n	71c6 <I2S_Handler+0x4e>
    726c:	00eb      	lsls	r3, r5, #3
    726e:	1b5b      	subs	r3, r3, r5
    7270:	009b      	lsls	r3, r3, #2
    7272:	18c3      	adds	r3, r0, r3
    7274:	68db      	ldr	r3, [r3, #12]
    7276:	5d9e      	ldrb	r6, [r3, r6]
    7278:	002b      	movs	r3, r5
    727a:	330c      	adds	r3, #12
    727c:	009b      	lsls	r3, r3, #2
    727e:	511e      	str	r6, [r3, r4]
    7280:	e7d5      	b.n	722e <I2S_Handler+0xb6>
    7282:	2502      	movs	r5, #2
    7284:	2201      	movs	r2, #1
    7286:	e001      	b.n	728c <I2S_Handler+0x114>
    7288:	2501      	movs	r5, #1
    728a:	2200      	movs	r2, #0
    728c:	00d3      	lsls	r3, r2, #3
    728e:	1a9b      	subs	r3, r3, r2
    7290:	009b      	lsls	r3, r3, #2
    7292:	18c3      	adds	r3, r0, r3
    7294:	7f1b      	ldrb	r3, [r3, #28]
    7296:	b2de      	uxtb	r6, r3
    7298:	2e03      	cmp	r6, #3
    729a:	d90e      	bls.n	72ba <I2S_Handler+0x142>
    729c:	2e05      	cmp	r6, #5
    729e:	d840      	bhi.n	7322 <I2S_Handler+0x1aa>
    72a0:	0013      	movs	r3, r2
    72a2:	330c      	adds	r3, #12
    72a4:	009b      	lsls	r3, r3, #2
    72a6:	591f      	ldr	r7, [r3, r4]
    72a8:	00d3      	lsls	r3, r2, #3
    72aa:	1a9b      	subs	r3, r3, r2
    72ac:	009b      	lsls	r3, r3, #2
    72ae:	18c3      	adds	r3, r0, r3
    72b0:	695c      	ldr	r4, [r3, #20]
    72b2:	68de      	ldr	r6, [r3, #12]
    72b4:	0064      	lsls	r4, r4, #1
    72b6:	53a7      	strh	r7, [r4, r6]
    72b8:	e00b      	b.n	72d2 <I2S_Handler+0x15a>
    72ba:	0013      	movs	r3, r2
    72bc:	330c      	adds	r3, #12
    72be:	009b      	lsls	r3, r3, #2
    72c0:	591f      	ldr	r7, [r3, r4]
    72c2:	00d3      	lsls	r3, r2, #3
    72c4:	1a9b      	subs	r3, r3, r2
    72c6:	009b      	lsls	r3, r3, #2
    72c8:	18c3      	adds	r3, r0, r3
    72ca:	695c      	ldr	r4, [r3, #20]
    72cc:	68de      	ldr	r6, [r3, #12]
    72ce:	00a4      	lsls	r4, r4, #2
    72d0:	51a7      	str	r7, [r4, r6]
    72d2:	b2ad      	uxth	r5, r5
    72d4:	6803      	ldr	r3, [r0, #0]
    72d6:	829d      	strh	r5, [r3, #20]
    72d8:	00d3      	lsls	r3, r2, #3
    72da:	1a9b      	subs	r3, r3, r2
    72dc:	009b      	lsls	r3, r3, #2
    72de:	18c3      	adds	r3, r0, r3
    72e0:	695c      	ldr	r4, [r3, #20]
    72e2:	3401      	adds	r4, #1
    72e4:	615c      	str	r4, [r3, #20]
    72e6:	691b      	ldr	r3, [r3, #16]
    72e8:	429c      	cmp	r4, r3
    72ea:	d200      	bcs.n	72ee <I2S_Handler+0x176>
    72ec:	e76b      	b.n	71c6 <I2S_Handler+0x4e>
    72ee:	00d3      	lsls	r3, r2, #3
    72f0:	1a9b      	subs	r3, r3, r2
    72f2:	009b      	lsls	r3, r3, #2
    72f4:	18c3      	adds	r3, r0, r3
    72f6:	7e9b      	ldrb	r3, [r3, #26]
    72f8:	2b05      	cmp	r3, #5
    72fa:	d000      	beq.n	72fe <I2S_Handler+0x186>
    72fc:	e763      	b.n	71c6 <I2S_Handler+0x4e>
    72fe:	00d3      	lsls	r3, r2, #3
    7300:	1a9b      	subs	r3, r3, r2
    7302:	009b      	lsls	r3, r3, #2
    7304:	18c3      	adds	r3, r0, r3
    7306:	2400      	movs	r4, #0
    7308:	769c      	strb	r4, [r3, #26]
    730a:	6803      	ldr	r3, [r0, #0]
    730c:	819d      	strh	r5, [r3, #12]
    730e:	07cb      	lsls	r3, r1, #31
    7310:	d400      	bmi.n	7314 <I2S_Handler+0x19c>
    7312:	e758      	b.n	71c6 <I2S_Handler+0x4e>
    7314:	00d3      	lsls	r3, r2, #3
    7316:	1a9b      	subs	r3, r3, r2
    7318:	009b      	lsls	r3, r3, #2
    731a:	18c3      	adds	r3, r0, r3
    731c:	685b      	ldr	r3, [r3, #4]
    731e:	4798      	blx	r3
    7320:	e751      	b.n	71c6 <I2S_Handler+0x4e>
    7322:	0013      	movs	r3, r2
    7324:	330c      	adds	r3, #12
    7326:	009b      	lsls	r3, r3, #2
    7328:	591e      	ldr	r6, [r3, r4]
    732a:	00d3      	lsls	r3, r2, #3
    732c:	1a9b      	subs	r3, r3, r2
    732e:	009b      	lsls	r3, r3, #2
    7330:	18c3      	adds	r3, r0, r3
    7332:	68dc      	ldr	r4, [r3, #12]
    7334:	695b      	ldr	r3, [r3, #20]
    7336:	54e6      	strb	r6, [r4, r3]
    7338:	e7cb      	b.n	72d2 <I2S_Handler+0x15a>
    733a:	2201      	movs	r2, #1
    733c:	e000      	b.n	7340 <I2S_Handler+0x1c8>
    733e:	2200      	movs	r2, #0
    7340:	2380      	movs	r3, #128	; 0x80
    7342:	015b      	lsls	r3, r3, #5
    7344:	4093      	lsls	r3, r2
    7346:	b29b      	uxth	r3, r3
    7348:	82a3      	strh	r3, [r4, #20]
    734a:	078b      	lsls	r3, r1, #30
    734c:	d400      	bmi.n	7350 <I2S_Handler+0x1d8>
    734e:	e73a      	b.n	71c6 <I2S_Handler+0x4e>
    7350:	00d3      	lsls	r3, r2, #3
    7352:	1a9b      	subs	r3, r3, r2
    7354:	009b      	lsls	r3, r3, #2
    7356:	18c3      	adds	r3, r0, r3
    7358:	689b      	ldr	r3, [r3, #8]
    735a:	4798      	blx	r3
    735c:	e733      	b.n	71c6 <I2S_Handler+0x4e>
    735e:	46c0      	nop			; (mov r8, r8)
    7360:	200029cc 	.word	0x200029cc
    7364:	00001111 	.word	0x00001111
    7368:	00001010 	.word	0x00001010
    736c:	00002222 	.word	0x00002222
    7370:	00002020 	.word	0x00002020

00007374 <EIC_Handler>:
    7374:	b570      	push	{r4, r5, r6, lr}
    7376:	2200      	movs	r2, #0
    7378:	4b10      	ldr	r3, [pc, #64]	; (73bc <EIC_Handler+0x48>)
    737a:	701a      	strb	r2, [r3, #0]
    737c:	2300      	movs	r3, #0
    737e:	4910      	ldr	r1, [pc, #64]	; (73c0 <EIC_Handler+0x4c>)
    7380:	251f      	movs	r5, #31
    7382:	4e10      	ldr	r6, [pc, #64]	; (73c4 <EIC_Handler+0x50>)
    7384:	4c0d      	ldr	r4, [pc, #52]	; (73bc <EIC_Handler+0x48>)
    7386:	e00a      	b.n	739e <EIC_Handler+0x2a>
    7388:	490d      	ldr	r1, [pc, #52]	; (73c0 <EIC_Handler+0x4c>)
    738a:	e008      	b.n	739e <EIC_Handler+0x2a>
    738c:	7823      	ldrb	r3, [r4, #0]
    738e:	3301      	adds	r3, #1
    7390:	b2db      	uxtb	r3, r3
    7392:	7023      	strb	r3, [r4, #0]
    7394:	2b0f      	cmp	r3, #15
    7396:	d810      	bhi.n	73ba <EIC_Handler+0x46>
    7398:	2100      	movs	r1, #0
    739a:	2b1f      	cmp	r3, #31
    739c:	d9f4      	bls.n	7388 <EIC_Handler+0x14>
    739e:	0028      	movs	r0, r5
    73a0:	4018      	ands	r0, r3
    73a2:	2201      	movs	r2, #1
    73a4:	4082      	lsls	r2, r0
    73a6:	6908      	ldr	r0, [r1, #16]
    73a8:	4210      	tst	r0, r2
    73aa:	d0ef      	beq.n	738c <EIC_Handler+0x18>
    73ac:	610a      	str	r2, [r1, #16]
    73ae:	009b      	lsls	r3, r3, #2
    73b0:	599b      	ldr	r3, [r3, r6]
    73b2:	2b00      	cmp	r3, #0
    73b4:	d0ea      	beq.n	738c <EIC_Handler+0x18>
    73b6:	4798      	blx	r3
    73b8:	e7e8      	b.n	738c <EIC_Handler+0x18>
    73ba:	bd70      	pop	{r4, r5, r6, pc}
    73bc:	200029d0 	.word	0x200029d0
    73c0:	40001800 	.word	0x40001800
    73c4:	200025e0 	.word	0x200025e0

000073c8 <ac_register_callback>:
    73c8:	0093      	lsls	r3, r2, #2
    73ca:	18c3      	adds	r3, r0, r3
    73cc:	6059      	str	r1, [r3, #4]
    73ce:	2301      	movs	r3, #1
    73d0:	4093      	lsls	r3, r2
    73d2:	001a      	movs	r2, r3
    73d4:	7e03      	ldrb	r3, [r0, #24]
    73d6:	4313      	orrs	r3, r2
    73d8:	7603      	strb	r3, [r0, #24]
    73da:	2000      	movs	r0, #0
    73dc:	4770      	bx	lr
	...

000073e0 <_ac_interrupt_handler>:
    73e0:	b570      	push	{r4, r5, r6, lr}
    73e2:	0080      	lsls	r0, r0, #2
    73e4:	4b11      	ldr	r3, [pc, #68]	; (742c <_ac_interrupt_handler+0x4c>)
    73e6:	58c4      	ldr	r4, [r0, r3]
    73e8:	6823      	ldr	r3, [r4, #0]
    73ea:	799d      	ldrb	r5, [r3, #6]
    73ec:	7e22      	ldrb	r2, [r4, #24]
    73ee:	7e63      	ldrb	r3, [r4, #25]
    73f0:	4013      	ands	r3, r2
    73f2:	401d      	ands	r5, r3
    73f4:	07eb      	lsls	r3, r5, #31
    73f6:	d404      	bmi.n	7402 <_ac_interrupt_handler+0x22>
    73f8:	07ab      	lsls	r3, r5, #30
    73fa:	d409      	bmi.n	7410 <_ac_interrupt_handler+0x30>
    73fc:	06eb      	lsls	r3, r5, #27
    73fe:	d40e      	bmi.n	741e <_ac_interrupt_handler+0x3e>
    7400:	bd70      	pop	{r4, r5, r6, pc}
    7402:	0020      	movs	r0, r4
    7404:	6863      	ldr	r3, [r4, #4]
    7406:	4798      	blx	r3
    7408:	2301      	movs	r3, #1
    740a:	6822      	ldr	r2, [r4, #0]
    740c:	7193      	strb	r3, [r2, #6]
    740e:	e7f3      	b.n	73f8 <_ac_interrupt_handler+0x18>
    7410:	0020      	movs	r0, r4
    7412:	68a3      	ldr	r3, [r4, #8]
    7414:	4798      	blx	r3
    7416:	2302      	movs	r3, #2
    7418:	6822      	ldr	r2, [r4, #0]
    741a:	7193      	strb	r3, [r2, #6]
    741c:	e7ee      	b.n	73fc <_ac_interrupt_handler+0x1c>
    741e:	0020      	movs	r0, r4
    7420:	6963      	ldr	r3, [r4, #20]
    7422:	4798      	blx	r3
    7424:	6823      	ldr	r3, [r4, #0]
    7426:	2210      	movs	r2, #16
    7428:	719a      	strb	r2, [r3, #6]
    742a:	e7e9      	b.n	7400 <_ac_interrupt_handler+0x20>
    742c:	200029d4 	.word	0x200029d4

00007430 <AC_Handler>:
    7430:	b510      	push	{r4, lr}
    7432:	2000      	movs	r0, #0
    7434:	4b01      	ldr	r3, [pc, #4]	; (743c <AC_Handler+0xc>)
    7436:	4798      	blx	r3
    7438:	bd10      	pop	{r4, pc}
    743a:	46c0      	nop			; (mov r8, r8)
    743c:	000073e1 	.word	0x000073e1

00007440 <udi_cdc_comm_disable>:
    7440:	4a02      	ldr	r2, [pc, #8]	; (744c <udi_cdc_comm_disable+0xc>)
    7442:	7813      	ldrb	r3, [r2, #0]
    7444:	3b01      	subs	r3, #1
    7446:	b2db      	uxtb	r3, r3
    7448:	7013      	strb	r3, [r2, #0]
    744a:	4770      	bx	lr
    744c:	20000f4b 	.word	0x20000f4b

00007450 <udi_cdc_data_setup>:
    7450:	2000      	movs	r0, #0
    7452:	4770      	bx	lr

00007454 <udi_cdc_getsetting>:
    7454:	2000      	movs	r0, #0
    7456:	4770      	bx	lr

00007458 <udi_cdc_comm_setup>:
    7458:	4b1b      	ldr	r3, [pc, #108]	; (74c8 <udi_cdc_comm_setup+0x70>)
    745a:	781b      	ldrb	r3, [r3, #0]
    745c:	b25a      	sxtb	r2, r3
    745e:	2a00      	cmp	r2, #0
    7460:	db05      	blt.n	746e <udi_cdc_comm_setup+0x16>
    7462:	2260      	movs	r2, #96	; 0x60
    7464:	4013      	ands	r3, r2
    7466:	2000      	movs	r0, #0
    7468:	2b20      	cmp	r3, #32
    746a:	d014      	beq.n	7496 <udi_cdc_comm_setup+0x3e>
    746c:	4770      	bx	lr
    746e:	2260      	movs	r2, #96	; 0x60
    7470:	4013      	ands	r3, r2
    7472:	2000      	movs	r0, #0
    7474:	2b20      	cmp	r3, #32
    7476:	d1f9      	bne.n	746c <udi_cdc_comm_setup+0x14>
    7478:	4b13      	ldr	r3, [pc, #76]	; (74c8 <udi_cdc_comm_setup+0x70>)
    747a:	785b      	ldrb	r3, [r3, #1]
    747c:	2b21      	cmp	r3, #33	; 0x21
    747e:	d120      	bne.n	74c2 <udi_cdc_comm_setup+0x6a>
    7480:	4b11      	ldr	r3, [pc, #68]	; (74c8 <udi_cdc_comm_setup+0x70>)
    7482:	88db      	ldrh	r3, [r3, #6]
    7484:	2b07      	cmp	r3, #7
    7486:	d1f1      	bne.n	746c <udi_cdc_comm_setup+0x14>
    7488:	4b0f      	ldr	r3, [pc, #60]	; (74c8 <udi_cdc_comm_setup+0x70>)
    748a:	4a10      	ldr	r2, [pc, #64]	; (74cc <udi_cdc_comm_setup+0x74>)
    748c:	609a      	str	r2, [r3, #8]
    748e:	2207      	movs	r2, #7
    7490:	819a      	strh	r2, [r3, #12]
    7492:	3001      	adds	r0, #1
    7494:	e7ea      	b.n	746c <udi_cdc_comm_setup+0x14>
    7496:	4b0c      	ldr	r3, [pc, #48]	; (74c8 <udi_cdc_comm_setup+0x70>)
    7498:	7858      	ldrb	r0, [r3, #1]
    749a:	2820      	cmp	r0, #32
    749c:	d003      	beq.n	74a6 <udi_cdc_comm_setup+0x4e>
    749e:	3822      	subs	r0, #34	; 0x22
    74a0:	4243      	negs	r3, r0
    74a2:	4158      	adcs	r0, r3
    74a4:	e7e2      	b.n	746c <udi_cdc_comm_setup+0x14>
    74a6:	4b08      	ldr	r3, [pc, #32]	; (74c8 <udi_cdc_comm_setup+0x70>)
    74a8:	88db      	ldrh	r3, [r3, #6]
    74aa:	2000      	movs	r0, #0
    74ac:	2b07      	cmp	r3, #7
    74ae:	d1dd      	bne.n	746c <udi_cdc_comm_setup+0x14>
    74b0:	4b05      	ldr	r3, [pc, #20]	; (74c8 <udi_cdc_comm_setup+0x70>)
    74b2:	4a07      	ldr	r2, [pc, #28]	; (74d0 <udi_cdc_comm_setup+0x78>)
    74b4:	611a      	str	r2, [r3, #16]
    74b6:	4a05      	ldr	r2, [pc, #20]	; (74cc <udi_cdc_comm_setup+0x74>)
    74b8:	609a      	str	r2, [r3, #8]
    74ba:	2207      	movs	r2, #7
    74bc:	819a      	strh	r2, [r3, #12]
    74be:	3001      	adds	r0, #1
    74c0:	e7d4      	b.n	746c <udi_cdc_comm_setup+0x14>
    74c2:	2000      	movs	r0, #0
    74c4:	e7d2      	b.n	746c <udi_cdc_comm_setup+0x14>
    74c6:	46c0      	nop			; (mov r8, r8)
    74c8:	20002858 	.word	0x20002858
    74cc:	20000f44 	.word	0x20000f44
    74d0:	000074d5 	.word	0x000074d5

000074d4 <udi_cdc_line_coding_received>:
    74d4:	4770      	bx	lr
	...

000074d8 <udi_cdc_comm_enable>:
    74d8:	b510      	push	{r4, lr}
    74da:	2200      	movs	r2, #0
    74dc:	4b10      	ldr	r3, [pc, #64]	; (7520 <udi_cdc_comm_enable+0x48>)
    74de:	701a      	strb	r2, [r3, #0]
    74e0:	2100      	movs	r1, #0
    74e2:	4b10      	ldr	r3, [pc, #64]	; (7524 <udi_cdc_comm_enable+0x4c>)
    74e4:	801a      	strh	r2, [r3, #0]
    74e6:	4b10      	ldr	r3, [pc, #64]	; (7528 <udi_cdc_comm_enable+0x50>)
    74e8:	20a1      	movs	r0, #161	; 0xa1
    74ea:	7018      	strb	r0, [r3, #0]
    74ec:	3881      	subs	r0, #129	; 0x81
    74ee:	7058      	strb	r0, [r3, #1]
    74f0:	805a      	strh	r2, [r3, #2]
    74f2:	809a      	strh	r2, [r3, #4]
    74f4:	381e      	subs	r0, #30
    74f6:	80d8      	strh	r0, [r3, #6]
    74f8:	811a      	strh	r2, [r3, #8]
    74fa:	4b0c      	ldr	r3, [pc, #48]	; (752c <udi_cdc_comm_enable+0x54>)
    74fc:	22e1      	movs	r2, #225	; 0xe1
    74fe:	0252      	lsls	r2, r2, #9
    7500:	601a      	str	r2, [r3, #0]
    7502:	7119      	strb	r1, [r3, #4]
    7504:	7159      	strb	r1, [r3, #5]
    7506:	2208      	movs	r2, #8
    7508:	719a      	strb	r2, [r3, #6]
    750a:	4b09      	ldr	r3, [pc, #36]	; (7530 <udi_cdc_comm_enable+0x58>)
    750c:	4798      	blx	r3
    750e:	2800      	cmp	r0, #0
    7510:	d004      	beq.n	751c <udi_cdc_comm_enable+0x44>
    7512:	4a03      	ldr	r2, [pc, #12]	; (7520 <udi_cdc_comm_enable+0x48>)
    7514:	7813      	ldrb	r3, [r2, #0]
    7516:	3301      	adds	r3, #1
    7518:	b2db      	uxtb	r3, r3
    751a:	7013      	strb	r3, [r2, #0]
    751c:	bd10      	pop	{r4, pc}
    751e:	46c0      	nop			; (mov r8, r8)
    7520:	20000f4b 	.word	0x20000f4b
    7524:	20000fe0 	.word	0x20000fe0
    7528:	20001078 	.word	0x20001078
    752c:	20000f44 	.word	0x20000f44
    7530:	00002b89 	.word	0x00002b89

00007534 <udi_cdc_tx_send>:
    7534:	b570      	push	{r4, r5, r6, lr}
    7536:	b084      	sub	sp, #16
    7538:	4b46      	ldr	r3, [pc, #280]	; (7654 <udi_cdc_tx_send+0x120>)
    753a:	781b      	ldrb	r3, [r3, #0]
    753c:	2b00      	cmp	r3, #0
    753e:	d001      	beq.n	7544 <udi_cdc_tx_send+0x10>
    7540:	b004      	add	sp, #16
    7542:	bd70      	pop	{r4, r5, r6, pc}
    7544:	4b44      	ldr	r3, [pc, #272]	; (7658 <udi_cdc_tx_send+0x124>)
    7546:	4798      	blx	r3
    7548:	2800      	cmp	r0, #0
    754a:	d043      	beq.n	75d4 <udi_cdc_tx_send+0xa0>
    754c:	4b43      	ldr	r3, [pc, #268]	; (765c <udi_cdc_tx_send+0x128>)
    754e:	881c      	ldrh	r4, [r3, #0]
    7550:	4b43      	ldr	r3, [pc, #268]	; (7660 <udi_cdc_tx_send+0x12c>)
    7552:	4798      	blx	r3
    7554:	4284      	cmp	r4, r0
    7556:	d0f3      	beq.n	7540 <udi_cdc_tx_send+0xc>
    7558:	f3ef 8310 	mrs	r3, PRIMASK
    755c:	425a      	negs	r2, r3
    755e:	4153      	adcs	r3, r2
    7560:	9303      	str	r3, [sp, #12]
    7562:	b672      	cpsid	i
    7564:	f3bf 8f5f 	dmb	sy
    7568:	2200      	movs	r2, #0
    756a:	4b3e      	ldr	r3, [pc, #248]	; (7664 <udi_cdc_tx_send+0x130>)
    756c:	701a      	strb	r2, [r3, #0]
    756e:	9d03      	ldr	r5, [sp, #12]
    7570:	4b3d      	ldr	r3, [pc, #244]	; (7668 <udi_cdc_tx_send+0x134>)
    7572:	781c      	ldrb	r4, [r3, #0]
    7574:	b2e4      	uxtb	r4, r4
    7576:	0062      	lsls	r2, r4, #1
    7578:	4b3c      	ldr	r3, [pc, #240]	; (766c <udi_cdc_tx_send+0x138>)
    757a:	5ad3      	ldrh	r3, [r2, r3]
    757c:	2b00      	cmp	r3, #0
    757e:	d030      	beq.n	75e2 <udi_cdc_tx_send+0xae>
    7580:	2200      	movs	r2, #0
    7582:	4b3b      	ldr	r3, [pc, #236]	; (7670 <udi_cdc_tx_send+0x13c>)
    7584:	801a      	strh	r2, [r3, #0]
    7586:	4b3b      	ldr	r3, [pc, #236]	; (7674 <udi_cdc_tx_send+0x140>)
    7588:	781b      	ldrb	r3, [r3, #0]
    758a:	2b00      	cmp	r3, #0
    758c:	d148      	bne.n	7620 <udi_cdc_tx_send+0xec>
    758e:	4263      	negs	r3, r4
    7590:	4163      	adcs	r3, r4
    7592:	b2db      	uxtb	r3, r3
    7594:	4a34      	ldr	r2, [pc, #208]	; (7668 <udi_cdc_tx_send+0x134>)
    7596:	7013      	strb	r3, [r2, #0]
    7598:	2201      	movs	r2, #1
    759a:	4b2e      	ldr	r3, [pc, #184]	; (7654 <udi_cdc_tx_send+0x120>)
    759c:	701a      	strb	r2, [r3, #0]
    759e:	2d00      	cmp	r5, #0
    75a0:	d004      	beq.n	75ac <udi_cdc_tx_send+0x78>
    75a2:	4b30      	ldr	r3, [pc, #192]	; (7664 <udi_cdc_tx_send+0x130>)
    75a4:	701a      	strb	r2, [r3, #0]
    75a6:	f3bf 8f5f 	dmb	sy
    75aa:	b662      	cpsie	i
    75ac:	0026      	movs	r6, r4
    75ae:	0063      	lsls	r3, r4, #1
    75b0:	4a2e      	ldr	r2, [pc, #184]	; (766c <udi_cdc_tx_send+0x138>)
    75b2:	5a9b      	ldrh	r3, [r3, r2]
    75b4:	001d      	movs	r5, r3
    75b6:	3d40      	subs	r5, #64	; 0x40
    75b8:	1e6a      	subs	r2, r5, #1
    75ba:	4195      	sbcs	r5, r2
    75bc:	b2ed      	uxtb	r5, r5
    75be:	2b40      	cmp	r3, #64	; 0x40
    75c0:	d037      	beq.n	7632 <udi_cdc_tx_send+0xfe>
    75c2:	4b25      	ldr	r3, [pc, #148]	; (7658 <udi_cdc_tx_send+0x124>)
    75c4:	4798      	blx	r3
    75c6:	2800      	cmp	r0, #0
    75c8:	d02e      	beq.n	7628 <udi_cdc_tx_send+0xf4>
    75ca:	4b25      	ldr	r3, [pc, #148]	; (7660 <udi_cdc_tx_send+0x12c>)
    75cc:	4798      	blx	r3
    75ce:	4b23      	ldr	r3, [pc, #140]	; (765c <udi_cdc_tx_send+0x128>)
    75d0:	8018      	strh	r0, [r3, #0]
    75d2:	e031      	b.n	7638 <udi_cdc_tx_send+0x104>
    75d4:	4b21      	ldr	r3, [pc, #132]	; (765c <udi_cdc_tx_send+0x128>)
    75d6:	881c      	ldrh	r4, [r3, #0]
    75d8:	4b27      	ldr	r3, [pc, #156]	; (7678 <udi_cdc_tx_send+0x144>)
    75da:	4798      	blx	r3
    75dc:	4284      	cmp	r4, r0
    75de:	d1bb      	bne.n	7558 <udi_cdc_tx_send+0x24>
    75e0:	e7ae      	b.n	7540 <udi_cdc_tx_send+0xc>
    75e2:	4a23      	ldr	r2, [pc, #140]	; (7670 <udi_cdc_tx_send+0x13c>)
    75e4:	8813      	ldrh	r3, [r2, #0]
    75e6:	3301      	adds	r3, #1
    75e8:	8013      	strh	r3, [r2, #0]
    75ea:	4b1b      	ldr	r3, [pc, #108]	; (7658 <udi_cdc_tx_send+0x124>)
    75ec:	4798      	blx	r3
    75ee:	2800      	cmp	r0, #0
    75f0:	d103      	bne.n	75fa <udi_cdc_tx_send+0xc6>
    75f2:	4b1f      	ldr	r3, [pc, #124]	; (7670 <udi_cdc_tx_send+0x13c>)
    75f4:	881b      	ldrh	r3, [r3, #0]
    75f6:	2b63      	cmp	r3, #99	; 0x63
    75f8:	d908      	bls.n	760c <udi_cdc_tx_send+0xd8>
    75fa:	4b17      	ldr	r3, [pc, #92]	; (7658 <udi_cdc_tx_send+0x124>)
    75fc:	4798      	blx	r3
    75fe:	2800      	cmp	r0, #0
    7600:	d0be      	beq.n	7580 <udi_cdc_tx_send+0x4c>
    7602:	4b1e      	ldr	r3, [pc, #120]	; (767c <udi_cdc_tx_send+0x148>)
    7604:	4a1a      	ldr	r2, [pc, #104]	; (7670 <udi_cdc_tx_send+0x13c>)
    7606:	8812      	ldrh	r2, [r2, #0]
    7608:	429a      	cmp	r2, r3
    760a:	d8b9      	bhi.n	7580 <udi_cdc_tx_send+0x4c>
    760c:	2d00      	cmp	r5, #0
    760e:	d100      	bne.n	7612 <udi_cdc_tx_send+0xde>
    7610:	e796      	b.n	7540 <udi_cdc_tx_send+0xc>
    7612:	2201      	movs	r2, #1
    7614:	4b13      	ldr	r3, [pc, #76]	; (7664 <udi_cdc_tx_send+0x130>)
    7616:	701a      	strb	r2, [r3, #0]
    7618:	f3bf 8f5f 	dmb	sy
    761c:	b662      	cpsie	i
    761e:	e78f      	b.n	7540 <udi_cdc_tx_send+0xc>
    7620:	4262      	negs	r2, r4
    7622:	4154      	adcs	r4, r2
    7624:	b2e4      	uxtb	r4, r4
    7626:	e7b7      	b.n	7598 <udi_cdc_tx_send+0x64>
    7628:	4b13      	ldr	r3, [pc, #76]	; (7678 <udi_cdc_tx_send+0x144>)
    762a:	4798      	blx	r3
    762c:	4b0b      	ldr	r3, [pc, #44]	; (765c <udi_cdc_tx_send+0x128>)
    762e:	8018      	strh	r0, [r3, #0]
    7630:	e002      	b.n	7638 <udi_cdc_tx_send+0x104>
    7632:	2200      	movs	r2, #0
    7634:	4b09      	ldr	r3, [pc, #36]	; (765c <udi_cdc_tx_send+0x128>)
    7636:	801a      	strh	r2, [r3, #0]
    7638:	0076      	lsls	r6, r6, #1
    763a:	4b0c      	ldr	r3, [pc, #48]	; (766c <udi_cdc_tx_send+0x138>)
    763c:	5af3      	ldrh	r3, [r6, r3]
    763e:	01a4      	lsls	r4, r4, #6
    7640:	4a0f      	ldr	r2, [pc, #60]	; (7680 <udi_cdc_tx_send+0x14c>)
    7642:	1914      	adds	r4, r2, r4
    7644:	4a0f      	ldr	r2, [pc, #60]	; (7684 <udi_cdc_tx_send+0x150>)
    7646:	9200      	str	r2, [sp, #0]
    7648:	0022      	movs	r2, r4
    764a:	0029      	movs	r1, r5
    764c:	2081      	movs	r0, #129	; 0x81
    764e:	4c0e      	ldr	r4, [pc, #56]	; (7688 <udi_cdc_tx_send+0x154>)
    7650:	47a0      	blx	r4
    7652:	e775      	b.n	7540 <udi_cdc_tx_send+0xc>
    7654:	20001074 	.word	0x20001074
    7658:	00005209 	.word	0x00005209
    765c:	20001070 	.word	0x20001070
    7660:	0000521d 	.word	0x0000521d
    7664:	20000108 	.word	0x20000108
    7668:	2000106c 	.word	0x2000106c
    766c:	20001068 	.word	0x20001068
    7670:	20000f40 	.word	0x20000f40
    7674:	20000fe4 	.word	0x20000fe4
    7678:	0000520d 	.word	0x0000520d
    767c:	0000031f 	.word	0x0000031f
    7680:	20000fe8 	.word	0x20000fe8
    7684:	0000768d 	.word	0x0000768d
    7688:	00005515 	.word	0x00005515

0000768c <udi_cdc_data_sent>:
    768c:	b510      	push	{r4, lr}
    768e:	2800      	cmp	r0, #0
    7690:	d000      	beq.n	7694 <udi_cdc_data_sent+0x8>
    7692:	bd10      	pop	{r4, pc}
    7694:	4b07      	ldr	r3, [pc, #28]	; (76b4 <udi_cdc_data_sent+0x28>)
    7696:	781b      	ldrb	r3, [r3, #0]
    7698:	425a      	negs	r2, r3
    769a:	4153      	adcs	r3, r2
    769c:	005b      	lsls	r3, r3, #1
    769e:	2200      	movs	r2, #0
    76a0:	4905      	ldr	r1, [pc, #20]	; (76b8 <udi_cdc_data_sent+0x2c>)
    76a2:	5258      	strh	r0, [r3, r1]
    76a4:	4b05      	ldr	r3, [pc, #20]	; (76bc <udi_cdc_data_sent+0x30>)
    76a6:	701a      	strb	r2, [r3, #0]
    76a8:	4b05      	ldr	r3, [pc, #20]	; (76c0 <udi_cdc_data_sent+0x34>)
    76aa:	701a      	strb	r2, [r3, #0]
    76ac:	4b05      	ldr	r3, [pc, #20]	; (76c4 <udi_cdc_data_sent+0x38>)
    76ae:	4798      	blx	r3
    76b0:	e7ef      	b.n	7692 <udi_cdc_data_sent+0x6>
    76b2:	46c0      	nop			; (mov r8, r8)
    76b4:	2000106c 	.word	0x2000106c
    76b8:	20001068 	.word	0x20001068
    76bc:	20000fe4 	.word	0x20000fe4
    76c0:	20001074 	.word	0x20001074
    76c4:	00007535 	.word	0x00007535

000076c8 <udi_cdc_data_sof_notify>:
    76c8:	b510      	push	{r4, lr}
    76ca:	2000      	movs	r0, #0
    76cc:	4b01      	ldr	r3, [pc, #4]	; (76d4 <udi_cdc_data_sof_notify+0xc>)
    76ce:	4798      	blx	r3
    76d0:	bd10      	pop	{r4, pc}
    76d2:	46c0      	nop			; (mov r8, r8)
    76d4:	00007535 	.word	0x00007535

000076d8 <udi_cdc_data_disable>:
    76d8:	b510      	push	{r4, lr}
    76da:	4a05      	ldr	r2, [pc, #20]	; (76f0 <udi_cdc_data_disable+0x18>)
    76dc:	7813      	ldrb	r3, [r2, #0]
    76de:	3b01      	subs	r3, #1
    76e0:	b2db      	uxtb	r3, r3
    76e2:	7013      	strb	r3, [r2, #0]
    76e4:	4b03      	ldr	r3, [pc, #12]	; (76f4 <udi_cdc_data_disable+0x1c>)
    76e6:	4798      	blx	r3
    76e8:	2200      	movs	r2, #0
    76ea:	4b03      	ldr	r3, [pc, #12]	; (76f8 <udi_cdc_data_disable+0x20>)
    76ec:	701a      	strb	r2, [r3, #0]
    76ee:	bd10      	pop	{r4, pc}
    76f0:	20000f4c 	.word	0x20000f4c
    76f4:	00002b8d 	.word	0x00002b8d
    76f8:	20000f42 	.word	0x20000f42

000076fc <udi_cdc_multi_get_nb_received_data>:
    76fc:	b082      	sub	sp, #8
    76fe:	f3ef 8310 	mrs	r3, PRIMASK
    7702:	425a      	negs	r2, r3
    7704:	4153      	adcs	r3, r2
    7706:	9301      	str	r3, [sp, #4]
    7708:	b672      	cpsid	i
    770a:	f3bf 8f5f 	dmb	sy
    770e:	2200      	movs	r2, #0
    7710:	4b0a      	ldr	r3, [pc, #40]	; (773c <udi_cdc_multi_get_nb_received_data+0x40>)
    7712:	701a      	strb	r2, [r3, #0]
    7714:	9a01      	ldr	r2, [sp, #4]
    7716:	4b0a      	ldr	r3, [pc, #40]	; (7740 <udi_cdc_multi_get_nb_received_data+0x44>)
    7718:	8819      	ldrh	r1, [r3, #0]
    771a:	4b0a      	ldr	r3, [pc, #40]	; (7744 <udi_cdc_multi_get_nb_received_data+0x48>)
    771c:	781b      	ldrb	r3, [r3, #0]
    771e:	005b      	lsls	r3, r3, #1
    7720:	4809      	ldr	r0, [pc, #36]	; (7748 <udi_cdc_multi_get_nb_received_data+0x4c>)
    7722:	5a18      	ldrh	r0, [r3, r0]
    7724:	1a40      	subs	r0, r0, r1
    7726:	2a00      	cmp	r2, #0
    7728:	d005      	beq.n	7736 <udi_cdc_multi_get_nb_received_data+0x3a>
    772a:	2201      	movs	r2, #1
    772c:	4b03      	ldr	r3, [pc, #12]	; (773c <udi_cdc_multi_get_nb_received_data+0x40>)
    772e:	701a      	strb	r2, [r3, #0]
    7730:	f3bf 8f5f 	dmb	sy
    7734:	b662      	cpsie	i
    7736:	b002      	add	sp, #8
    7738:	4770      	bx	lr
    773a:	46c0      	nop			; (mov r8, r8)
    773c:	20000108 	.word	0x20000108
    7740:	20000fd8 	.word	0x20000fd8
    7744:	20000fd4 	.word	0x20000fd4
    7748:	20000fd0 	.word	0x20000fd0

0000774c <udi_cdc_get_nb_received_data>:
    774c:	b510      	push	{r4, lr}
    774e:	2000      	movs	r0, #0
    7750:	4b01      	ldr	r3, [pc, #4]	; (7758 <udi_cdc_get_nb_received_data+0xc>)
    7752:	4798      	blx	r3
    7754:	bd10      	pop	{r4, pc}
    7756:	46c0      	nop			; (mov r8, r8)
    7758:	000076fd 	.word	0x000076fd

0000775c <udi_cdc_multi_is_rx_ready>:
    775c:	b510      	push	{r4, lr}
    775e:	4b03      	ldr	r3, [pc, #12]	; (776c <udi_cdc_multi_is_rx_ready+0x10>)
    7760:	4798      	blx	r3
    7762:	1e43      	subs	r3, r0, #1
    7764:	4198      	sbcs	r0, r3
    7766:	b2c0      	uxtb	r0, r0
    7768:	bd10      	pop	{r4, pc}
    776a:	46c0      	nop			; (mov r8, r8)
    776c:	000076fd 	.word	0x000076fd

00007770 <udi_cdc_rx_start>:
    7770:	b510      	push	{r4, lr}
    7772:	b084      	sub	sp, #16
    7774:	f3ef 8310 	mrs	r3, PRIMASK
    7778:	425a      	negs	r2, r3
    777a:	4153      	adcs	r3, r2
    777c:	9303      	str	r3, [sp, #12]
    777e:	b672      	cpsid	i
    7780:	f3bf 8f5f 	dmb	sy
    7784:	2200      	movs	r2, #0
    7786:	4b1f      	ldr	r3, [pc, #124]	; (7804 <udi_cdc_rx_start+0x94>)
    7788:	701a      	strb	r2, [r3, #0]
    778a:	9b03      	ldr	r3, [sp, #12]
    778c:	4a1e      	ldr	r2, [pc, #120]	; (7808 <udi_cdc_rx_start+0x98>)
    778e:	7814      	ldrb	r4, [r2, #0]
    7790:	b2e4      	uxtb	r4, r4
    7792:	4a1e      	ldr	r2, [pc, #120]	; (780c <udi_cdc_rx_start+0x9c>)
    7794:	7812      	ldrb	r2, [r2, #0]
    7796:	2a00      	cmp	r2, #0
    7798:	d107      	bne.n	77aa <udi_cdc_rx_start+0x3a>
    779a:	4a1d      	ldr	r2, [pc, #116]	; (7810 <udi_cdc_rx_start+0xa0>)
    779c:	8812      	ldrh	r2, [r2, #0]
    779e:	0061      	lsls	r1, r4, #1
    77a0:	481c      	ldr	r0, [pc, #112]	; (7814 <udi_cdc_rx_start+0xa4>)
    77a2:	5a09      	ldrh	r1, [r1, r0]
    77a4:	b292      	uxth	r2, r2
    77a6:	428a      	cmp	r2, r1
    77a8:	d20a      	bcs.n	77c0 <udi_cdc_rx_start+0x50>
    77aa:	2000      	movs	r0, #0
    77ac:	2b00      	cmp	r3, #0
    77ae:	d005      	beq.n	77bc <udi_cdc_rx_start+0x4c>
    77b0:	2201      	movs	r2, #1
    77b2:	4b14      	ldr	r3, [pc, #80]	; (7804 <udi_cdc_rx_start+0x94>)
    77b4:	701a      	strb	r2, [r3, #0]
    77b6:	f3bf 8f5f 	dmb	sy
    77ba:	b662      	cpsie	i
    77bc:	b004      	add	sp, #16
    77be:	bd10      	pop	{r4, pc}
    77c0:	2100      	movs	r1, #0
    77c2:	4a13      	ldr	r2, [pc, #76]	; (7810 <udi_cdc_rx_start+0xa0>)
    77c4:	8011      	strh	r1, [r2, #0]
    77c6:	4262      	negs	r2, r4
    77c8:	4162      	adcs	r2, r4
    77ca:	b2d2      	uxtb	r2, r2
    77cc:	490e      	ldr	r1, [pc, #56]	; (7808 <udi_cdc_rx_start+0x98>)
    77ce:	700a      	strb	r2, [r1, #0]
    77d0:	2101      	movs	r1, #1
    77d2:	4a0e      	ldr	r2, [pc, #56]	; (780c <udi_cdc_rx_start+0x9c>)
    77d4:	7011      	strb	r1, [r2, #0]
    77d6:	2b00      	cmp	r3, #0
    77d8:	d005      	beq.n	77e6 <udi_cdc_rx_start+0x76>
    77da:	2201      	movs	r2, #1
    77dc:	4b09      	ldr	r3, [pc, #36]	; (7804 <udi_cdc_rx_start+0x94>)
    77de:	701a      	strb	r2, [r3, #0]
    77e0:	f3bf 8f5f 	dmb	sy
    77e4:	b662      	cpsie	i
    77e6:	2000      	movs	r0, #0
    77e8:	4b0b      	ldr	r3, [pc, #44]	; (7818 <udi_cdc_rx_start+0xa8>)
    77ea:	4798      	blx	r3
    77ec:	01a4      	lsls	r4, r4, #6
    77ee:	4a0b      	ldr	r2, [pc, #44]	; (781c <udi_cdc_rx_start+0xac>)
    77f0:	1912      	adds	r2, r2, r4
    77f2:	4b0b      	ldr	r3, [pc, #44]	; (7820 <udi_cdc_rx_start+0xb0>)
    77f4:	9300      	str	r3, [sp, #0]
    77f6:	2340      	movs	r3, #64	; 0x40
    77f8:	2101      	movs	r1, #1
    77fa:	2002      	movs	r0, #2
    77fc:	4c09      	ldr	r4, [pc, #36]	; (7824 <udi_cdc_rx_start+0xb4>)
    77fe:	47a0      	blx	r4
    7800:	e7dc      	b.n	77bc <udi_cdc_rx_start+0x4c>
    7802:	46c0      	nop			; (mov r8, r8)
    7804:	20000108 	.word	0x20000108
    7808:	20000fd4 	.word	0x20000fd4
    780c:	20000fdc 	.word	0x20000fdc
    7810:	20000fd8 	.word	0x20000fd8
    7814:	20000fd0 	.word	0x20000fd0
    7818:	0000775d 	.word	0x0000775d
    781c:	20000f50 	.word	0x20000f50
    7820:	000078b9 	.word	0x000078b9
    7824:	00005515 	.word	0x00005515

00007828 <udi_cdc_data_enable>:
    7828:	b570      	push	{r4, r5, r6, lr}
    782a:	2400      	movs	r4, #0
    782c:	4b15      	ldr	r3, [pc, #84]	; (7884 <udi_cdc_data_enable+0x5c>)
    782e:	701c      	strb	r4, [r3, #0]
    7830:	4b15      	ldr	r3, [pc, #84]	; (7888 <udi_cdc_data_enable+0x60>)
    7832:	701c      	strb	r4, [r3, #0]
    7834:	4b15      	ldr	r3, [pc, #84]	; (788c <udi_cdc_data_enable+0x64>)
    7836:	701c      	strb	r4, [r3, #0]
    7838:	4b15      	ldr	r3, [pc, #84]	; (7890 <udi_cdc_data_enable+0x68>)
    783a:	701c      	strb	r4, [r3, #0]
    783c:	4b15      	ldr	r3, [pc, #84]	; (7894 <udi_cdc_data_enable+0x6c>)
    783e:	2500      	movs	r5, #0
    7840:	801c      	strh	r4, [r3, #0]
    7842:	805c      	strh	r4, [r3, #2]
    7844:	4b14      	ldr	r3, [pc, #80]	; (7898 <udi_cdc_data_enable+0x70>)
    7846:	801c      	strh	r4, [r3, #0]
    7848:	2000      	movs	r0, #0
    784a:	4b14      	ldr	r3, [pc, #80]	; (789c <udi_cdc_data_enable+0x74>)
    784c:	4798      	blx	r3
    784e:	4b14      	ldr	r3, [pc, #80]	; (78a0 <udi_cdc_data_enable+0x78>)
    7850:	701d      	strb	r5, [r3, #0]
    7852:	4b14      	ldr	r3, [pc, #80]	; (78a4 <udi_cdc_data_enable+0x7c>)
    7854:	701d      	strb	r5, [r3, #0]
    7856:	4b14      	ldr	r3, [pc, #80]	; (78a8 <udi_cdc_data_enable+0x80>)
    7858:	801c      	strh	r4, [r3, #0]
    785a:	805c      	strh	r4, [r3, #2]
    785c:	4b13      	ldr	r3, [pc, #76]	; (78ac <udi_cdc_data_enable+0x84>)
    785e:	801c      	strh	r4, [r3, #0]
    7860:	2000      	movs	r0, #0
    7862:	4b13      	ldr	r3, [pc, #76]	; (78b0 <udi_cdc_data_enable+0x88>)
    7864:	4798      	blx	r3
    7866:	2800      	cmp	r0, #0
    7868:	d007      	beq.n	787a <udi_cdc_data_enable+0x52>
    786a:	4a06      	ldr	r2, [pc, #24]	; (7884 <udi_cdc_data_enable+0x5c>)
    786c:	7813      	ldrb	r3, [r2, #0]
    786e:	3301      	adds	r3, #1
    7870:	b2db      	uxtb	r3, r3
    7872:	7013      	strb	r3, [r2, #0]
    7874:	7813      	ldrb	r3, [r2, #0]
    7876:	2b01      	cmp	r3, #1
    7878:	d000      	beq.n	787c <udi_cdc_data_enable+0x54>
    787a:	bd70      	pop	{r4, r5, r6, pc}
    787c:	2201      	movs	r2, #1
    787e:	4b0d      	ldr	r3, [pc, #52]	; (78b4 <udi_cdc_data_enable+0x8c>)
    7880:	701a      	strb	r2, [r3, #0]
    7882:	e7fa      	b.n	787a <udi_cdc_data_enable+0x52>
    7884:	20000f4c 	.word	0x20000f4c
    7888:	20001074 	.word	0x20001074
    788c:	20000fe4 	.word	0x20000fe4
    7890:	2000106c 	.word	0x2000106c
    7894:	20001068 	.word	0x20001068
    7898:	20001070 	.word	0x20001070
    789c:	00007535 	.word	0x00007535
    78a0:	20000fdc 	.word	0x20000fdc
    78a4:	20000fd4 	.word	0x20000fd4
    78a8:	20000fd0 	.word	0x20000fd0
    78ac:	20000fd8 	.word	0x20000fd8
    78b0:	00007771 	.word	0x00007771
    78b4:	20000f42 	.word	0x20000f42

000078b8 <udi_cdc_data_received>:
    78b8:	b510      	push	{r4, lr}
    78ba:	b082      	sub	sp, #8
    78bc:	0014      	movs	r4, r2
    78be:	2800      	cmp	r0, #0
    78c0:	d110      	bne.n	78e4 <udi_cdc_data_received+0x2c>
    78c2:	4b0f      	ldr	r3, [pc, #60]	; (7900 <udi_cdc_data_received+0x48>)
    78c4:	781a      	ldrb	r2, [r3, #0]
    78c6:	4253      	negs	r3, r2
    78c8:	415a      	adcs	r2, r3
    78ca:	b2d2      	uxtb	r2, r2
    78cc:	2900      	cmp	r1, #0
    78ce:	d00b      	beq.n	78e8 <udi_cdc_data_received+0x30>
    78d0:	b289      	uxth	r1, r1
    78d2:	0052      	lsls	r2, r2, #1
    78d4:	4b0b      	ldr	r3, [pc, #44]	; (7904 <udi_cdc_data_received+0x4c>)
    78d6:	52d1      	strh	r1, [r2, r3]
    78d8:	2200      	movs	r2, #0
    78da:	4b0b      	ldr	r3, [pc, #44]	; (7908 <udi_cdc_data_received+0x50>)
    78dc:	701a      	strb	r2, [r3, #0]
    78de:	2000      	movs	r0, #0
    78e0:	4b0a      	ldr	r3, [pc, #40]	; (790c <udi_cdc_data_received+0x54>)
    78e2:	4798      	blx	r3
    78e4:	b002      	add	sp, #8
    78e6:	bd10      	pop	{r4, pc}
    78e8:	0192      	lsls	r2, r2, #6
    78ea:	4b09      	ldr	r3, [pc, #36]	; (7910 <udi_cdc_data_received+0x58>)
    78ec:	189a      	adds	r2, r3, r2
    78ee:	4b09      	ldr	r3, [pc, #36]	; (7914 <udi_cdc_data_received+0x5c>)
    78f0:	9300      	str	r3, [sp, #0]
    78f2:	2340      	movs	r3, #64	; 0x40
    78f4:	3101      	adds	r1, #1
    78f6:	0020      	movs	r0, r4
    78f8:	4c07      	ldr	r4, [pc, #28]	; (7918 <udi_cdc_data_received+0x60>)
    78fa:	47a0      	blx	r4
    78fc:	e7f2      	b.n	78e4 <udi_cdc_data_received+0x2c>
    78fe:	46c0      	nop			; (mov r8, r8)
    7900:	20000fd4 	.word	0x20000fd4
    7904:	20000fd0 	.word	0x20000fd0
    7908:	20000fdc 	.word	0x20000fdc
    790c:	00007771 	.word	0x00007771
    7910:	20000f50 	.word	0x20000f50
    7914:	000078b9 	.word	0x000078b9
    7918:	00005515 	.word	0x00005515

0000791c <udi_cdc_multi_read_buf>:
    791c:	b5f0      	push	{r4, r5, r6, r7, lr}
    791e:	46de      	mov	lr, fp
    7920:	4657      	mov	r7, sl
    7922:	464e      	mov	r6, r9
    7924:	b5c0      	push	{r6, r7, lr}
    7926:	b082      	sub	sp, #8
    7928:	0015      	movs	r5, r2
    792a:	000e      	movs	r6, r1
    792c:	4b26      	ldr	r3, [pc, #152]	; (79c8 <udi_cdc_multi_read_buf+0xac>)
    792e:	469b      	mov	fp, r3
    7930:	2300      	movs	r3, #0
    7932:	469a      	mov	sl, r3
    7934:	4b25      	ldr	r3, [pc, #148]	; (79cc <udi_cdc_multi_read_buf+0xb0>)
    7936:	4699      	mov	r9, r3
    7938:	4f25      	ldr	r7, [pc, #148]	; (79d0 <udi_cdc_multi_read_buf+0xb4>)
    793a:	e01b      	b.n	7974 <udi_cdc_multi_read_buf+0x58>
    793c:	005a      	lsls	r2, r3, #1
    793e:	4825      	ldr	r0, [pc, #148]	; (79d4 <udi_cdc_multi_read_buf+0xb8>)
    7940:	5a12      	ldrh	r2, [r2, r0]
    7942:	1a52      	subs	r2, r2, r1
    7944:	002c      	movs	r4, r5
    7946:	4295      	cmp	r5, r2
    7948:	d900      	bls.n	794c <udi_cdc_multi_read_buf+0x30>
    794a:	0014      	movs	r4, r2
    794c:	019b      	lsls	r3, r3, #6
    794e:	185b      	adds	r3, r3, r1
    7950:	4921      	ldr	r1, [pc, #132]	; (79d8 <udi_cdc_multi_read_buf+0xbc>)
    7952:	18c9      	adds	r1, r1, r3
    7954:	0022      	movs	r2, r4
    7956:	0030      	movs	r0, r6
    7958:	4b20      	ldr	r3, [pc, #128]	; (79dc <udi_cdc_multi_read_buf+0xc0>)
    795a:	4798      	blx	r3
    795c:	4a1b      	ldr	r2, [pc, #108]	; (79cc <udi_cdc_multi_read_buf+0xb0>)
    795e:	8813      	ldrh	r3, [r2, #0]
    7960:	191b      	adds	r3, r3, r4
    7962:	b29b      	uxth	r3, r3
    7964:	8013      	strh	r3, [r2, #0]
    7966:	1936      	adds	r6, r6, r4
    7968:	1b2d      	subs	r5, r5, r4
    796a:	2000      	movs	r0, #0
    796c:	4b1c      	ldr	r3, [pc, #112]	; (79e0 <udi_cdc_multi_read_buf+0xc4>)
    796e:	4798      	blx	r3
    7970:	2d00      	cmp	r5, #0
    7972:	d022      	beq.n	79ba <udi_cdc_multi_read_buf+0x9e>
    7974:	f3ef 8310 	mrs	r3, PRIMASK
    7978:	425a      	negs	r2, r3
    797a:	4153      	adcs	r3, r2
    797c:	9301      	str	r3, [sp, #4]
    797e:	b672      	cpsid	i
    7980:	f3bf 8f5f 	dmb	sy
    7984:	465b      	mov	r3, fp
    7986:	4652      	mov	r2, sl
    7988:	701a      	strb	r2, [r3, #0]
    798a:	9801      	ldr	r0, [sp, #4]
    798c:	464b      	mov	r3, r9
    798e:	8819      	ldrh	r1, [r3, #0]
    7990:	b289      	uxth	r1, r1
    7992:	783b      	ldrb	r3, [r7, #0]
    7994:	b2db      	uxtb	r3, r3
    7996:	005c      	lsls	r4, r3, #1
    7998:	4a0e      	ldr	r2, [pc, #56]	; (79d4 <udi_cdc_multi_read_buf+0xb8>)
    799a:	5aa2      	ldrh	r2, [r4, r2]
    799c:	b292      	uxth	r2, r2
    799e:	2800      	cmp	r0, #0
    79a0:	d005      	beq.n	79ae <udi_cdc_multi_read_buf+0x92>
    79a2:	2401      	movs	r4, #1
    79a4:	4808      	ldr	r0, [pc, #32]	; (79c8 <udi_cdc_multi_read_buf+0xac>)
    79a6:	7004      	strb	r4, [r0, #0]
    79a8:	f3bf 8f5f 	dmb	sy
    79ac:	b662      	cpsie	i
    79ae:	4291      	cmp	r1, r2
    79b0:	d3c4      	bcc.n	793c <udi_cdc_multi_read_buf+0x20>
    79b2:	4b0c      	ldr	r3, [pc, #48]	; (79e4 <udi_cdc_multi_read_buf+0xc8>)
    79b4:	781b      	ldrb	r3, [r3, #0]
    79b6:	2b00      	cmp	r3, #0
    79b8:	d1dc      	bne.n	7974 <udi_cdc_multi_read_buf+0x58>
    79ba:	0028      	movs	r0, r5
    79bc:	b002      	add	sp, #8
    79be:	bc1c      	pop	{r2, r3, r4}
    79c0:	4691      	mov	r9, r2
    79c2:	469a      	mov	sl, r3
    79c4:	46a3      	mov	fp, r4
    79c6:	bdf0      	pop	{r4, r5, r6, r7, pc}
    79c8:	20000108 	.word	0x20000108
    79cc:	20000fd8 	.word	0x20000fd8
    79d0:	20000fd4 	.word	0x20000fd4
    79d4:	20000fd0 	.word	0x20000fd0
    79d8:	20000f50 	.word	0x20000f50
    79dc:	0000bded 	.word	0x0000bded
    79e0:	00007771 	.word	0x00007771
    79e4:	20000f42 	.word	0x20000f42

000079e8 <udi_cdc_read_buf>:
    79e8:	b510      	push	{r4, lr}
    79ea:	000a      	movs	r2, r1
    79ec:	0001      	movs	r1, r0
    79ee:	2000      	movs	r0, #0
    79f0:	4b01      	ldr	r3, [pc, #4]	; (79f8 <udi_cdc_read_buf+0x10>)
    79f2:	4798      	blx	r3
    79f4:	bd10      	pop	{r4, pc}
    79f6:	46c0      	nop			; (mov r8, r8)
    79f8:	0000791d 	.word	0x0000791d

000079fc <udi_cdc_multi_get_free_tx_buffer>:
    79fc:	b082      	sub	sp, #8
    79fe:	f3ef 8310 	mrs	r3, PRIMASK
    7a02:	425a      	negs	r2, r3
    7a04:	4153      	adcs	r3, r2
    7a06:	9301      	str	r3, [sp, #4]
    7a08:	b672      	cpsid	i
    7a0a:	f3bf 8f5f 	dmb	sy
    7a0e:	2200      	movs	r2, #0
    7a10:	4b14      	ldr	r3, [pc, #80]	; (7a64 <udi_cdc_multi_get_free_tx_buffer+0x68>)
    7a12:	701a      	strb	r2, [r3, #0]
    7a14:	9901      	ldr	r1, [sp, #4]
    7a16:	4b14      	ldr	r3, [pc, #80]	; (7a68 <udi_cdc_multi_get_free_tx_buffer+0x6c>)
    7a18:	781b      	ldrb	r3, [r3, #0]
    7a1a:	b2db      	uxtb	r3, r3
    7a1c:	0058      	lsls	r0, r3, #1
    7a1e:	4a13      	ldr	r2, [pc, #76]	; (7a6c <udi_cdc_multi_get_free_tx_buffer+0x70>)
    7a20:	5a82      	ldrh	r2, [r0, r2]
    7a22:	2a40      	cmp	r2, #64	; 0x40
    7a24:	d00b      	beq.n	7a3e <udi_cdc_multi_get_free_tx_buffer+0x42>
    7a26:	2040      	movs	r0, #64	; 0x40
    7a28:	1a80      	subs	r0, r0, r2
    7a2a:	2900      	cmp	r1, #0
    7a2c:	d005      	beq.n	7a3a <udi_cdc_multi_get_free_tx_buffer+0x3e>
    7a2e:	2201      	movs	r2, #1
    7a30:	4b0c      	ldr	r3, [pc, #48]	; (7a64 <udi_cdc_multi_get_free_tx_buffer+0x68>)
    7a32:	701a      	strb	r2, [r3, #0]
    7a34:	f3bf 8f5f 	dmb	sy
    7a38:	b662      	cpsie	i
    7a3a:	b002      	add	sp, #8
    7a3c:	4770      	bx	lr
    7a3e:	480c      	ldr	r0, [pc, #48]	; (7a70 <udi_cdc_multi_get_free_tx_buffer+0x74>)
    7a40:	7800      	ldrb	r0, [r0, #0]
    7a42:	2800      	cmp	r0, #0
    7a44:	d1ef      	bne.n	7a26 <udi_cdc_multi_get_free_tx_buffer+0x2a>
    7a46:	480b      	ldr	r0, [pc, #44]	; (7a74 <udi_cdc_multi_get_free_tx_buffer+0x78>)
    7a48:	7800      	ldrb	r0, [r0, #0]
    7a4a:	2800      	cmp	r0, #0
    7a4c:	d1eb      	bne.n	7a26 <udi_cdc_multi_get_free_tx_buffer+0x2a>
    7a4e:	3001      	adds	r0, #1
    7a50:	4a08      	ldr	r2, [pc, #32]	; (7a74 <udi_cdc_multi_get_free_tx_buffer+0x78>)
    7a52:	7010      	strb	r0, [r2, #0]
    7a54:	425a      	negs	r2, r3
    7a56:	4153      	adcs	r3, r2
    7a58:	b2db      	uxtb	r3, r3
    7a5a:	4a03      	ldr	r2, [pc, #12]	; (7a68 <udi_cdc_multi_get_free_tx_buffer+0x6c>)
    7a5c:	7013      	strb	r3, [r2, #0]
    7a5e:	2200      	movs	r2, #0
    7a60:	e7e1      	b.n	7a26 <udi_cdc_multi_get_free_tx_buffer+0x2a>
    7a62:	46c0      	nop			; (mov r8, r8)
    7a64:	20000108 	.word	0x20000108
    7a68:	2000106c 	.word	0x2000106c
    7a6c:	20001068 	.word	0x20001068
    7a70:	20001074 	.word	0x20001074
    7a74:	20000fe4 	.word	0x20000fe4

00007a78 <udi_cdc_multi_is_tx_ready>:
    7a78:	b510      	push	{r4, lr}
    7a7a:	4b03      	ldr	r3, [pc, #12]	; (7a88 <udi_cdc_multi_is_tx_ready+0x10>)
    7a7c:	4798      	blx	r3
    7a7e:	1e43      	subs	r3, r0, #1
    7a80:	4198      	sbcs	r0, r3
    7a82:	b2c0      	uxtb	r0, r0
    7a84:	bd10      	pop	{r4, pc}
    7a86:	46c0      	nop			; (mov r8, r8)
    7a88:	000079fd 	.word	0x000079fd

00007a8c <udi_cdc_multi_write_buf>:
    7a8c:	b5f0      	push	{r4, r5, r6, r7, lr}
    7a8e:	46de      	mov	lr, fp
    7a90:	4657      	mov	r7, sl
    7a92:	464e      	mov	r6, r9
    7a94:	4645      	mov	r5, r8
    7a96:	b5e0      	push	{r5, r6, r7, lr}
    7a98:	b083      	sub	sp, #12
    7a9a:	0017      	movs	r7, r2
    7a9c:	4b26      	ldr	r3, [pc, #152]	; (7b38 <udi_cdc_multi_write_buf+0xac>)
    7a9e:	799b      	ldrb	r3, [r3, #6]
    7aa0:	2b09      	cmp	r3, #9
    7aa2:	d005      	beq.n	7ab0 <udi_cdc_multi_write_buf+0x24>
    7aa4:	4688      	mov	r8, r1
    7aa6:	4b25      	ldr	r3, [pc, #148]	; (7b3c <udi_cdc_multi_write_buf+0xb0>)
    7aa8:	4699      	mov	r9, r3
    7aaa:	4b25      	ldr	r3, [pc, #148]	; (7b40 <udi_cdc_multi_write_buf+0xb4>)
    7aac:	469b      	mov	fp, r3
    7aae:	e032      	b.n	7b16 <udi_cdc_multi_write_buf+0x8a>
    7ab0:	0057      	lsls	r7, r2, #1
    7ab2:	e7f7      	b.n	7aa4 <udi_cdc_multi_write_buf+0x18>
    7ab4:	f3ef 8310 	mrs	r3, PRIMASK
    7ab8:	425a      	negs	r2, r3
    7aba:	4153      	adcs	r3, r2
    7abc:	9301      	str	r3, [sp, #4]
    7abe:	b672      	cpsid	i
    7ac0:	f3bf 8f5f 	dmb	sy
    7ac4:	2300      	movs	r3, #0
    7ac6:	465a      	mov	r2, fp
    7ac8:	7013      	strb	r3, [r2, #0]
    7aca:	9b01      	ldr	r3, [sp, #4]
    7acc:	469a      	mov	sl, r3
    7ace:	4b1d      	ldr	r3, [pc, #116]	; (7b44 <udi_cdc_multi_write_buf+0xb8>)
    7ad0:	781c      	ldrb	r4, [r3, #0]
    7ad2:	b2e4      	uxtb	r4, r4
    7ad4:	0062      	lsls	r2, r4, #1
    7ad6:	4b1c      	ldr	r3, [pc, #112]	; (7b48 <udi_cdc_multi_write_buf+0xbc>)
    7ad8:	5ad5      	ldrh	r5, [r2, r3]
    7ada:	2340      	movs	r3, #64	; 0x40
    7adc:	1b5b      	subs	r3, r3, r5
    7ade:	003e      	movs	r6, r7
    7ae0:	429f      	cmp	r7, r3
    7ae2:	d900      	bls.n	7ae6 <udi_cdc_multi_write_buf+0x5a>
    7ae4:	001e      	movs	r6, r3
    7ae6:	01a3      	lsls	r3, r4, #6
    7ae8:	195b      	adds	r3, r3, r5
    7aea:	4818      	ldr	r0, [pc, #96]	; (7b4c <udi_cdc_multi_write_buf+0xc0>)
    7aec:	18c0      	adds	r0, r0, r3
    7aee:	0032      	movs	r2, r6
    7af0:	4641      	mov	r1, r8
    7af2:	4b17      	ldr	r3, [pc, #92]	; (7b50 <udi_cdc_multi_write_buf+0xc4>)
    7af4:	4798      	blx	r3
    7af6:	0064      	lsls	r4, r4, #1
    7af8:	19ad      	adds	r5, r5, r6
    7afa:	4b13      	ldr	r3, [pc, #76]	; (7b48 <udi_cdc_multi_write_buf+0xbc>)
    7afc:	52e5      	strh	r5, [r4, r3]
    7afe:	4653      	mov	r3, sl
    7b00:	2b00      	cmp	r3, #0
    7b02:	d005      	beq.n	7b10 <udi_cdc_multi_write_buf+0x84>
    7b04:	2201      	movs	r2, #1
    7b06:	4b0e      	ldr	r3, [pc, #56]	; (7b40 <udi_cdc_multi_write_buf+0xb4>)
    7b08:	701a      	strb	r2, [r3, #0]
    7b0a:	f3bf 8f5f 	dmb	sy
    7b0e:	b662      	cpsie	i
    7b10:	44b0      	add	r8, r6
    7b12:	1bbf      	subs	r7, r7, r6
    7b14:	d007      	beq.n	7b26 <udi_cdc_multi_write_buf+0x9a>
    7b16:	2000      	movs	r0, #0
    7b18:	47c8      	blx	r9
    7b1a:	2800      	cmp	r0, #0
    7b1c:	d1ca      	bne.n	7ab4 <udi_cdc_multi_write_buf+0x28>
    7b1e:	4b0d      	ldr	r3, [pc, #52]	; (7b54 <udi_cdc_multi_write_buf+0xc8>)
    7b20:	781b      	ldrb	r3, [r3, #0]
    7b22:	2b00      	cmp	r3, #0
    7b24:	d1f7      	bne.n	7b16 <udi_cdc_multi_write_buf+0x8a>
    7b26:	0038      	movs	r0, r7
    7b28:	b003      	add	sp, #12
    7b2a:	bc3c      	pop	{r2, r3, r4, r5}
    7b2c:	4690      	mov	r8, r2
    7b2e:	4699      	mov	r9, r3
    7b30:	46a2      	mov	sl, r4
    7b32:	46ab      	mov	fp, r5
    7b34:	bdf0      	pop	{r4, r5, r6, r7, pc}
    7b36:	46c0      	nop			; (mov r8, r8)
    7b38:	20000f44 	.word	0x20000f44
    7b3c:	00007a79 	.word	0x00007a79
    7b40:	20000108 	.word	0x20000108
    7b44:	2000106c 	.word	0x2000106c
    7b48:	20001068 	.word	0x20001068
    7b4c:	20000fe8 	.word	0x20000fe8
    7b50:	0000bded 	.word	0x0000bded
    7b54:	20000f42 	.word	0x20000f42

00007b58 <udi_cdc_write_buf>:
    7b58:	b510      	push	{r4, lr}
    7b5a:	000a      	movs	r2, r1
    7b5c:	0001      	movs	r1, r0
    7b5e:	2000      	movs	r0, #0
    7b60:	4b01      	ldr	r3, [pc, #4]	; (7b68 <udi_cdc_write_buf+0x10>)
    7b62:	4798      	blx	r3
    7b64:	bd10      	pop	{r4, pc}
    7b66:	46c0      	nop			; (mov r8, r8)
    7b68:	00007a8d 	.word	0x00007a8d

00007b6c <udc_next_desc_in_iface>:
    7b6c:	b510      	push	{r4, lr}
    7b6e:	4b11      	ldr	r3, [pc, #68]	; (7bb4 <udc_next_desc_in_iface+0x48>)
    7b70:	681b      	ldr	r3, [r3, #0]
    7b72:	681a      	ldr	r2, [r3, #0]
    7b74:	7894      	ldrb	r4, [r2, #2]
    7b76:	78d3      	ldrb	r3, [r2, #3]
    7b78:	021b      	lsls	r3, r3, #8
    7b7a:	4323      	orrs	r3, r4
    7b7c:	18d2      	adds	r2, r2, r3
    7b7e:	7803      	ldrb	r3, [r0, #0]
    7b80:	18c0      	adds	r0, r0, r3
    7b82:	4290      	cmp	r0, r2
    7b84:	d210      	bcs.n	7ba8 <udc_next_desc_in_iface+0x3c>
    7b86:	7843      	ldrb	r3, [r0, #1]
    7b88:	2b04      	cmp	r3, #4
    7b8a:	d00f      	beq.n	7bac <udc_next_desc_in_iface+0x40>
    7b8c:	428b      	cmp	r3, r1
    7b8e:	d00a      	beq.n	7ba6 <udc_next_desc_in_iface+0x3a>
    7b90:	7803      	ldrb	r3, [r0, #0]
    7b92:	18c0      	adds	r0, r0, r3
    7b94:	4290      	cmp	r0, r2
    7b96:	d205      	bcs.n	7ba4 <udc_next_desc_in_iface+0x38>
    7b98:	7843      	ldrb	r3, [r0, #1]
    7b9a:	2b04      	cmp	r3, #4
    7b9c:	d008      	beq.n	7bb0 <udc_next_desc_in_iface+0x44>
    7b9e:	428b      	cmp	r3, r1
    7ba0:	d1f6      	bne.n	7b90 <udc_next_desc_in_iface+0x24>
    7ba2:	e000      	b.n	7ba6 <udc_next_desc_in_iface+0x3a>
    7ba4:	2000      	movs	r0, #0
    7ba6:	bd10      	pop	{r4, pc}
    7ba8:	2000      	movs	r0, #0
    7baa:	e7fc      	b.n	7ba6 <udc_next_desc_in_iface+0x3a>
    7bac:	2000      	movs	r0, #0
    7bae:	e7fa      	b.n	7ba6 <udc_next_desc_in_iface+0x3a>
    7bb0:	2000      	movs	r0, #0
    7bb2:	e7f8      	b.n	7ba6 <udc_next_desc_in_iface+0x3a>
    7bb4:	20001090 	.word	0x20001090

00007bb8 <udc_valid_address>:
    7bb8:	b510      	push	{r4, lr}
    7bba:	4b03      	ldr	r3, [pc, #12]	; (7bc8 <udc_valid_address+0x10>)
    7bbc:	885b      	ldrh	r3, [r3, #2]
    7bbe:	207f      	movs	r0, #127	; 0x7f
    7bc0:	4018      	ands	r0, r3
    7bc2:	4b02      	ldr	r3, [pc, #8]	; (7bcc <udc_valid_address+0x14>)
    7bc4:	4798      	blx	r3
    7bc6:	bd10      	pop	{r4, pc}
    7bc8:	20002858 	.word	0x20002858
    7bcc:	000056ed 	.word	0x000056ed

00007bd0 <udc_update_iface_desc>:
    7bd0:	b570      	push	{r4, r5, r6, lr}
    7bd2:	4b19      	ldr	r3, [pc, #100]	; (7c38 <udc_update_iface_desc+0x68>)
    7bd4:	781b      	ldrb	r3, [r3, #0]
    7bd6:	2200      	movs	r2, #0
    7bd8:	2b00      	cmp	r3, #0
    7bda:	d029      	beq.n	7c30 <udc_update_iface_desc+0x60>
    7bdc:	4b17      	ldr	r3, [pc, #92]	; (7c3c <udc_update_iface_desc+0x6c>)
    7bde:	681b      	ldr	r3, [r3, #0]
    7be0:	681b      	ldr	r3, [r3, #0]
    7be2:	791c      	ldrb	r4, [r3, #4]
    7be4:	4284      	cmp	r4, r0
    7be6:	d923      	bls.n	7c30 <udc_update_iface_desc+0x60>
    7be8:	4a15      	ldr	r2, [pc, #84]	; (7c40 <udc_update_iface_desc+0x70>)
    7bea:	6013      	str	r3, [r2, #0]
    7bec:	789a      	ldrb	r2, [r3, #2]
    7bee:	78dc      	ldrb	r4, [r3, #3]
    7bf0:	0224      	lsls	r4, r4, #8
    7bf2:	4314      	orrs	r4, r2
    7bf4:	191c      	adds	r4, r3, r4
    7bf6:	42a3      	cmp	r3, r4
    7bf8:	d21c      	bcs.n	7c34 <udc_update_iface_desc+0x64>
    7bfa:	2500      	movs	r5, #0
    7bfc:	2601      	movs	r6, #1
    7bfe:	e007      	b.n	7c10 <udc_update_iface_desc+0x40>
    7c00:	4a0f      	ldr	r2, [pc, #60]	; (7c40 <udc_update_iface_desc+0x70>)
    7c02:	6013      	str	r3, [r2, #0]
    7c04:	e00f      	b.n	7c26 <udc_update_iface_desc+0x56>
    7c06:	781a      	ldrb	r2, [r3, #0]
    7c08:	189b      	adds	r3, r3, r2
    7c0a:	0035      	movs	r5, r6
    7c0c:	42a3      	cmp	r3, r4
    7c0e:	d20c      	bcs.n	7c2a <udc_update_iface_desc+0x5a>
    7c10:	785a      	ldrb	r2, [r3, #1]
    7c12:	2a04      	cmp	r2, #4
    7c14:	d1f7      	bne.n	7c06 <udc_update_iface_desc+0x36>
    7c16:	789a      	ldrb	r2, [r3, #2]
    7c18:	4282      	cmp	r2, r0
    7c1a:	d1f4      	bne.n	7c06 <udc_update_iface_desc+0x36>
    7c1c:	78da      	ldrb	r2, [r3, #3]
    7c1e:	428a      	cmp	r2, r1
    7c20:	d1f1      	bne.n	7c06 <udc_update_iface_desc+0x36>
    7c22:	2d00      	cmp	r5, #0
    7c24:	d1ec      	bne.n	7c00 <udc_update_iface_desc+0x30>
    7c26:	2201      	movs	r2, #1
    7c28:	e002      	b.n	7c30 <udc_update_iface_desc+0x60>
    7c2a:	4a05      	ldr	r2, [pc, #20]	; (7c40 <udc_update_iface_desc+0x70>)
    7c2c:	6013      	str	r3, [r2, #0]
    7c2e:	2200      	movs	r2, #0
    7c30:	0010      	movs	r0, r2
    7c32:	bd70      	pop	{r4, r5, r6, pc}
    7c34:	2200      	movs	r2, #0
    7c36:	e7fb      	b.n	7c30 <udc_update_iface_desc+0x60>
    7c38:	2000108c 	.word	0x2000108c
    7c3c:	20001090 	.word	0x20001090
    7c40:	20001094 	.word	0x20001094

00007c44 <udc_iface_disable>:
    7c44:	b5f0      	push	{r4, r5, r6, r7, lr}
    7c46:	46c6      	mov	lr, r8
    7c48:	b500      	push	{lr}
    7c4a:	0004      	movs	r4, r0
    7c4c:	2100      	movs	r1, #0
    7c4e:	4b13      	ldr	r3, [pc, #76]	; (7c9c <udc_iface_disable+0x58>)
    7c50:	4798      	blx	r3
    7c52:	1e05      	subs	r5, r0, #0
    7c54:	d103      	bne.n	7c5e <udc_iface_disable+0x1a>
    7c56:	0028      	movs	r0, r5
    7c58:	bc04      	pop	{r2}
    7c5a:	4690      	mov	r8, r2
    7c5c:	bdf0      	pop	{r4, r5, r6, r7, pc}
    7c5e:	4b10      	ldr	r3, [pc, #64]	; (7ca0 <udc_iface_disable+0x5c>)
    7c60:	681b      	ldr	r3, [r3, #0]
    7c62:	685b      	ldr	r3, [r3, #4]
    7c64:	00a2      	lsls	r2, r4, #2
    7c66:	58d3      	ldr	r3, [r2, r3]
    7c68:	4698      	mov	r8, r3
    7c6a:	68db      	ldr	r3, [r3, #12]
    7c6c:	4798      	blx	r3
    7c6e:	0001      	movs	r1, r0
    7c70:	0020      	movs	r0, r4
    7c72:	4b0a      	ldr	r3, [pc, #40]	; (7c9c <udc_iface_disable+0x58>)
    7c74:	4798      	blx	r3
    7c76:	1e05      	subs	r5, r0, #0
    7c78:	d0ed      	beq.n	7c56 <udc_iface_disable+0x12>
    7c7a:	4b0a      	ldr	r3, [pc, #40]	; (7ca4 <udc_iface_disable+0x60>)
    7c7c:	681c      	ldr	r4, [r3, #0]
    7c7e:	4e0a      	ldr	r6, [pc, #40]	; (7ca8 <udc_iface_disable+0x64>)
    7c80:	4f0a      	ldr	r7, [pc, #40]	; (7cac <udc_iface_disable+0x68>)
    7c82:	2105      	movs	r1, #5
    7c84:	0020      	movs	r0, r4
    7c86:	47b0      	blx	r6
    7c88:	1e04      	subs	r4, r0, #0
    7c8a:	d002      	beq.n	7c92 <udc_iface_disable+0x4e>
    7c8c:	7880      	ldrb	r0, [r0, #2]
    7c8e:	47b8      	blx	r7
    7c90:	e7f7      	b.n	7c82 <udc_iface_disable+0x3e>
    7c92:	4643      	mov	r3, r8
    7c94:	685b      	ldr	r3, [r3, #4]
    7c96:	4798      	blx	r3
    7c98:	e7dd      	b.n	7c56 <udc_iface_disable+0x12>
    7c9a:	46c0      	nop			; (mov r8, r8)
    7c9c:	00007bd1 	.word	0x00007bd1
    7ca0:	20001090 	.word	0x20001090
    7ca4:	20001094 	.word	0x20001094
    7ca8:	00007b6d 	.word	0x00007b6d
    7cac:	0000522d 	.word	0x0000522d

00007cb0 <udc_iface_enable>:
    7cb0:	b5f8      	push	{r3, r4, r5, r6, r7, lr}
    7cb2:	0005      	movs	r5, r0
    7cb4:	4b0f      	ldr	r3, [pc, #60]	; (7cf4 <udc_iface_enable+0x44>)
    7cb6:	4798      	blx	r3
    7cb8:	2800      	cmp	r0, #0
    7cba:	d019      	beq.n	7cf0 <udc_iface_enable+0x40>
    7cbc:	4b0e      	ldr	r3, [pc, #56]	; (7cf8 <udc_iface_enable+0x48>)
    7cbe:	681c      	ldr	r4, [r3, #0]
    7cc0:	4e0e      	ldr	r6, [pc, #56]	; (7cfc <udc_iface_enable+0x4c>)
    7cc2:	4f0f      	ldr	r7, [pc, #60]	; (7d00 <udc_iface_enable+0x50>)
    7cc4:	2105      	movs	r1, #5
    7cc6:	0020      	movs	r0, r4
    7cc8:	47b0      	blx	r6
    7cca:	1e04      	subs	r4, r0, #0
    7ccc:	d009      	beq.n	7ce2 <udc_iface_enable+0x32>
    7cce:	7903      	ldrb	r3, [r0, #4]
    7cd0:	7942      	ldrb	r2, [r0, #5]
    7cd2:	0212      	lsls	r2, r2, #8
    7cd4:	431a      	orrs	r2, r3
    7cd6:	78c1      	ldrb	r1, [r0, #3]
    7cd8:	7880      	ldrb	r0, [r0, #2]
    7cda:	47b8      	blx	r7
    7cdc:	2800      	cmp	r0, #0
    7cde:	d1f1      	bne.n	7cc4 <udc_iface_enable+0x14>
    7ce0:	e006      	b.n	7cf0 <udc_iface_enable+0x40>
    7ce2:	4b08      	ldr	r3, [pc, #32]	; (7d04 <udc_iface_enable+0x54>)
    7ce4:	681b      	ldr	r3, [r3, #0]
    7ce6:	685b      	ldr	r3, [r3, #4]
    7ce8:	00ad      	lsls	r5, r5, #2
    7cea:	58eb      	ldr	r3, [r5, r3]
    7cec:	681b      	ldr	r3, [r3, #0]
    7cee:	4798      	blx	r3
    7cf0:	bdf8      	pop	{r3, r4, r5, r6, r7, pc}
    7cf2:	46c0      	nop			; (mov r8, r8)
    7cf4:	00007bd1 	.word	0x00007bd1
    7cf8:	20001094 	.word	0x20001094
    7cfc:	00007b6d 	.word	0x00007b6d
    7d00:	00005285 	.word	0x00005285
    7d04:	20001090 	.word	0x20001090

00007d08 <udc_start>:
    7d08:	b510      	push	{r4, lr}
    7d0a:	4b01      	ldr	r3, [pc, #4]	; (7d10 <udc_start+0x8>)
    7d0c:	4798      	blx	r3
    7d0e:	bd10      	pop	{r4, pc}
    7d10:	0000579d 	.word	0x0000579d

00007d14 <udc_reset>:
    7d14:	b570      	push	{r4, r5, r6, lr}
    7d16:	4b0e      	ldr	r3, [pc, #56]	; (7d50 <udc_reset+0x3c>)
    7d18:	781b      	ldrb	r3, [r3, #0]
    7d1a:	2b00      	cmp	r3, #0
    7d1c:	d011      	beq.n	7d42 <udc_reset+0x2e>
    7d1e:	4b0d      	ldr	r3, [pc, #52]	; (7d54 <udc_reset+0x40>)
    7d20:	681b      	ldr	r3, [r3, #0]
    7d22:	681b      	ldr	r3, [r3, #0]
    7d24:	791b      	ldrb	r3, [r3, #4]
    7d26:	2b00      	cmp	r3, #0
    7d28:	d00b      	beq.n	7d42 <udc_reset+0x2e>
    7d2a:	2400      	movs	r4, #0
    7d2c:	4e0a      	ldr	r6, [pc, #40]	; (7d58 <udc_reset+0x44>)
    7d2e:	4d09      	ldr	r5, [pc, #36]	; (7d54 <udc_reset+0x40>)
    7d30:	0020      	movs	r0, r4
    7d32:	47b0      	blx	r6
    7d34:	3401      	adds	r4, #1
    7d36:	b2e4      	uxtb	r4, r4
    7d38:	682b      	ldr	r3, [r5, #0]
    7d3a:	681b      	ldr	r3, [r3, #0]
    7d3c:	791b      	ldrb	r3, [r3, #4]
    7d3e:	42a3      	cmp	r3, r4
    7d40:	d8f6      	bhi.n	7d30 <udc_reset+0x1c>
    7d42:	2300      	movs	r3, #0
    7d44:	4a02      	ldr	r2, [pc, #8]	; (7d50 <udc_reset+0x3c>)
    7d46:	7013      	strb	r3, [r2, #0]
    7d48:	4a04      	ldr	r2, [pc, #16]	; (7d5c <udc_reset+0x48>)
    7d4a:	8013      	strh	r3, [r2, #0]
    7d4c:	bd70      	pop	{r4, r5, r6, pc}
    7d4e:	46c0      	nop			; (mov r8, r8)
    7d50:	2000108c 	.word	0x2000108c
    7d54:	20001090 	.word	0x20001090
    7d58:	00007c45 	.word	0x00007c45
    7d5c:	20001082 	.word	0x20001082

00007d60 <udc_sof_notify>:
    7d60:	b570      	push	{r4, r5, r6, lr}
    7d62:	4b0e      	ldr	r3, [pc, #56]	; (7d9c <udc_sof_notify+0x3c>)
    7d64:	781b      	ldrb	r3, [r3, #0]
    7d66:	2b00      	cmp	r3, #0
    7d68:	d017      	beq.n	7d9a <udc_sof_notify+0x3a>
    7d6a:	4b0d      	ldr	r3, [pc, #52]	; (7da0 <udc_sof_notify+0x40>)
    7d6c:	681b      	ldr	r3, [r3, #0]
    7d6e:	681a      	ldr	r2, [r3, #0]
    7d70:	7912      	ldrb	r2, [r2, #4]
    7d72:	2a00      	cmp	r2, #0
    7d74:	d011      	beq.n	7d9a <udc_sof_notify+0x3a>
    7d76:	2400      	movs	r4, #0
    7d78:	4d09      	ldr	r5, [pc, #36]	; (7da0 <udc_sof_notify+0x40>)
    7d7a:	e006      	b.n	7d8a <udc_sof_notify+0x2a>
    7d7c:	3401      	adds	r4, #1
    7d7e:	b2e4      	uxtb	r4, r4
    7d80:	682b      	ldr	r3, [r5, #0]
    7d82:	681a      	ldr	r2, [r3, #0]
    7d84:	7912      	ldrb	r2, [r2, #4]
    7d86:	42a2      	cmp	r2, r4
    7d88:	d907      	bls.n	7d9a <udc_sof_notify+0x3a>
    7d8a:	685b      	ldr	r3, [r3, #4]
    7d8c:	00a2      	lsls	r2, r4, #2
    7d8e:	58d3      	ldr	r3, [r2, r3]
    7d90:	691b      	ldr	r3, [r3, #16]
    7d92:	2b00      	cmp	r3, #0
    7d94:	d0f2      	beq.n	7d7c <udc_sof_notify+0x1c>
    7d96:	4798      	blx	r3
    7d98:	e7f0      	b.n	7d7c <udc_sof_notify+0x1c>
    7d9a:	bd70      	pop	{r4, r5, r6, pc}
    7d9c:	2000108c 	.word	0x2000108c
    7da0:	20001090 	.word	0x20001090

00007da4 <udc_process_setup>:
    7da4:	b5f8      	push	{r3, r4, r5, r6, r7, lr}
    7da6:	4bab      	ldr	r3, [pc, #684]	; (8054 <udc_process_setup+0x2b0>)
    7da8:	2200      	movs	r2, #0
    7daa:	819a      	strh	r2, [r3, #12]
    7dac:	611a      	str	r2, [r3, #16]
    7dae:	615a      	str	r2, [r3, #20]
    7db0:	781b      	ldrb	r3, [r3, #0]
    7db2:	b25a      	sxtb	r2, r3
    7db4:	2a00      	cmp	r2, #0
    7db6:	db13      	blt.n	7de0 <udc_process_setup+0x3c>
    7db8:	2260      	movs	r2, #96	; 0x60
    7dba:	421a      	tst	r2, r3
    7dbc:	d100      	bne.n	7dc0 <udc_process_setup+0x1c>
    7dbe:	e0d7      	b.n	7f70 <udc_process_setup+0x1cc>
    7dc0:	4ba4      	ldr	r3, [pc, #656]	; (8054 <udc_process_setup+0x2b0>)
    7dc2:	781a      	ldrb	r2, [r3, #0]
    7dc4:	231f      	movs	r3, #31
    7dc6:	4013      	ands	r3, r2
    7dc8:	2b01      	cmp	r3, #1
    7dca:	d100      	bne.n	7dce <udc_process_setup+0x2a>
    7dcc:	e174      	b.n	80b8 <udc_process_setup+0x314>
    7dce:	4ba1      	ldr	r3, [pc, #644]	; (8054 <udc_process_setup+0x2b0>)
    7dd0:	781a      	ldrb	r2, [r3, #0]
    7dd2:	231f      	movs	r3, #31
    7dd4:	4013      	ands	r3, r2
    7dd6:	2000      	movs	r0, #0
    7dd8:	2b02      	cmp	r3, #2
    7dda:	d100      	bne.n	7dde <udc_process_setup+0x3a>
    7ddc:	e1ca      	b.n	8174 <udc_process_setup+0x3d0>
    7dde:	bdf8      	pop	{r3, r4, r5, r6, r7, pc}
    7de0:	4a9c      	ldr	r2, [pc, #624]	; (8054 <udc_process_setup+0x2b0>)
    7de2:	88d2      	ldrh	r2, [r2, #6]
    7de4:	2000      	movs	r0, #0
    7de6:	2a00      	cmp	r2, #0
    7de8:	d0f9      	beq.n	7dde <udc_process_setup+0x3a>
    7dea:	2160      	movs	r1, #96	; 0x60
    7dec:	4219      	tst	r1, r3
    7dee:	d1e7      	bne.n	7dc0 <udc_process_setup+0x1c>
    7df0:	211f      	movs	r1, #31
    7df2:	400b      	ands	r3, r1
    7df4:	d108      	bne.n	7e08 <udc_process_setup+0x64>
    7df6:	4997      	ldr	r1, [pc, #604]	; (8054 <udc_process_setup+0x2b0>)
    7df8:	7849      	ldrb	r1, [r1, #1]
    7dfa:	2906      	cmp	r1, #6
    7dfc:	d023      	beq.n	7e46 <udc_process_setup+0xa2>
    7dfe:	2908      	cmp	r1, #8
    7e00:	d100      	bne.n	7e04 <udc_process_setup+0x60>
    7e02:	e084      	b.n	7f0e <udc_process_setup+0x16a>
    7e04:	2900      	cmp	r1, #0
    7e06:	d017      	beq.n	7e38 <udc_process_setup+0x94>
    7e08:	2b01      	cmp	r3, #1
    7e0a:	d100      	bne.n	7e0e <udc_process_setup+0x6a>
    7e0c:	e087      	b.n	7f1e <udc_process_setup+0x17a>
    7e0e:	2b02      	cmp	r3, #2
    7e10:	d1d6      	bne.n	7dc0 <udc_process_setup+0x1c>
    7e12:	4b90      	ldr	r3, [pc, #576]	; (8054 <udc_process_setup+0x2b0>)
    7e14:	785b      	ldrb	r3, [r3, #1]
    7e16:	2000      	movs	r0, #0
    7e18:	2b00      	cmp	r3, #0
    7e1a:	d000      	beq.n	7e1e <udc_process_setup+0x7a>
    7e1c:	e1a6      	b.n	816c <udc_process_setup+0x3c8>
    7e1e:	2a02      	cmp	r2, #2
    7e20:	d1d5      	bne.n	7dce <udc_process_setup+0x2a>
    7e22:	4b8c      	ldr	r3, [pc, #560]	; (8054 <udc_process_setup+0x2b0>)
    7e24:	7918      	ldrb	r0, [r3, #4]
    7e26:	4b8c      	ldr	r3, [pc, #560]	; (8058 <udc_process_setup+0x2b4>)
    7e28:	4798      	blx	r3
    7e2a:	4b8c      	ldr	r3, [pc, #560]	; (805c <udc_process_setup+0x2b8>)
    7e2c:	8018      	strh	r0, [r3, #0]
    7e2e:	2102      	movs	r1, #2
    7e30:	0018      	movs	r0, r3
    7e32:	4b8b      	ldr	r3, [pc, #556]	; (8060 <udc_process_setup+0x2bc>)
    7e34:	4798      	blx	r3
    7e36:	e0fc      	b.n	8032 <udc_process_setup+0x28e>
    7e38:	2a02      	cmp	r2, #2
    7e3a:	d1c8      	bne.n	7dce <udc_process_setup+0x2a>
    7e3c:	3102      	adds	r1, #2
    7e3e:	4889      	ldr	r0, [pc, #548]	; (8064 <udc_process_setup+0x2c0>)
    7e40:	4b87      	ldr	r3, [pc, #540]	; (8060 <udc_process_setup+0x2bc>)
    7e42:	4798      	blx	r3
    7e44:	e0f5      	b.n	8032 <udc_process_setup+0x28e>
    7e46:	4b83      	ldr	r3, [pc, #524]	; (8054 <udc_process_setup+0x2b0>)
    7e48:	885a      	ldrh	r2, [r3, #2]
    7e4a:	0a13      	lsrs	r3, r2, #8
    7e4c:	2b02      	cmp	r3, #2
    7e4e:	d023      	beq.n	7e98 <udc_process_setup+0xf4>
    7e50:	b2d9      	uxtb	r1, r3
    7e52:	2902      	cmp	r1, #2
    7e54:	d90f      	bls.n	7e76 <udc_process_setup+0xd2>
    7e56:	2b03      	cmp	r3, #3
    7e58:	d034      	beq.n	7ec4 <udc_process_setup+0x120>
    7e5a:	2b0f      	cmp	r3, #15
    7e5c:	d000      	beq.n	7e60 <udc_process_setup+0xbc>
    7e5e:	e182      	b.n	8166 <udc_process_setup+0x3c2>
    7e60:	4b81      	ldr	r3, [pc, #516]	; (8068 <udc_process_setup+0x2c4>)
    7e62:	6898      	ldr	r0, [r3, #8]
    7e64:	2800      	cmp	r0, #0
    7e66:	d0b2      	beq.n	7dce <udc_process_setup+0x2a>
    7e68:	7883      	ldrb	r3, [r0, #2]
    7e6a:	78c1      	ldrb	r1, [r0, #3]
    7e6c:	0209      	lsls	r1, r1, #8
    7e6e:	4319      	orrs	r1, r3
    7e70:	4b7b      	ldr	r3, [pc, #492]	; (8060 <udc_process_setup+0x2bc>)
    7e72:	4798      	blx	r3
    7e74:	e007      	b.n	7e86 <udc_process_setup+0xe2>
    7e76:	2b01      	cmp	r3, #1
    7e78:	d000      	beq.n	7e7c <udc_process_setup+0xd8>
    7e7a:	e174      	b.n	8166 <udc_process_setup+0x3c2>
    7e7c:	4b7a      	ldr	r3, [pc, #488]	; (8068 <udc_process_setup+0x2c4>)
    7e7e:	6818      	ldr	r0, [r3, #0]
    7e80:	7801      	ldrb	r1, [r0, #0]
    7e82:	4b77      	ldr	r3, [pc, #476]	; (8060 <udc_process_setup+0x2bc>)
    7e84:	4798      	blx	r3
    7e86:	4b73      	ldr	r3, [pc, #460]	; (8054 <udc_process_setup+0x2b0>)
    7e88:	88da      	ldrh	r2, [r3, #6]
    7e8a:	899b      	ldrh	r3, [r3, #12]
    7e8c:	4293      	cmp	r3, r2
    7e8e:	d800      	bhi.n	7e92 <udc_process_setup+0xee>
    7e90:	e0cf      	b.n	8032 <udc_process_setup+0x28e>
    7e92:	4b70      	ldr	r3, [pc, #448]	; (8054 <udc_process_setup+0x2b0>)
    7e94:	819a      	strh	r2, [r3, #12]
    7e96:	e0cc      	b.n	8032 <udc_process_setup+0x28e>
    7e98:	b2d2      	uxtb	r2, r2
    7e9a:	4b73      	ldr	r3, [pc, #460]	; (8068 <udc_process_setup+0x2c4>)
    7e9c:	681b      	ldr	r3, [r3, #0]
    7e9e:	7c5b      	ldrb	r3, [r3, #17]
    7ea0:	4293      	cmp	r3, r2
    7ea2:	d800      	bhi.n	7ea6 <udc_process_setup+0x102>
    7ea4:	e793      	b.n	7dce <udc_process_setup+0x2a>
    7ea6:	4b70      	ldr	r3, [pc, #448]	; (8068 <udc_process_setup+0x2c4>)
    7ea8:	685b      	ldr	r3, [r3, #4]
    7eaa:	00d2      	lsls	r2, r2, #3
    7eac:	58d0      	ldr	r0, [r2, r3]
    7eae:	7883      	ldrb	r3, [r0, #2]
    7eb0:	78c1      	ldrb	r1, [r0, #3]
    7eb2:	0209      	lsls	r1, r1, #8
    7eb4:	4319      	orrs	r1, r3
    7eb6:	4b6a      	ldr	r3, [pc, #424]	; (8060 <udc_process_setup+0x2bc>)
    7eb8:	4798      	blx	r3
    7eba:	4b66      	ldr	r3, [pc, #408]	; (8054 <udc_process_setup+0x2b0>)
    7ebc:	689b      	ldr	r3, [r3, #8]
    7ebe:	2202      	movs	r2, #2
    7ec0:	705a      	strb	r2, [r3, #1]
    7ec2:	e7e0      	b.n	7e86 <udc_process_setup+0xe2>
    7ec4:	23ff      	movs	r3, #255	; 0xff
    7ec6:	401a      	ands	r2, r3
    7ec8:	2a01      	cmp	r2, #1
    7eca:	d01d      	beq.n	7f08 <udc_process_setup+0x164>
    7ecc:	2a00      	cmp	r2, #0
    7ece:	d016      	beq.n	7efe <udc_process_setup+0x15a>
    7ed0:	2a02      	cmp	r2, #2
    7ed2:	d000      	beq.n	7ed6 <udc_process_setup+0x132>
    7ed4:	e774      	b.n	7dc0 <udc_process_setup+0x1c>
    7ed6:	4c65      	ldr	r4, [pc, #404]	; (806c <udc_process_setup+0x2c8>)
    7ed8:	2107      	movs	r1, #7
    7eda:	4a65      	ldr	r2, [pc, #404]	; (8070 <udc_process_setup+0x2cc>)
    7edc:	3202      	adds	r2, #2
    7ede:	2300      	movs	r3, #0
    7ee0:	5ce0      	ldrb	r0, [r4, r3]
    7ee2:	8010      	strh	r0, [r2, #0]
    7ee4:	3301      	adds	r3, #1
    7ee6:	3202      	adds	r2, #2
    7ee8:	b2d8      	uxtb	r0, r3
    7eea:	4288      	cmp	r0, r1
    7eec:	d3f8      	bcc.n	7ee0 <udc_process_setup+0x13c>
    7eee:	0049      	lsls	r1, r1, #1
    7ef0:	3102      	adds	r1, #2
    7ef2:	485f      	ldr	r0, [pc, #380]	; (8070 <udc_process_setup+0x2cc>)
    7ef4:	7001      	strb	r1, [r0, #0]
    7ef6:	b289      	uxth	r1, r1
    7ef8:	4b59      	ldr	r3, [pc, #356]	; (8060 <udc_process_setup+0x2bc>)
    7efa:	4798      	blx	r3
    7efc:	e7c3      	b.n	7e86 <udc_process_setup+0xe2>
    7efe:	2104      	movs	r1, #4
    7f00:	485c      	ldr	r0, [pc, #368]	; (8074 <udc_process_setup+0x2d0>)
    7f02:	4b57      	ldr	r3, [pc, #348]	; (8060 <udc_process_setup+0x2bc>)
    7f04:	4798      	blx	r3
    7f06:	e7be      	b.n	7e86 <udc_process_setup+0xe2>
    7f08:	4c5b      	ldr	r4, [pc, #364]	; (8078 <udc_process_setup+0x2d4>)
    7f0a:	210b      	movs	r1, #11
    7f0c:	e7e5      	b.n	7eda <udc_process_setup+0x136>
    7f0e:	2a01      	cmp	r2, #1
    7f10:	d000      	beq.n	7f14 <udc_process_setup+0x170>
    7f12:	e75c      	b.n	7dce <udc_process_setup+0x2a>
    7f14:	2101      	movs	r1, #1
    7f16:	4859      	ldr	r0, [pc, #356]	; (807c <udc_process_setup+0x2d8>)
    7f18:	4b51      	ldr	r3, [pc, #324]	; (8060 <udc_process_setup+0x2bc>)
    7f1a:	4798      	blx	r3
    7f1c:	e089      	b.n	8032 <udc_process_setup+0x28e>
    7f1e:	494d      	ldr	r1, [pc, #308]	; (8054 <udc_process_setup+0x2b0>)
    7f20:	7849      	ldrb	r1, [r1, #1]
    7f22:	290a      	cmp	r1, #10
    7f24:	d000      	beq.n	7f28 <udc_process_setup+0x184>
    7f26:	e772      	b.n	7e0e <udc_process_setup+0x6a>
    7f28:	2a01      	cmp	r2, #1
    7f2a:	d000      	beq.n	7f2e <udc_process_setup+0x18a>
    7f2c:	e0c4      	b.n	80b8 <udc_process_setup+0x314>
    7f2e:	4b53      	ldr	r3, [pc, #332]	; (807c <udc_process_setup+0x2d8>)
    7f30:	781b      	ldrb	r3, [r3, #0]
    7f32:	2b00      	cmp	r3, #0
    7f34:	d100      	bne.n	7f38 <udc_process_setup+0x194>
    7f36:	e0bf      	b.n	80b8 <udc_process_setup+0x314>
    7f38:	4b46      	ldr	r3, [pc, #280]	; (8054 <udc_process_setup+0x2b0>)
    7f3a:	791c      	ldrb	r4, [r3, #4]
    7f3c:	4b50      	ldr	r3, [pc, #320]	; (8080 <udc_process_setup+0x2dc>)
    7f3e:	681d      	ldr	r5, [r3, #0]
    7f40:	682b      	ldr	r3, [r5, #0]
    7f42:	791b      	ldrb	r3, [r3, #4]
    7f44:	42a3      	cmp	r3, r4
    7f46:	d800      	bhi.n	7f4a <udc_process_setup+0x1a6>
    7f48:	e0b6      	b.n	80b8 <udc_process_setup+0x314>
    7f4a:	2100      	movs	r1, #0
    7f4c:	0020      	movs	r0, r4
    7f4e:	4b4d      	ldr	r3, [pc, #308]	; (8084 <udc_process_setup+0x2e0>)
    7f50:	4798      	blx	r3
    7f52:	2800      	cmp	r0, #0
    7f54:	d100      	bne.n	7f58 <udc_process_setup+0x1b4>
    7f56:	e733      	b.n	7dc0 <udc_process_setup+0x1c>
    7f58:	686b      	ldr	r3, [r5, #4]
    7f5a:	00a4      	lsls	r4, r4, #2
    7f5c:	58e3      	ldr	r3, [r4, r3]
    7f5e:	68db      	ldr	r3, [r3, #12]
    7f60:	4798      	blx	r3
    7f62:	4b49      	ldr	r3, [pc, #292]	; (8088 <udc_process_setup+0x2e4>)
    7f64:	7018      	strb	r0, [r3, #0]
    7f66:	2101      	movs	r1, #1
    7f68:	0018      	movs	r0, r3
    7f6a:	4b3d      	ldr	r3, [pc, #244]	; (8060 <udc_process_setup+0x2bc>)
    7f6c:	4798      	blx	r3
    7f6e:	e060      	b.n	8032 <udc_process_setup+0x28e>
    7f70:	221f      	movs	r2, #31
    7f72:	4013      	ands	r3, r2
    7f74:	d15f      	bne.n	8036 <udc_process_setup+0x292>
    7f76:	4a37      	ldr	r2, [pc, #220]	; (8054 <udc_process_setup+0x2b0>)
    7f78:	7852      	ldrb	r2, [r2, #1]
    7f7a:	2a03      	cmp	r2, #3
    7f7c:	d100      	bne.n	7f80 <udc_process_setup+0x1dc>
    7f7e:	e0f4      	b.n	816a <udc_process_setup+0x3c6>
    7f80:	b2d1      	uxtb	r1, r2
    7f82:	2903      	cmp	r1, #3
    7f84:	d93b      	bls.n	7ffe <udc_process_setup+0x25a>
    7f86:	2a05      	cmp	r2, #5
    7f88:	d04b      	beq.n	8022 <udc_process_setup+0x27e>
    7f8a:	2a09      	cmp	r2, #9
    7f8c:	d153      	bne.n	8036 <udc_process_setup+0x292>
    7f8e:	4b31      	ldr	r3, [pc, #196]	; (8054 <udc_process_setup+0x2b0>)
    7f90:	88db      	ldrh	r3, [r3, #6]
    7f92:	2b00      	cmp	r3, #0
    7f94:	d000      	beq.n	7f98 <udc_process_setup+0x1f4>
    7f96:	e71a      	b.n	7dce <udc_process_setup+0x2a>
    7f98:	4b3c      	ldr	r3, [pc, #240]	; (808c <udc_process_setup+0x2e8>)
    7f9a:	4798      	blx	r3
    7f9c:	2800      	cmp	r0, #0
    7f9e:	d100      	bne.n	7fa2 <udc_process_setup+0x1fe>
    7fa0:	e70e      	b.n	7dc0 <udc_process_setup+0x1c>
    7fa2:	4b2c      	ldr	r3, [pc, #176]	; (8054 <udc_process_setup+0x2b0>)
    7fa4:	789a      	ldrb	r2, [r3, #2]
    7fa6:	4b30      	ldr	r3, [pc, #192]	; (8068 <udc_process_setup+0x2c4>)
    7fa8:	681b      	ldr	r3, [r3, #0]
    7faa:	7c5b      	ldrb	r3, [r3, #17]
    7fac:	429a      	cmp	r2, r3
    7fae:	dd00      	ble.n	7fb2 <udc_process_setup+0x20e>
    7fb0:	e706      	b.n	7dc0 <udc_process_setup+0x1c>
    7fb2:	4b37      	ldr	r3, [pc, #220]	; (8090 <udc_process_setup+0x2ec>)
    7fb4:	4798      	blx	r3
    7fb6:	4b27      	ldr	r3, [pc, #156]	; (8054 <udc_process_setup+0x2b0>)
    7fb8:	789b      	ldrb	r3, [r3, #2]
    7fba:	4a30      	ldr	r2, [pc, #192]	; (807c <udc_process_setup+0x2d8>)
    7fbc:	7013      	strb	r3, [r2, #0]
    7fbe:	2b00      	cmp	r3, #0
    7fc0:	d037      	beq.n	8032 <udc_process_setup+0x28e>
    7fc2:	4a34      	ldr	r2, [pc, #208]	; (8094 <udc_process_setup+0x2f0>)
    7fc4:	4694      	mov	ip, r2
    7fc6:	4463      	add	r3, ip
    7fc8:	00db      	lsls	r3, r3, #3
    7fca:	4a27      	ldr	r2, [pc, #156]	; (8068 <udc_process_setup+0x2c4>)
    7fcc:	6852      	ldr	r2, [r2, #4]
    7fce:	18d3      	adds	r3, r2, r3
    7fd0:	4a2b      	ldr	r2, [pc, #172]	; (8080 <udc_process_setup+0x2dc>)
    7fd2:	6013      	str	r3, [r2, #0]
    7fd4:	681b      	ldr	r3, [r3, #0]
    7fd6:	791b      	ldrb	r3, [r3, #4]
    7fd8:	2b00      	cmp	r3, #0
    7fda:	d02a      	beq.n	8032 <udc_process_setup+0x28e>
    7fdc:	2400      	movs	r4, #0
    7fde:	4d2e      	ldr	r5, [pc, #184]	; (8098 <udc_process_setup+0x2f4>)
    7fe0:	0016      	movs	r6, r2
    7fe2:	2100      	movs	r1, #0
    7fe4:	0020      	movs	r0, r4
    7fe6:	47a8      	blx	r5
    7fe8:	2800      	cmp	r0, #0
    7fea:	d100      	bne.n	7fee <udc_process_setup+0x24a>
    7fec:	e6e8      	b.n	7dc0 <udc_process_setup+0x1c>
    7fee:	3401      	adds	r4, #1
    7ff0:	b2e4      	uxtb	r4, r4
    7ff2:	6833      	ldr	r3, [r6, #0]
    7ff4:	681b      	ldr	r3, [r3, #0]
    7ff6:	791b      	ldrb	r3, [r3, #4]
    7ff8:	42a3      	cmp	r3, r4
    7ffa:	d8f2      	bhi.n	7fe2 <udc_process_setup+0x23e>
    7ffc:	e019      	b.n	8032 <udc_process_setup+0x28e>
    7ffe:	2a01      	cmp	r2, #1
    8000:	d119      	bne.n	8036 <udc_process_setup+0x292>
    8002:	4b14      	ldr	r3, [pc, #80]	; (8054 <udc_process_setup+0x2b0>)
    8004:	88db      	ldrh	r3, [r3, #6]
    8006:	2b00      	cmp	r3, #0
    8008:	d000      	beq.n	800c <udc_process_setup+0x268>
    800a:	e6e0      	b.n	7dce <udc_process_setup+0x2a>
    800c:	4b11      	ldr	r3, [pc, #68]	; (8054 <udc_process_setup+0x2b0>)
    800e:	885b      	ldrh	r3, [r3, #2]
    8010:	2b01      	cmp	r3, #1
    8012:	d000      	beq.n	8016 <udc_process_setup+0x272>
    8014:	e6db      	b.n	7dce <udc_process_setup+0x2a>
    8016:	4a13      	ldr	r2, [pc, #76]	; (8064 <udc_process_setup+0x2c0>)
    8018:	8813      	ldrh	r3, [r2, #0]
    801a:	2102      	movs	r1, #2
    801c:	438b      	bics	r3, r1
    801e:	8013      	strh	r3, [r2, #0]
    8020:	e007      	b.n	8032 <udc_process_setup+0x28e>
    8022:	4b0c      	ldr	r3, [pc, #48]	; (8054 <udc_process_setup+0x2b0>)
    8024:	88db      	ldrh	r3, [r3, #6]
    8026:	2b00      	cmp	r3, #0
    8028:	d000      	beq.n	802c <udc_process_setup+0x288>
    802a:	e6d0      	b.n	7dce <udc_process_setup+0x2a>
    802c:	4a1b      	ldr	r2, [pc, #108]	; (809c <udc_process_setup+0x2f8>)
    802e:	4b09      	ldr	r3, [pc, #36]	; (8054 <udc_process_setup+0x2b0>)
    8030:	611a      	str	r2, [r3, #16]
    8032:	2001      	movs	r0, #1
    8034:	e6d3      	b.n	7dde <udc_process_setup+0x3a>
    8036:	2b01      	cmp	r3, #1
    8038:	d032      	beq.n	80a0 <udc_process_setup+0x2fc>
    803a:	2b02      	cmp	r3, #2
    803c:	d000      	beq.n	8040 <udc_process_setup+0x29c>
    803e:	e6bf      	b.n	7dc0 <udc_process_setup+0x1c>
    8040:	4b04      	ldr	r3, [pc, #16]	; (8054 <udc_process_setup+0x2b0>)
    8042:	785b      	ldrb	r3, [r3, #1]
    8044:	2b01      	cmp	r3, #1
    8046:	d06d      	beq.n	8124 <udc_process_setup+0x380>
    8048:	2b03      	cmp	r3, #3
    804a:	d100      	bne.n	804e <udc_process_setup+0x2aa>
    804c:	e079      	b.n	8142 <udc_process_setup+0x39e>
    804e:	2000      	movs	r0, #0
    8050:	e08c      	b.n	816c <udc_process_setup+0x3c8>
    8052:	46c0      	nop			; (mov r8, r8)
    8054:	20002858 	.word	0x20002858
    8058:	0000538d 	.word	0x0000538d
    805c:	20001084 	.word	0x20001084
    8060:	0000570d 	.word	0x0000570d
    8064:	20001082 	.word	0x20001082
    8068:	20000088 	.word	0x20000088
    806c:	20000080 	.word	0x20000080
    8070:	20000058 	.word	0x20000058
    8074:	20000070 	.word	0x20000070
    8078:	20000074 	.word	0x20000074
    807c:	2000108c 	.word	0x2000108c
    8080:	20001090 	.word	0x20001090
    8084:	00007bd1 	.word	0x00007bd1
    8088:	20001088 	.word	0x20001088
    808c:	000056fd 	.word	0x000056fd
    8090:	00007d15 	.word	0x00007d15
    8094:	1fffffff 	.word	0x1fffffff
    8098:	00007cb1 	.word	0x00007cb1
    809c:	00007bb9 	.word	0x00007bb9
    80a0:	4a48      	ldr	r2, [pc, #288]	; (81c4 <udc_process_setup+0x420>)
    80a2:	7852      	ldrb	r2, [r2, #1]
    80a4:	2a0b      	cmp	r2, #11
    80a6:	d1c8      	bne.n	803a <udc_process_setup+0x296>
    80a8:	4b46      	ldr	r3, [pc, #280]	; (81c4 <udc_process_setup+0x420>)
    80aa:	88db      	ldrh	r3, [r3, #6]
    80ac:	2b00      	cmp	r3, #0
    80ae:	d103      	bne.n	80b8 <udc_process_setup+0x314>
    80b0:	4b45      	ldr	r3, [pc, #276]	; (81c8 <udc_process_setup+0x424>)
    80b2:	781b      	ldrb	r3, [r3, #0]
    80b4:	2b00      	cmp	r3, #0
    80b6:	d127      	bne.n	8108 <udc_process_setup+0x364>
    80b8:	4b43      	ldr	r3, [pc, #268]	; (81c8 <udc_process_setup+0x424>)
    80ba:	781b      	ldrb	r3, [r3, #0]
    80bc:	2000      	movs	r0, #0
    80be:	2b00      	cmp	r3, #0
    80c0:	d100      	bne.n	80c4 <udc_process_setup+0x320>
    80c2:	e68c      	b.n	7dde <udc_process_setup+0x3a>
    80c4:	4b3f      	ldr	r3, [pc, #252]	; (81c4 <udc_process_setup+0x420>)
    80c6:	791c      	ldrb	r4, [r3, #4]
    80c8:	4b40      	ldr	r3, [pc, #256]	; (81cc <udc_process_setup+0x428>)
    80ca:	681d      	ldr	r5, [r3, #0]
    80cc:	682b      	ldr	r3, [r5, #0]
    80ce:	791b      	ldrb	r3, [r3, #4]
    80d0:	42a3      	cmp	r3, r4
    80d2:	d800      	bhi.n	80d6 <udc_process_setup+0x332>
    80d4:	e683      	b.n	7dde <udc_process_setup+0x3a>
    80d6:	2100      	movs	r1, #0
    80d8:	0020      	movs	r0, r4
    80da:	4b3d      	ldr	r3, [pc, #244]	; (81d0 <udc_process_setup+0x42c>)
    80dc:	4798      	blx	r3
    80de:	2800      	cmp	r0, #0
    80e0:	d100      	bne.n	80e4 <udc_process_setup+0x340>
    80e2:	e674      	b.n	7dce <udc_process_setup+0x2a>
    80e4:	686b      	ldr	r3, [r5, #4]
    80e6:	00a2      	lsls	r2, r4, #2
    80e8:	58d5      	ldr	r5, [r2, r3]
    80ea:	68eb      	ldr	r3, [r5, #12]
    80ec:	4798      	blx	r3
    80ee:	0001      	movs	r1, r0
    80f0:	0020      	movs	r0, r4
    80f2:	4b37      	ldr	r3, [pc, #220]	; (81d0 <udc_process_setup+0x42c>)
    80f4:	4798      	blx	r3
    80f6:	2800      	cmp	r0, #0
    80f8:	d100      	bne.n	80fc <udc_process_setup+0x358>
    80fa:	e668      	b.n	7dce <udc_process_setup+0x2a>
    80fc:	68ab      	ldr	r3, [r5, #8]
    80fe:	4798      	blx	r3
    8100:	2800      	cmp	r0, #0
    8102:	d000      	beq.n	8106 <udc_process_setup+0x362>
    8104:	e66b      	b.n	7dde <udc_process_setup+0x3a>
    8106:	e662      	b.n	7dce <udc_process_setup+0x2a>
    8108:	4b2e      	ldr	r3, [pc, #184]	; (81c4 <udc_process_setup+0x420>)
    810a:	791d      	ldrb	r5, [r3, #4]
    810c:	885c      	ldrh	r4, [r3, #2]
    810e:	0028      	movs	r0, r5
    8110:	4b30      	ldr	r3, [pc, #192]	; (81d4 <udc_process_setup+0x430>)
    8112:	4798      	blx	r3
    8114:	2800      	cmp	r0, #0
    8116:	d100      	bne.n	811a <udc_process_setup+0x376>
    8118:	e652      	b.n	7dc0 <udc_process_setup+0x1c>
    811a:	b2e1      	uxtb	r1, r4
    811c:	0028      	movs	r0, r5
    811e:	4b2e      	ldr	r3, [pc, #184]	; (81d8 <udc_process_setup+0x434>)
    8120:	4798      	blx	r3
    8122:	e023      	b.n	816c <udc_process_setup+0x3c8>
    8124:	4b27      	ldr	r3, [pc, #156]	; (81c4 <udc_process_setup+0x420>)
    8126:	88db      	ldrh	r3, [r3, #6]
    8128:	2b00      	cmp	r3, #0
    812a:	d000      	beq.n	812e <udc_process_setup+0x38a>
    812c:	e64f      	b.n	7dce <udc_process_setup+0x2a>
    812e:	4b25      	ldr	r3, [pc, #148]	; (81c4 <udc_process_setup+0x420>)
    8130:	885b      	ldrh	r3, [r3, #2]
    8132:	2b00      	cmp	r3, #0
    8134:	d000      	beq.n	8138 <udc_process_setup+0x394>
    8136:	e64a      	b.n	7dce <udc_process_setup+0x2a>
    8138:	4b22      	ldr	r3, [pc, #136]	; (81c4 <udc_process_setup+0x420>)
    813a:	7918      	ldrb	r0, [r3, #4]
    813c:	4b27      	ldr	r3, [pc, #156]	; (81dc <udc_process_setup+0x438>)
    813e:	4798      	blx	r3
    8140:	e014      	b.n	816c <udc_process_setup+0x3c8>
    8142:	4b20      	ldr	r3, [pc, #128]	; (81c4 <udc_process_setup+0x420>)
    8144:	88db      	ldrh	r3, [r3, #6]
    8146:	2b00      	cmp	r3, #0
    8148:	d000      	beq.n	814c <udc_process_setup+0x3a8>
    814a:	e640      	b.n	7dce <udc_process_setup+0x2a>
    814c:	4b1d      	ldr	r3, [pc, #116]	; (81c4 <udc_process_setup+0x420>)
    814e:	885b      	ldrh	r3, [r3, #2]
    8150:	2b00      	cmp	r3, #0
    8152:	d000      	beq.n	8156 <udc_process_setup+0x3b2>
    8154:	e63b      	b.n	7dce <udc_process_setup+0x2a>
    8156:	4c1b      	ldr	r4, [pc, #108]	; (81c4 <udc_process_setup+0x420>)
    8158:	7920      	ldrb	r0, [r4, #4]
    815a:	4b21      	ldr	r3, [pc, #132]	; (81e0 <udc_process_setup+0x43c>)
    815c:	4798      	blx	r3
    815e:	7920      	ldrb	r0, [r4, #4]
    8160:	4b20      	ldr	r3, [pc, #128]	; (81e4 <udc_process_setup+0x440>)
    8162:	4798      	blx	r3
    8164:	e002      	b.n	816c <udc_process_setup+0x3c8>
    8166:	2000      	movs	r0, #0
    8168:	e000      	b.n	816c <udc_process_setup+0x3c8>
    816a:	2000      	movs	r0, #0
    816c:	2800      	cmp	r0, #0
    816e:	d000      	beq.n	8172 <udc_process_setup+0x3ce>
    8170:	e635      	b.n	7dde <udc_process_setup+0x3a>
    8172:	e625      	b.n	7dc0 <udc_process_setup+0x1c>
    8174:	4b14      	ldr	r3, [pc, #80]	; (81c8 <udc_process_setup+0x424>)
    8176:	781b      	ldrb	r3, [r3, #0]
    8178:	2b00      	cmp	r3, #0
    817a:	d100      	bne.n	817e <udc_process_setup+0x3da>
    817c:	e62f      	b.n	7dde <udc_process_setup+0x3a>
    817e:	4b13      	ldr	r3, [pc, #76]	; (81cc <udc_process_setup+0x428>)
    8180:	681b      	ldr	r3, [r3, #0]
    8182:	681a      	ldr	r2, [r3, #0]
    8184:	7912      	ldrb	r2, [r2, #4]
    8186:	2a00      	cmp	r2, #0
    8188:	d01a      	beq.n	81c0 <udc_process_setup+0x41c>
    818a:	2500      	movs	r5, #0
    818c:	4e10      	ldr	r6, [pc, #64]	; (81d0 <udc_process_setup+0x42c>)
    818e:	4f0f      	ldr	r7, [pc, #60]	; (81cc <udc_process_setup+0x428>)
    8190:	685b      	ldr	r3, [r3, #4]
    8192:	00aa      	lsls	r2, r5, #2
    8194:	58d4      	ldr	r4, [r2, r3]
    8196:	68e3      	ldr	r3, [r4, #12]
    8198:	4798      	blx	r3
    819a:	0001      	movs	r1, r0
    819c:	0028      	movs	r0, r5
    819e:	47b0      	blx	r6
    81a0:	2800      	cmp	r0, #0
    81a2:	d100      	bne.n	81a6 <udc_process_setup+0x402>
    81a4:	e61b      	b.n	7dde <udc_process_setup+0x3a>
    81a6:	68a3      	ldr	r3, [r4, #8]
    81a8:	4798      	blx	r3
    81aa:	2800      	cmp	r0, #0
    81ac:	d000      	beq.n	81b0 <udc_process_setup+0x40c>
    81ae:	e616      	b.n	7dde <udc_process_setup+0x3a>
    81b0:	3501      	adds	r5, #1
    81b2:	b2ed      	uxtb	r5, r5
    81b4:	683b      	ldr	r3, [r7, #0]
    81b6:	681a      	ldr	r2, [r3, #0]
    81b8:	7912      	ldrb	r2, [r2, #4]
    81ba:	42aa      	cmp	r2, r5
    81bc:	d8e8      	bhi.n	8190 <udc_process_setup+0x3ec>
    81be:	e60e      	b.n	7dde <udc_process_setup+0x3a>
    81c0:	2000      	movs	r0, #0
    81c2:	e60c      	b.n	7dde <udc_process_setup+0x3a>
    81c4:	20002858 	.word	0x20002858
    81c8:	2000108c 	.word	0x2000108c
    81cc:	20001090 	.word	0x20001090
    81d0:	00007bd1 	.word	0x00007bd1
    81d4:	00007c45 	.word	0x00007c45
    81d8:	00007cb1 	.word	0x00007cb1
    81dc:	000054d1 	.word	0x000054d1
    81e0:	000051cd 	.word	0x000051cd
    81e4:	000053a1 	.word	0x000053a1

000081e8 <system_board_init>:
    81e8:	b5f0      	push	{r4, r5, r6, r7, lr}
    81ea:	46c6      	mov	lr, r8
    81ec:	b500      	push	{lr}
    81ee:	b082      	sub	sp, #8
    81f0:	ac01      	add	r4, sp, #4
    81f2:	2380      	movs	r3, #128	; 0x80
    81f4:	4698      	mov	r8, r3
    81f6:	7023      	strb	r3, [r4, #0]
    81f8:	2600      	movs	r6, #0
    81fa:	7066      	strb	r6, [r4, #1]
    81fc:	70e6      	strb	r6, [r4, #3]
    81fe:	70a6      	strb	r6, [r4, #2]
    8200:	0021      	movs	r1, r4
    8202:	2009      	movs	r0, #9
    8204:	4d2a      	ldr	r5, [pc, #168]	; (82b0 <system_board_init+0xc8>)
    8206:	47a8      	blx	r5
    8208:	0021      	movs	r1, r4
    820a:	201c      	movs	r0, #28
    820c:	47a8      	blx	r5
    820e:	2701      	movs	r7, #1
    8210:	70a7      	strb	r7, [r4, #2]
    8212:	0021      	movs	r1, r4
    8214:	202a      	movs	r0, #42	; 0x2a
    8216:	47a8      	blx	r5
    8218:	7027      	strb	r7, [r4, #0]
    821a:	70a6      	strb	r6, [r4, #2]
    821c:	0021      	movs	r1, r4
    821e:	2002      	movs	r0, #2
    8220:	47a8      	blx	r5
    8222:	0021      	movs	r1, r4
    8224:	2003      	movs	r0, #3
    8226:	47a8      	blx	r5
    8228:	0021      	movs	r1, r4
    822a:	2028      	movs	r0, #40	; 0x28
    822c:	47a8      	blx	r5
    822e:	0021      	movs	r1, r4
    8230:	2029      	movs	r0, #41	; 0x29
    8232:	47a8      	blx	r5
    8234:	0021      	movs	r1, r4
    8236:	2003      	movs	r0, #3
    8238:	47a8      	blx	r5
    823a:	0021      	movs	r1, r4
    823c:	2005      	movs	r0, #5
    823e:	47a8      	blx	r5
    8240:	4643      	mov	r3, r8
    8242:	7023      	strb	r3, [r4, #0]
    8244:	7067      	strb	r7, [r4, #1]
    8246:	0021      	movs	r1, r4
    8248:	201b      	movs	r0, #27
    824a:	47a8      	blx	r5
    824c:	0021      	movs	r1, r4
    824e:	2006      	movs	r0, #6
    8250:	47a8      	blx	r5
    8252:	0021      	movs	r1, r4
    8254:	200c      	movs	r0, #12
    8256:	47a8      	blx	r5
    8258:	0021      	movs	r1, r4
    825a:	200d      	movs	r0, #13
    825c:	47a8      	blx	r5
    825e:	0021      	movs	r1, r4
    8260:	200e      	movs	r0, #14
    8262:	47a8      	blx	r5
    8264:	0021      	movs	r1, r4
    8266:	200f      	movs	r0, #15
    8268:	47a8      	blx	r5
    826a:	0021      	movs	r1, r4
    826c:	2010      	movs	r0, #16
    826e:	47a8      	blx	r5
    8270:	0021      	movs	r1, r4
    8272:	2011      	movs	r0, #17
    8274:	47a8      	blx	r5
    8276:	0021      	movs	r1, r4
    8278:	2012      	movs	r0, #18
    827a:	47a8      	blx	r5
    827c:	0021      	movs	r1, r4
    827e:	2013      	movs	r0, #19
    8280:	47a8      	blx	r5
    8282:	0021      	movs	r1, r4
    8284:	2014      	movs	r0, #20
    8286:	47a8      	blx	r5
    8288:	0021      	movs	r1, r4
    828a:	2022      	movs	r0, #34	; 0x22
    828c:	47a8      	blx	r5
    828e:	0021      	movs	r1, r4
    8290:	2015      	movs	r0, #21
    8292:	47a8      	blx	r5
    8294:	0021      	movs	r1, r4
    8296:	202b      	movs	r0, #43	; 0x2b
    8298:	47a8      	blx	r5
    829a:	0021      	movs	r1, r4
    829c:	2023      	movs	r0, #35	; 0x23
    829e:	47a8      	blx	r5
    82a0:	2208      	movs	r2, #8
    82a2:	4b04      	ldr	r3, [pc, #16]	; (82b4 <system_board_init+0xcc>)
    82a4:	619a      	str	r2, [r3, #24]
    82a6:	b002      	add	sp, #8
    82a8:	bc04      	pop	{r2}
    82aa:	4690      	mov	r8, r2
    82ac:	bdf0      	pop	{r4, r5, r6, r7, pc}
    82ae:	46c0      	nop			; (mov r8, r8)
    82b0:	00008acd 	.word	0x00008acd
    82b4:	41004480 	.word	0x41004480

000082b8 <cpu_irq_enter_critical>:
    82b8:	4b0c      	ldr	r3, [pc, #48]	; (82ec <cpu_irq_enter_critical+0x34>)
    82ba:	681b      	ldr	r3, [r3, #0]
    82bc:	2b00      	cmp	r3, #0
    82be:	d106      	bne.n	82ce <cpu_irq_enter_critical+0x16>
    82c0:	f3ef 8310 	mrs	r3, PRIMASK
    82c4:	2b00      	cmp	r3, #0
    82c6:	d007      	beq.n	82d8 <cpu_irq_enter_critical+0x20>
    82c8:	2200      	movs	r2, #0
    82ca:	4b09      	ldr	r3, [pc, #36]	; (82f0 <cpu_irq_enter_critical+0x38>)
    82cc:	701a      	strb	r2, [r3, #0]
    82ce:	4a07      	ldr	r2, [pc, #28]	; (82ec <cpu_irq_enter_critical+0x34>)
    82d0:	6813      	ldr	r3, [r2, #0]
    82d2:	3301      	adds	r3, #1
    82d4:	6013      	str	r3, [r2, #0]
    82d6:	4770      	bx	lr
    82d8:	b672      	cpsid	i
    82da:	f3bf 8f5f 	dmb	sy
    82de:	2200      	movs	r2, #0
    82e0:	4b04      	ldr	r3, [pc, #16]	; (82f4 <cpu_irq_enter_critical+0x3c>)
    82e2:	701a      	strb	r2, [r3, #0]
    82e4:	3201      	adds	r2, #1
    82e6:	4b02      	ldr	r3, [pc, #8]	; (82f0 <cpu_irq_enter_critical+0x38>)
    82e8:	701a      	strb	r2, [r3, #0]
    82ea:	e7f0      	b.n	82ce <cpu_irq_enter_critical+0x16>
    82ec:	20001098 	.word	0x20001098
    82f0:	2000109c 	.word	0x2000109c
    82f4:	20000108 	.word	0x20000108

000082f8 <cpu_irq_leave_critical>:
    82f8:	4b08      	ldr	r3, [pc, #32]	; (831c <cpu_irq_leave_critical+0x24>)
    82fa:	681a      	ldr	r2, [r3, #0]
    82fc:	3a01      	subs	r2, #1
    82fe:	601a      	str	r2, [r3, #0]
    8300:	681b      	ldr	r3, [r3, #0]
    8302:	2b00      	cmp	r3, #0
    8304:	d109      	bne.n	831a <cpu_irq_leave_critical+0x22>
    8306:	4b06      	ldr	r3, [pc, #24]	; (8320 <cpu_irq_leave_critical+0x28>)
    8308:	781b      	ldrb	r3, [r3, #0]
    830a:	2b00      	cmp	r3, #0
    830c:	d005      	beq.n	831a <cpu_irq_leave_critical+0x22>
    830e:	2201      	movs	r2, #1
    8310:	4b04      	ldr	r3, [pc, #16]	; (8324 <cpu_irq_leave_critical+0x2c>)
    8312:	701a      	strb	r2, [r3, #0]
    8314:	f3bf 8f5f 	dmb	sy
    8318:	b662      	cpsie	i
    831a:	4770      	bx	lr
    831c:	20001098 	.word	0x20001098
    8320:	2000109c 	.word	0x2000109c
    8324:	20000108 	.word	0x20000108

00008328 <system_clock_source_get_hz>:
    8328:	b510      	push	{r4, lr}
    832a:	2808      	cmp	r0, #8
    832c:	d803      	bhi.n	8336 <system_clock_source_get_hz+0xe>
    832e:	0080      	lsls	r0, r0, #2
    8330:	4b1b      	ldr	r3, [pc, #108]	; (83a0 <system_clock_source_get_hz+0x78>)
    8332:	581b      	ldr	r3, [r3, r0]
    8334:	469f      	mov	pc, r3
    8336:	2000      	movs	r0, #0
    8338:	e030      	b.n	839c <system_clock_source_get_hz+0x74>
    833a:	4b1a      	ldr	r3, [pc, #104]	; (83a4 <system_clock_source_get_hz+0x7c>)
    833c:	6918      	ldr	r0, [r3, #16]
    833e:	e02d      	b.n	839c <system_clock_source_get_hz+0x74>
    8340:	4b19      	ldr	r3, [pc, #100]	; (83a8 <system_clock_source_get_hz+0x80>)
    8342:	6a1b      	ldr	r3, [r3, #32]
    8344:	059b      	lsls	r3, r3, #22
    8346:	0f9b      	lsrs	r3, r3, #30
    8348:	4818      	ldr	r0, [pc, #96]	; (83ac <system_clock_source_get_hz+0x84>)
    834a:	40d8      	lsrs	r0, r3
    834c:	e026      	b.n	839c <system_clock_source_get_hz+0x74>
    834e:	4b15      	ldr	r3, [pc, #84]	; (83a4 <system_clock_source_get_hz+0x7c>)
    8350:	6958      	ldr	r0, [r3, #20]
    8352:	e023      	b.n	839c <system_clock_source_get_hz+0x74>
    8354:	4b13      	ldr	r3, [pc, #76]	; (83a4 <system_clock_source_get_hz+0x7c>)
    8356:	681b      	ldr	r3, [r3, #0]
    8358:	2000      	movs	r0, #0
    835a:	079b      	lsls	r3, r3, #30
    835c:	d51e      	bpl.n	839c <system_clock_source_get_hz+0x74>
    835e:	4912      	ldr	r1, [pc, #72]	; (83a8 <system_clock_source_get_hz+0x80>)
    8360:	2210      	movs	r2, #16
    8362:	68cb      	ldr	r3, [r1, #12]
    8364:	421a      	tst	r2, r3
    8366:	d0fc      	beq.n	8362 <system_clock_source_get_hz+0x3a>
    8368:	4b0e      	ldr	r3, [pc, #56]	; (83a4 <system_clock_source_get_hz+0x7c>)
    836a:	681b      	ldr	r3, [r3, #0]
    836c:	075b      	lsls	r3, r3, #29
    836e:	d401      	bmi.n	8374 <system_clock_source_get_hz+0x4c>
    8370:	480f      	ldr	r0, [pc, #60]	; (83b0 <system_clock_source_get_hz+0x88>)
    8372:	e013      	b.n	839c <system_clock_source_get_hz+0x74>
    8374:	2000      	movs	r0, #0
    8376:	4b0f      	ldr	r3, [pc, #60]	; (83b4 <system_clock_source_get_hz+0x8c>)
    8378:	4798      	blx	r3
    837a:	4b0a      	ldr	r3, [pc, #40]	; (83a4 <system_clock_source_get_hz+0x7c>)
    837c:	689b      	ldr	r3, [r3, #8]
    837e:	041b      	lsls	r3, r3, #16
    8380:	0c1b      	lsrs	r3, r3, #16
    8382:	4358      	muls	r0, r3
    8384:	e00a      	b.n	839c <system_clock_source_get_hz+0x74>
    8386:	2350      	movs	r3, #80	; 0x50
    8388:	4a07      	ldr	r2, [pc, #28]	; (83a8 <system_clock_source_get_hz+0x80>)
    838a:	5cd3      	ldrb	r3, [r2, r3]
    838c:	2000      	movs	r0, #0
    838e:	075b      	lsls	r3, r3, #29
    8390:	d504      	bpl.n	839c <system_clock_source_get_hz+0x74>
    8392:	4b04      	ldr	r3, [pc, #16]	; (83a4 <system_clock_source_get_hz+0x7c>)
    8394:	68d8      	ldr	r0, [r3, #12]
    8396:	e001      	b.n	839c <system_clock_source_get_hz+0x74>
    8398:	2080      	movs	r0, #128	; 0x80
    839a:	0200      	lsls	r0, r0, #8
    839c:	bd10      	pop	{r4, pc}
    839e:	46c0      	nop			; (mov r8, r8)
    83a0:	0000c4ec 	.word	0x0000c4ec
    83a4:	200010a0 	.word	0x200010a0
    83a8:	40000800 	.word	0x40000800
    83ac:	007a1200 	.word	0x007a1200
    83b0:	02dc6c00 	.word	0x02dc6c00
    83b4:	000089f1 	.word	0x000089f1

000083b8 <system_clock_source_osc8m_set_config>:
    83b8:	b570      	push	{r4, r5, r6, lr}
    83ba:	490c      	ldr	r1, [pc, #48]	; (83ec <system_clock_source_osc8m_set_config+0x34>)
    83bc:	6a0b      	ldr	r3, [r1, #32]
    83be:	7804      	ldrb	r4, [r0, #0]
    83c0:	7885      	ldrb	r5, [r0, #2]
    83c2:	7840      	ldrb	r0, [r0, #1]
    83c4:	2201      	movs	r2, #1
    83c6:	4010      	ands	r0, r2
    83c8:	0180      	lsls	r0, r0, #6
    83ca:	2640      	movs	r6, #64	; 0x40
    83cc:	43b3      	bics	r3, r6
    83ce:	4303      	orrs	r3, r0
    83d0:	402a      	ands	r2, r5
    83d2:	01d2      	lsls	r2, r2, #7
    83d4:	2080      	movs	r0, #128	; 0x80
    83d6:	4383      	bics	r3, r0
    83d8:	4313      	orrs	r3, r2
    83da:	2203      	movs	r2, #3
    83dc:	4022      	ands	r2, r4
    83de:	0212      	lsls	r2, r2, #8
    83e0:	4803      	ldr	r0, [pc, #12]	; (83f0 <system_clock_source_osc8m_set_config+0x38>)
    83e2:	4003      	ands	r3, r0
    83e4:	4313      	orrs	r3, r2
    83e6:	620b      	str	r3, [r1, #32]
    83e8:	bd70      	pop	{r4, r5, r6, pc}
    83ea:	46c0      	nop			; (mov r8, r8)
    83ec:	40000800 	.word	0x40000800
    83f0:	fffffcff 	.word	0xfffffcff

000083f4 <system_clock_source_xosc32k_set_config>:
    83f4:	b5f0      	push	{r4, r5, r6, r7, lr}
    83f6:	46de      	mov	lr, fp
    83f8:	4657      	mov	r7, sl
    83fa:	464e      	mov	r6, r9
    83fc:	4645      	mov	r5, r8
    83fe:	b5e0      	push	{r5, r6, r7, lr}
    8400:	0001      	movs	r1, r0
    8402:	4b26      	ldr	r3, [pc, #152]	; (849c <system_clock_source_xosc32k_set_config+0xa8>)
    8404:	469b      	mov	fp, r3
    8406:	8a9b      	ldrh	r3, [r3, #20]
    8408:	7845      	ldrb	r5, [r0, #1]
    840a:	7800      	ldrb	r0, [r0, #0]
    840c:	4242      	negs	r2, r0
    840e:	4142      	adcs	r2, r0
    8410:	4691      	mov	r9, r2
    8412:	7888      	ldrb	r0, [r1, #2]
    8414:	78ca      	ldrb	r2, [r1, #3]
    8416:	4694      	mov	ip, r2
    8418:	790a      	ldrb	r2, [r1, #4]
    841a:	4690      	mov	r8, r2
    841c:	7b4e      	ldrb	r6, [r1, #13]
    841e:	7b0f      	ldrb	r7, [r1, #12]
    8420:	7b8c      	ldrb	r4, [r1, #14]
    8422:	688a      	ldr	r2, [r1, #8]
    8424:	491e      	ldr	r1, [pc, #120]	; (84a0 <system_clock_source_xosc32k_set_config+0xac>)
    8426:	614a      	str	r2, [r1, #20]
    8428:	2101      	movs	r1, #1
    842a:	464a      	mov	r2, r9
    842c:	0092      	lsls	r2, r2, #2
    842e:	4691      	mov	r9, r2
    8430:	2204      	movs	r2, #4
    8432:	4393      	bics	r3, r2
    8434:	464a      	mov	r2, r9
    8436:	4313      	orrs	r3, r2
    8438:	4642      	mov	r2, r8
    843a:	400a      	ands	r2, r1
    843c:	00d2      	lsls	r2, r2, #3
    843e:	4690      	mov	r8, r2
    8440:	2208      	movs	r2, #8
    8442:	4393      	bics	r3, r2
    8444:	4642      	mov	r2, r8
    8446:	4313      	orrs	r3, r2
    8448:	4662      	mov	r2, ip
    844a:	400a      	ands	r2, r1
    844c:	0112      	lsls	r2, r2, #4
    844e:	4694      	mov	ip, r2
    8450:	2210      	movs	r2, #16
    8452:	4393      	bics	r3, r2
    8454:	4662      	mov	r2, ip
    8456:	4313      	orrs	r3, r2
    8458:	4008      	ands	r0, r1
    845a:	0140      	lsls	r0, r0, #5
    845c:	2220      	movs	r2, #32
    845e:	4393      	bics	r3, r2
    8460:	4303      	orrs	r3, r0
    8462:	400f      	ands	r7, r1
    8464:	01bf      	lsls	r7, r7, #6
    8466:	2040      	movs	r0, #64	; 0x40
    8468:	4383      	bics	r3, r0
    846a:	433b      	orrs	r3, r7
    846c:	400e      	ands	r6, r1
    846e:	01f6      	lsls	r6, r6, #7
    8470:	3040      	adds	r0, #64	; 0x40
    8472:	4383      	bics	r3, r0
    8474:	4333      	orrs	r3, r6
    8476:	3879      	subs	r0, #121	; 0x79
    8478:	4005      	ands	r5, r0
    847a:	022d      	lsls	r5, r5, #8
    847c:	4809      	ldr	r0, [pc, #36]	; (84a4 <system_clock_source_xosc32k_set_config+0xb0>)
    847e:	4003      	ands	r3, r0
    8480:	432b      	orrs	r3, r5
    8482:	4021      	ands	r1, r4
    8484:	0309      	lsls	r1, r1, #12
    8486:	4808      	ldr	r0, [pc, #32]	; (84a8 <system_clock_source_xosc32k_set_config+0xb4>)
    8488:	4003      	ands	r3, r0
    848a:	430b      	orrs	r3, r1
    848c:	465a      	mov	r2, fp
    848e:	8293      	strh	r3, [r2, #20]
    8490:	bc3c      	pop	{r2, r3, r4, r5}
    8492:	4690      	mov	r8, r2
    8494:	4699      	mov	r9, r3
    8496:	46a2      	mov	sl, r4
    8498:	46ab      	mov	fp, r5
    849a:	bdf0      	pop	{r4, r5, r6, r7, pc}
    849c:	40000800 	.word	0x40000800
    84a0:	200010a0 	.word	0x200010a0
    84a4:	fffff8ff 	.word	0xfffff8ff
    84a8:	ffffefff 	.word	0xffffefff

000084ac <system_clock_source_dfll_set_config>:
    84ac:	b510      	push	{r4, lr}
    84ae:	7a03      	ldrb	r3, [r0, #8]
    84b0:	069b      	lsls	r3, r3, #26
    84b2:	0c1b      	lsrs	r3, r3, #16
    84b4:	8942      	ldrh	r2, [r0, #10]
    84b6:	0592      	lsls	r2, r2, #22
    84b8:	0d92      	lsrs	r2, r2, #22
    84ba:	4313      	orrs	r3, r2
    84bc:	4918      	ldr	r1, [pc, #96]	; (8520 <system_clock_source_dfll_set_config+0x74>)
    84be:	604b      	str	r3, [r1, #4]
    84c0:	7983      	ldrb	r3, [r0, #6]
    84c2:	79c2      	ldrb	r2, [r0, #7]
    84c4:	4313      	orrs	r3, r2
    84c6:	8842      	ldrh	r2, [r0, #2]
    84c8:	8884      	ldrh	r4, [r0, #4]
    84ca:	4322      	orrs	r2, r4
    84cc:	4313      	orrs	r3, r2
    84ce:	7842      	ldrb	r2, [r0, #1]
    84d0:	01d2      	lsls	r2, r2, #7
    84d2:	4313      	orrs	r3, r2
    84d4:	600b      	str	r3, [r1, #0]
    84d6:	7803      	ldrb	r3, [r0, #0]
    84d8:	2b04      	cmp	r3, #4
    84da:	d011      	beq.n	8500 <system_clock_source_dfll_set_config+0x54>
    84dc:	2b20      	cmp	r3, #32
    84de:	d10e      	bne.n	84fe <system_clock_source_dfll_set_config+0x52>
    84e0:	7b03      	ldrb	r3, [r0, #12]
    84e2:	069b      	lsls	r3, r3, #26
    84e4:	8a02      	ldrh	r2, [r0, #16]
    84e6:	4313      	orrs	r3, r2
    84e8:	89c2      	ldrh	r2, [r0, #14]
    84ea:	0412      	lsls	r2, r2, #16
    84ec:	490d      	ldr	r1, [pc, #52]	; (8524 <system_clock_source_dfll_set_config+0x78>)
    84ee:	400a      	ands	r2, r1
    84f0:	4313      	orrs	r3, r2
    84f2:	4a0b      	ldr	r2, [pc, #44]	; (8520 <system_clock_source_dfll_set_config+0x74>)
    84f4:	6093      	str	r3, [r2, #8]
    84f6:	6811      	ldr	r1, [r2, #0]
    84f8:	4b0b      	ldr	r3, [pc, #44]	; (8528 <system_clock_source_dfll_set_config+0x7c>)
    84fa:	430b      	orrs	r3, r1
    84fc:	6013      	str	r3, [r2, #0]
    84fe:	bd10      	pop	{r4, pc}
    8500:	7b03      	ldrb	r3, [r0, #12]
    8502:	069b      	lsls	r3, r3, #26
    8504:	8a02      	ldrh	r2, [r0, #16]
    8506:	4313      	orrs	r3, r2
    8508:	89c2      	ldrh	r2, [r0, #14]
    850a:	0412      	lsls	r2, r2, #16
    850c:	4905      	ldr	r1, [pc, #20]	; (8524 <system_clock_source_dfll_set_config+0x78>)
    850e:	400a      	ands	r2, r1
    8510:	4313      	orrs	r3, r2
    8512:	4a03      	ldr	r2, [pc, #12]	; (8520 <system_clock_source_dfll_set_config+0x74>)
    8514:	6093      	str	r3, [r2, #8]
    8516:	6813      	ldr	r3, [r2, #0]
    8518:	2104      	movs	r1, #4
    851a:	430b      	orrs	r3, r1
    851c:	6013      	str	r3, [r2, #0]
    851e:	e7ee      	b.n	84fe <system_clock_source_dfll_set_config+0x52>
    8520:	200010a0 	.word	0x200010a0
    8524:	03ff0000 	.word	0x03ff0000
    8528:	00000424 	.word	0x00000424

0000852c <system_clock_source_enable>:
    852c:	2808      	cmp	r0, #8
    852e:	d803      	bhi.n	8538 <system_clock_source_enable+0xc>
    8530:	0080      	lsls	r0, r0, #2
    8532:	4b25      	ldr	r3, [pc, #148]	; (85c8 <system_clock_source_enable+0x9c>)
    8534:	581b      	ldr	r3, [r3, r0]
    8536:	469f      	mov	pc, r3
    8538:	2017      	movs	r0, #23
    853a:	e044      	b.n	85c6 <system_clock_source_enable+0x9a>
    853c:	4a23      	ldr	r2, [pc, #140]	; (85cc <system_clock_source_enable+0xa0>)
    853e:	6a13      	ldr	r3, [r2, #32]
    8540:	2102      	movs	r1, #2
    8542:	430b      	orrs	r3, r1
    8544:	6213      	str	r3, [r2, #32]
    8546:	2000      	movs	r0, #0
    8548:	e03d      	b.n	85c6 <system_clock_source_enable+0x9a>
    854a:	4a20      	ldr	r2, [pc, #128]	; (85cc <system_clock_source_enable+0xa0>)
    854c:	6993      	ldr	r3, [r2, #24]
    854e:	2102      	movs	r1, #2
    8550:	430b      	orrs	r3, r1
    8552:	6193      	str	r3, [r2, #24]
    8554:	2000      	movs	r0, #0
    8556:	e036      	b.n	85c6 <system_clock_source_enable+0x9a>
    8558:	4a1c      	ldr	r2, [pc, #112]	; (85cc <system_clock_source_enable+0xa0>)
    855a:	8a13      	ldrh	r3, [r2, #16]
    855c:	2102      	movs	r1, #2
    855e:	430b      	orrs	r3, r1
    8560:	8213      	strh	r3, [r2, #16]
    8562:	2000      	movs	r0, #0
    8564:	e02f      	b.n	85c6 <system_clock_source_enable+0x9a>
    8566:	4a19      	ldr	r2, [pc, #100]	; (85cc <system_clock_source_enable+0xa0>)
    8568:	8a93      	ldrh	r3, [r2, #20]
    856a:	2102      	movs	r1, #2
    856c:	430b      	orrs	r3, r1
    856e:	8293      	strh	r3, [r2, #20]
    8570:	2000      	movs	r0, #0
    8572:	e028      	b.n	85c6 <system_clock_source_enable+0x9a>
    8574:	4916      	ldr	r1, [pc, #88]	; (85d0 <system_clock_source_enable+0xa4>)
    8576:	680b      	ldr	r3, [r1, #0]
    8578:	2202      	movs	r2, #2
    857a:	4313      	orrs	r3, r2
    857c:	600b      	str	r3, [r1, #0]
    857e:	4b13      	ldr	r3, [pc, #76]	; (85cc <system_clock_source_enable+0xa0>)
    8580:	849a      	strh	r2, [r3, #36]	; 0x24
    8582:	0019      	movs	r1, r3
    8584:	320e      	adds	r2, #14
    8586:	68cb      	ldr	r3, [r1, #12]
    8588:	421a      	tst	r2, r3
    858a:	d0fc      	beq.n	8586 <system_clock_source_enable+0x5a>
    858c:	4a10      	ldr	r2, [pc, #64]	; (85d0 <system_clock_source_enable+0xa4>)
    858e:	6891      	ldr	r1, [r2, #8]
    8590:	4b0e      	ldr	r3, [pc, #56]	; (85cc <system_clock_source_enable+0xa0>)
    8592:	62d9      	str	r1, [r3, #44]	; 0x2c
    8594:	6852      	ldr	r2, [r2, #4]
    8596:	629a      	str	r2, [r3, #40]	; 0x28
    8598:	2200      	movs	r2, #0
    859a:	849a      	strh	r2, [r3, #36]	; 0x24
    859c:	0019      	movs	r1, r3
    859e:	3210      	adds	r2, #16
    85a0:	68cb      	ldr	r3, [r1, #12]
    85a2:	421a      	tst	r2, r3
    85a4:	d0fc      	beq.n	85a0 <system_clock_source_enable+0x74>
    85a6:	4b0a      	ldr	r3, [pc, #40]	; (85d0 <system_clock_source_enable+0xa4>)
    85a8:	681b      	ldr	r3, [r3, #0]
    85aa:	b29b      	uxth	r3, r3
    85ac:	4a07      	ldr	r2, [pc, #28]	; (85cc <system_clock_source_enable+0xa0>)
    85ae:	8493      	strh	r3, [r2, #36]	; 0x24
    85b0:	2000      	movs	r0, #0
    85b2:	e008      	b.n	85c6 <system_clock_source_enable+0x9a>
    85b4:	4905      	ldr	r1, [pc, #20]	; (85cc <system_clock_source_enable+0xa0>)
    85b6:	2244      	movs	r2, #68	; 0x44
    85b8:	5c8b      	ldrb	r3, [r1, r2]
    85ba:	2002      	movs	r0, #2
    85bc:	4303      	orrs	r3, r0
    85be:	548b      	strb	r3, [r1, r2]
    85c0:	2000      	movs	r0, #0
    85c2:	e000      	b.n	85c6 <system_clock_source_enable+0x9a>
    85c4:	2000      	movs	r0, #0
    85c6:	4770      	bx	lr
    85c8:	0000c510 	.word	0x0000c510
    85cc:	40000800 	.word	0x40000800
    85d0:	200010a0 	.word	0x200010a0

000085d4 <system_clock_init>:
    85d4:	b5f0      	push	{r4, r5, r6, r7, lr}
    85d6:	46de      	mov	lr, fp
    85d8:	4657      	mov	r7, sl
    85da:	464e      	mov	r6, r9
    85dc:	4645      	mov	r5, r8
    85de:	b5e0      	push	{r5, r6, r7, lr}
    85e0:	b08f      	sub	sp, #60	; 0x3c
    85e2:	22c2      	movs	r2, #194	; 0xc2
    85e4:	00d2      	lsls	r2, r2, #3
    85e6:	4b5f      	ldr	r3, [pc, #380]	; (8764 <system_clock_init+0x190>)
    85e8:	609a      	str	r2, [r3, #8]
    85ea:	4a5f      	ldr	r2, [pc, #380]	; (8768 <system_clock_init+0x194>)
    85ec:	6853      	ldr	r3, [r2, #4]
    85ee:	211e      	movs	r1, #30
    85f0:	438b      	bics	r3, r1
    85f2:	391a      	subs	r1, #26
    85f4:	430b      	orrs	r3, r1
    85f6:	6053      	str	r3, [r2, #4]
    85f8:	2206      	movs	r2, #6
    85fa:	ab01      	add	r3, sp, #4
    85fc:	701a      	strb	r2, [r3, #0]
    85fe:	2400      	movs	r4, #0
    8600:	4d5a      	ldr	r5, [pc, #360]	; (876c <system_clock_init+0x198>)
    8602:	b2e0      	uxtb	r0, r4
    8604:	a901      	add	r1, sp, #4
    8606:	47a8      	blx	r5
    8608:	3401      	adds	r4, #1
    860a:	2c25      	cmp	r4, #37	; 0x25
    860c:	d1f9      	bne.n	8602 <system_clock_init+0x2e>
    860e:	a80a      	add	r0, sp, #40	; 0x28
    8610:	2300      	movs	r3, #0
    8612:	7003      	strb	r3, [r0, #0]
    8614:	7083      	strb	r3, [r0, #2]
    8616:	2280      	movs	r2, #128	; 0x80
    8618:	0212      	lsls	r2, r2, #8
    861a:	6082      	str	r2, [r0, #8]
    861c:	2201      	movs	r2, #1
    861e:	7102      	strb	r2, [r0, #4]
    8620:	7383      	strb	r3, [r0, #14]
    8622:	2106      	movs	r1, #6
    8624:	7041      	strb	r1, [r0, #1]
    8626:	70c2      	strb	r2, [r0, #3]
    8628:	7343      	strb	r3, [r0, #13]
    862a:	7302      	strb	r2, [r0, #12]
    862c:	4b50      	ldr	r3, [pc, #320]	; (8770 <system_clock_init+0x19c>)
    862e:	4798      	blx	r3
    8630:	2005      	movs	r0, #5
    8632:	4b50      	ldr	r3, [pc, #320]	; (8774 <system_clock_init+0x1a0>)
    8634:	4798      	blx	r3
    8636:	494b      	ldr	r1, [pc, #300]	; (8764 <system_clock_init+0x190>)
    8638:	2202      	movs	r2, #2
    863a:	68cb      	ldr	r3, [r1, #12]
    863c:	421a      	tst	r2, r3
    863e:	d0fc      	beq.n	863a <system_clock_init+0x66>
    8640:	ab05      	add	r3, sp, #20
    8642:	2200      	movs	r2, #0
    8644:	2100      	movs	r1, #0
    8646:	8059      	strh	r1, [r3, #2]
    8648:	719a      	strb	r2, [r3, #6]
    864a:	71da      	strb	r2, [r3, #7]
    864c:	3120      	adds	r1, #32
    864e:	7019      	strb	r1, [r3, #0]
    8650:	705a      	strb	r2, [r3, #1]
    8652:	4b49      	ldr	r3, [pc, #292]	; (8778 <system_clock_init+0x1a4>)
    8654:	681b      	ldr	r3, [r3, #0]
    8656:	0e9b      	lsrs	r3, r3, #26
    8658:	2b3f      	cmp	r3, #63	; 0x3f
    865a:	d100      	bne.n	865e <system_clock_init+0x8a>
    865c:	e080      	b.n	8760 <system_clock_init+0x18c>
    865e:	a805      	add	r0, sp, #20
    8660:	7203      	strb	r3, [r0, #8]
    8662:	2307      	movs	r3, #7
    8664:	4699      	mov	r9, r3
    8666:	7303      	strb	r3, [r0, #12]
    8668:	230a      	movs	r3, #10
    866a:	81c3      	strh	r3, [r0, #14]
    866c:	4b43      	ldr	r3, [pc, #268]	; (877c <system_clock_init+0x1a8>)
    866e:	8143      	strh	r3, [r0, #10]
    8670:	3bff      	subs	r3, #255	; 0xff
    8672:	8083      	strh	r3, [r0, #4]
    8674:	4b42      	ldr	r3, [pc, #264]	; (8780 <system_clock_init+0x1ac>)
    8676:	8203      	strh	r3, [r0, #16]
    8678:	4b42      	ldr	r3, [pc, #264]	; (8784 <system_clock_init+0x1b0>)
    867a:	4798      	blx	r3
    867c:	a804      	add	r0, sp, #16
    867e:	2500      	movs	r5, #0
    8680:	7045      	strb	r5, [r0, #1]
    8682:	7005      	strb	r5, [r0, #0]
    8684:	7085      	strb	r5, [r0, #2]
    8686:	4b40      	ldr	r3, [pc, #256]	; (8788 <system_clock_init+0x1b4>)
    8688:	4798      	blx	r3
    868a:	2006      	movs	r0, #6
    868c:	4b39      	ldr	r3, [pc, #228]	; (8774 <system_clock_init+0x1a0>)
    868e:	469a      	mov	sl, r3
    8690:	4798      	blx	r3
    8692:	4b3e      	ldr	r3, [pc, #248]	; (878c <system_clock_init+0x1b8>)
    8694:	4798      	blx	r3
    8696:	ac01      	add	r4, sp, #4
    8698:	2601      	movs	r6, #1
    869a:	6066      	str	r6, [r4, #4]
    869c:	7065      	strb	r5, [r4, #1]
    869e:	2305      	movs	r3, #5
    86a0:	469b      	mov	fp, r3
    86a2:	7023      	strb	r3, [r4, #0]
    86a4:	7226      	strb	r6, [r4, #8]
    86a6:	7266      	strb	r6, [r4, #9]
    86a8:	0021      	movs	r1, r4
    86aa:	2001      	movs	r0, #1
    86ac:	4b38      	ldr	r3, [pc, #224]	; (8790 <system_clock_init+0x1bc>)
    86ae:	4698      	mov	r8, r3
    86b0:	4798      	blx	r3
    86b2:	2001      	movs	r0, #1
    86b4:	4f37      	ldr	r7, [pc, #220]	; (8794 <system_clock_init+0x1c0>)
    86b6:	47b8      	blx	r7
    86b8:	6066      	str	r6, [r4, #4]
    86ba:	7065      	strb	r5, [r4, #1]
    86bc:	7265      	strb	r5, [r4, #9]
    86be:	465b      	mov	r3, fp
    86c0:	7023      	strb	r3, [r4, #0]
    86c2:	7226      	strb	r6, [r4, #8]
    86c4:	0021      	movs	r1, r4
    86c6:	2002      	movs	r0, #2
    86c8:	47c0      	blx	r8
    86ca:	2002      	movs	r0, #2
    86cc:	47b8      	blx	r7
    86ce:	6066      	str	r6, [r4, #4]
    86d0:	7065      	strb	r5, [r4, #1]
    86d2:	2306      	movs	r3, #6
    86d4:	7023      	strb	r3, [r4, #0]
    86d6:	7225      	strb	r5, [r4, #8]
    86d8:	7265      	strb	r5, [r4, #9]
    86da:	0021      	movs	r1, r4
    86dc:	2003      	movs	r0, #3
    86de:	47c0      	blx	r8
    86e0:	2003      	movs	r0, #3
    86e2:	47b8      	blx	r7
    86e4:	7065      	strb	r5, [r4, #1]
    86e6:	7225      	strb	r5, [r4, #8]
    86e8:	7265      	strb	r5, [r4, #9]
    86ea:	464b      	mov	r3, r9
    86ec:	7023      	strb	r3, [r4, #0]
    86ee:	2344      	movs	r3, #68	; 0x44
    86f0:	6063      	str	r3, [r4, #4]
    86f2:	0021      	movs	r1, r4
    86f4:	2004      	movs	r0, #4
    86f6:	47c0      	blx	r8
    86f8:	2004      	movs	r0, #4
    86fa:	47b8      	blx	r7
    86fc:	6066      	str	r6, [r4, #4]
    86fe:	7065      	strb	r5, [r4, #1]
    8700:	7225      	strb	r5, [r4, #8]
    8702:	7265      	strb	r5, [r4, #9]
    8704:	464b      	mov	r3, r9
    8706:	7023      	strb	r3, [r4, #0]
    8708:	0021      	movs	r1, r4
    870a:	2005      	movs	r0, #5
    870c:	47c0      	blx	r8
    870e:	2005      	movs	r0, #5
    8710:	47b8      	blx	r7
    8712:	2007      	movs	r0, #7
    8714:	47d0      	blx	sl
    8716:	4913      	ldr	r1, [pc, #76]	; (8764 <system_clock_init+0x190>)
    8718:	2210      	movs	r2, #16
    871a:	68cb      	ldr	r3, [r1, #12]
    871c:	421a      	tst	r2, r3
    871e:	d0fc      	beq.n	871a <system_clock_init+0x146>
    8720:	4a10      	ldr	r2, [pc, #64]	; (8764 <system_clock_init+0x190>)
    8722:	8c93      	ldrh	r3, [r2, #36]	; 0x24
    8724:	2180      	movs	r1, #128	; 0x80
    8726:	430b      	orrs	r3, r1
    8728:	8493      	strh	r3, [r2, #36]	; 0x24
    872a:	4a1b      	ldr	r2, [pc, #108]	; (8798 <system_clock_init+0x1c4>)
    872c:	2300      	movs	r3, #0
    872e:	7213      	strb	r3, [r2, #8]
    8730:	7253      	strb	r3, [r2, #9]
    8732:	7293      	strb	r3, [r2, #10]
    8734:	72d3      	strb	r3, [r2, #11]
    8736:	a901      	add	r1, sp, #4
    8738:	2201      	movs	r2, #1
    873a:	604a      	str	r2, [r1, #4]
    873c:	704b      	strb	r3, [r1, #1]
    873e:	724b      	strb	r3, [r1, #9]
    8740:	3307      	adds	r3, #7
    8742:	700b      	strb	r3, [r1, #0]
    8744:	720a      	strb	r2, [r1, #8]
    8746:	2000      	movs	r0, #0
    8748:	4b11      	ldr	r3, [pc, #68]	; (8790 <system_clock_init+0x1bc>)
    874a:	4798      	blx	r3
    874c:	2000      	movs	r0, #0
    874e:	4b11      	ldr	r3, [pc, #68]	; (8794 <system_clock_init+0x1c0>)
    8750:	4798      	blx	r3
    8752:	b00f      	add	sp, #60	; 0x3c
    8754:	bc3c      	pop	{r2, r3, r4, r5}
    8756:	4690      	mov	r8, r2
    8758:	4699      	mov	r9, r3
    875a:	46a2      	mov	sl, r4
    875c:	46ab      	mov	fp, r5
    875e:	bdf0      	pop	{r4, r5, r6, r7, pc}
    8760:	3b20      	subs	r3, #32
    8762:	e77c      	b.n	865e <system_clock_init+0x8a>
    8764:	40000800 	.word	0x40000800
    8768:	41004000 	.word	0x41004000
    876c:	000089d5 	.word	0x000089d5
    8770:	000083f5 	.word	0x000083f5
    8774:	0000852d 	.word	0x0000852d
    8778:	00806024 	.word	0x00806024
    877c:	000001ff 	.word	0x000001ff
    8780:	ffffbb80 	.word	0xffffbb80
    8784:	000084ad 	.word	0x000084ad
    8788:	000083b9 	.word	0x000083b9
    878c:	0000879d 	.word	0x0000879d
    8790:	000087c1 	.word	0x000087c1
    8794:	00008879 	.word	0x00008879
    8798:	40000400 	.word	0x40000400

0000879c <system_gclk_init>:
    879c:	4a06      	ldr	r2, [pc, #24]	; (87b8 <system_gclk_init+0x1c>)
    879e:	6993      	ldr	r3, [r2, #24]
    87a0:	2108      	movs	r1, #8
    87a2:	430b      	orrs	r3, r1
    87a4:	6193      	str	r3, [r2, #24]
    87a6:	2201      	movs	r2, #1
    87a8:	4b04      	ldr	r3, [pc, #16]	; (87bc <system_gclk_init+0x20>)
    87aa:	701a      	strb	r2, [r3, #0]
    87ac:	0019      	movs	r1, r3
    87ae:	780b      	ldrb	r3, [r1, #0]
    87b0:	4213      	tst	r3, r2
    87b2:	d1fc      	bne.n	87ae <system_gclk_init+0x12>
    87b4:	4770      	bx	lr
    87b6:	46c0      	nop			; (mov r8, r8)
    87b8:	40000400 	.word	0x40000400
    87bc:	40000c00 	.word	0x40000c00

000087c0 <system_gclk_gen_set_config>:
    87c0:	b570      	push	{r4, r5, r6, lr}
    87c2:	0006      	movs	r6, r0
    87c4:	0004      	movs	r4, r0
    87c6:	780d      	ldrb	r5, [r1, #0]
    87c8:	022d      	lsls	r5, r5, #8
    87ca:	4305      	orrs	r5, r0
    87cc:	784b      	ldrb	r3, [r1, #1]
    87ce:	2b00      	cmp	r3, #0
    87d0:	d002      	beq.n	87d8 <system_gclk_gen_set_config+0x18>
    87d2:	2380      	movs	r3, #128	; 0x80
    87d4:	02db      	lsls	r3, r3, #11
    87d6:	431d      	orrs	r5, r3
    87d8:	7a4b      	ldrb	r3, [r1, #9]
    87da:	2b00      	cmp	r3, #0
    87dc:	d002      	beq.n	87e4 <system_gclk_gen_set_config+0x24>
    87de:	2380      	movs	r3, #128	; 0x80
    87e0:	031b      	lsls	r3, r3, #12
    87e2:	431d      	orrs	r5, r3
    87e4:	6848      	ldr	r0, [r1, #4]
    87e6:	2801      	cmp	r0, #1
    87e8:	d910      	bls.n	880c <system_gclk_gen_set_config+0x4c>
    87ea:	1e43      	subs	r3, r0, #1
    87ec:	4218      	tst	r0, r3
    87ee:	d134      	bne.n	885a <system_gclk_gen_set_config+0x9a>
    87f0:	2802      	cmp	r0, #2
    87f2:	d930      	bls.n	8856 <system_gclk_gen_set_config+0x96>
    87f4:	2302      	movs	r3, #2
    87f6:	2200      	movs	r2, #0
    87f8:	3201      	adds	r2, #1
    87fa:	005b      	lsls	r3, r3, #1
    87fc:	4298      	cmp	r0, r3
    87fe:	d8fb      	bhi.n	87f8 <system_gclk_gen_set_config+0x38>
    8800:	0212      	lsls	r2, r2, #8
    8802:	4332      	orrs	r2, r6
    8804:	0014      	movs	r4, r2
    8806:	2380      	movs	r3, #128	; 0x80
    8808:	035b      	lsls	r3, r3, #13
    880a:	431d      	orrs	r5, r3
    880c:	7a0b      	ldrb	r3, [r1, #8]
    880e:	2b00      	cmp	r3, #0
    8810:	d002      	beq.n	8818 <system_gclk_gen_set_config+0x58>
    8812:	2380      	movs	r3, #128	; 0x80
    8814:	039b      	lsls	r3, r3, #14
    8816:	431d      	orrs	r5, r3
    8818:	4a13      	ldr	r2, [pc, #76]	; (8868 <system_gclk_gen_set_config+0xa8>)
    881a:	7853      	ldrb	r3, [r2, #1]
    881c:	b25b      	sxtb	r3, r3
    881e:	2b00      	cmp	r3, #0
    8820:	dbfb      	blt.n	881a <system_gclk_gen_set_config+0x5a>
    8822:	4b12      	ldr	r3, [pc, #72]	; (886c <system_gclk_gen_set_config+0xac>)
    8824:	4798      	blx	r3
    8826:	4b12      	ldr	r3, [pc, #72]	; (8870 <system_gclk_gen_set_config+0xb0>)
    8828:	701e      	strb	r6, [r3, #0]
    882a:	4a0f      	ldr	r2, [pc, #60]	; (8868 <system_gclk_gen_set_config+0xa8>)
    882c:	7853      	ldrb	r3, [r2, #1]
    882e:	b25b      	sxtb	r3, r3
    8830:	2b00      	cmp	r3, #0
    8832:	dbfb      	blt.n	882c <system_gclk_gen_set_config+0x6c>
    8834:	4b0c      	ldr	r3, [pc, #48]	; (8868 <system_gclk_gen_set_config+0xa8>)
    8836:	609c      	str	r4, [r3, #8]
    8838:	001a      	movs	r2, r3
    883a:	7853      	ldrb	r3, [r2, #1]
    883c:	b25b      	sxtb	r3, r3
    883e:	2b00      	cmp	r3, #0
    8840:	dbfb      	blt.n	883a <system_gclk_gen_set_config+0x7a>
    8842:	4a09      	ldr	r2, [pc, #36]	; (8868 <system_gclk_gen_set_config+0xa8>)
    8844:	6853      	ldr	r3, [r2, #4]
    8846:	2180      	movs	r1, #128	; 0x80
    8848:	0249      	lsls	r1, r1, #9
    884a:	400b      	ands	r3, r1
    884c:	431d      	orrs	r5, r3
    884e:	6055      	str	r5, [r2, #4]
    8850:	4b08      	ldr	r3, [pc, #32]	; (8874 <system_gclk_gen_set_config+0xb4>)
    8852:	4798      	blx	r3
    8854:	bd70      	pop	{r4, r5, r6, pc}
    8856:	2200      	movs	r2, #0
    8858:	e7d2      	b.n	8800 <system_gclk_gen_set_config+0x40>
    885a:	0204      	lsls	r4, r0, #8
    885c:	4334      	orrs	r4, r6
    885e:	2380      	movs	r3, #128	; 0x80
    8860:	029b      	lsls	r3, r3, #10
    8862:	431d      	orrs	r5, r3
    8864:	e7d2      	b.n	880c <system_gclk_gen_set_config+0x4c>
    8866:	46c0      	nop			; (mov r8, r8)
    8868:	40000c00 	.word	0x40000c00
    886c:	000082b9 	.word	0x000082b9
    8870:	40000c08 	.word	0x40000c08
    8874:	000082f9 	.word	0x000082f9

00008878 <system_gclk_gen_enable>:
    8878:	b510      	push	{r4, lr}
    887a:	0004      	movs	r4, r0
    887c:	4a0b      	ldr	r2, [pc, #44]	; (88ac <system_gclk_gen_enable+0x34>)
    887e:	7853      	ldrb	r3, [r2, #1]
    8880:	b25b      	sxtb	r3, r3
    8882:	2b00      	cmp	r3, #0
    8884:	dbfb      	blt.n	887e <system_gclk_gen_enable+0x6>
    8886:	4b0a      	ldr	r3, [pc, #40]	; (88b0 <system_gclk_gen_enable+0x38>)
    8888:	4798      	blx	r3
    888a:	4b0a      	ldr	r3, [pc, #40]	; (88b4 <system_gclk_gen_enable+0x3c>)
    888c:	701c      	strb	r4, [r3, #0]
    888e:	4a07      	ldr	r2, [pc, #28]	; (88ac <system_gclk_gen_enable+0x34>)
    8890:	7853      	ldrb	r3, [r2, #1]
    8892:	b25b      	sxtb	r3, r3
    8894:	2b00      	cmp	r3, #0
    8896:	dbfb      	blt.n	8890 <system_gclk_gen_enable+0x18>
    8898:	4a04      	ldr	r2, [pc, #16]	; (88ac <system_gclk_gen_enable+0x34>)
    889a:	6851      	ldr	r1, [r2, #4]
    889c:	2380      	movs	r3, #128	; 0x80
    889e:	025b      	lsls	r3, r3, #9
    88a0:	430b      	orrs	r3, r1
    88a2:	6053      	str	r3, [r2, #4]
    88a4:	4b04      	ldr	r3, [pc, #16]	; (88b8 <system_gclk_gen_enable+0x40>)
    88a6:	4798      	blx	r3
    88a8:	bd10      	pop	{r4, pc}
    88aa:	46c0      	nop			; (mov r8, r8)
    88ac:	40000c00 	.word	0x40000c00
    88b0:	000082b9 	.word	0x000082b9
    88b4:	40000c04 	.word	0x40000c04
    88b8:	000082f9 	.word	0x000082f9

000088bc <system_gclk_gen_get_hz>:
    88bc:	b570      	push	{r4, r5, r6, lr}
    88be:	0004      	movs	r4, r0
    88c0:	4a1a      	ldr	r2, [pc, #104]	; (892c <system_gclk_gen_get_hz+0x70>)
    88c2:	7853      	ldrb	r3, [r2, #1]
    88c4:	b25b      	sxtb	r3, r3
    88c6:	2b00      	cmp	r3, #0
    88c8:	dbfb      	blt.n	88c2 <system_gclk_gen_get_hz+0x6>
    88ca:	4b19      	ldr	r3, [pc, #100]	; (8930 <system_gclk_gen_get_hz+0x74>)
    88cc:	4798      	blx	r3
    88ce:	4b19      	ldr	r3, [pc, #100]	; (8934 <system_gclk_gen_get_hz+0x78>)
    88d0:	701c      	strb	r4, [r3, #0]
    88d2:	4a16      	ldr	r2, [pc, #88]	; (892c <system_gclk_gen_get_hz+0x70>)
    88d4:	7853      	ldrb	r3, [r2, #1]
    88d6:	b25b      	sxtb	r3, r3
    88d8:	2b00      	cmp	r3, #0
    88da:	dbfb      	blt.n	88d4 <system_gclk_gen_get_hz+0x18>
    88dc:	4e13      	ldr	r6, [pc, #76]	; (892c <system_gclk_gen_get_hz+0x70>)
    88de:	6870      	ldr	r0, [r6, #4]
    88e0:	04c0      	lsls	r0, r0, #19
    88e2:	0ec0      	lsrs	r0, r0, #27
    88e4:	4b14      	ldr	r3, [pc, #80]	; (8938 <system_gclk_gen_get_hz+0x7c>)
    88e6:	4798      	blx	r3
    88e8:	0005      	movs	r5, r0
    88ea:	4b12      	ldr	r3, [pc, #72]	; (8934 <system_gclk_gen_get_hz+0x78>)
    88ec:	701c      	strb	r4, [r3, #0]
    88ee:	6876      	ldr	r6, [r6, #4]
    88f0:	02f6      	lsls	r6, r6, #11
    88f2:	0ff6      	lsrs	r6, r6, #31
    88f4:	4b11      	ldr	r3, [pc, #68]	; (893c <system_gclk_gen_get_hz+0x80>)
    88f6:	701c      	strb	r4, [r3, #0]
    88f8:	4a0c      	ldr	r2, [pc, #48]	; (892c <system_gclk_gen_get_hz+0x70>)
    88fa:	7853      	ldrb	r3, [r2, #1]
    88fc:	b25b      	sxtb	r3, r3
    88fe:	2b00      	cmp	r3, #0
    8900:	dbfb      	blt.n	88fa <system_gclk_gen_get_hz+0x3e>
    8902:	4b0a      	ldr	r3, [pc, #40]	; (892c <system_gclk_gen_get_hz+0x70>)
    8904:	689c      	ldr	r4, [r3, #8]
    8906:	0224      	lsls	r4, r4, #8
    8908:	0c24      	lsrs	r4, r4, #16
    890a:	4b0d      	ldr	r3, [pc, #52]	; (8940 <system_gclk_gen_get_hz+0x84>)
    890c:	4798      	blx	r3
    890e:	2e00      	cmp	r6, #0
    8910:	d107      	bne.n	8922 <system_gclk_gen_get_hz+0x66>
    8912:	2c01      	cmp	r4, #1
    8914:	d907      	bls.n	8926 <system_gclk_gen_get_hz+0x6a>
    8916:	0021      	movs	r1, r4
    8918:	0028      	movs	r0, r5
    891a:	4b0a      	ldr	r3, [pc, #40]	; (8944 <system_gclk_gen_get_hz+0x88>)
    891c:	4798      	blx	r3
    891e:	0005      	movs	r5, r0
    8920:	e001      	b.n	8926 <system_gclk_gen_get_hz+0x6a>
    8922:	3401      	adds	r4, #1
    8924:	40e5      	lsrs	r5, r4
    8926:	0028      	movs	r0, r5
    8928:	bd70      	pop	{r4, r5, r6, pc}
    892a:	46c0      	nop			; (mov r8, r8)
    892c:	40000c00 	.word	0x40000c00
    8930:	000082b9 	.word	0x000082b9
    8934:	40000c04 	.word	0x40000c04
    8938:	00008329 	.word	0x00008329
    893c:	40000c08 	.word	0x40000c08
    8940:	000082f9 	.word	0x000082f9
    8944:	00008f5d 	.word	0x00008f5d

00008948 <system_gclk_chan_enable>:
    8948:	b510      	push	{r4, lr}
    894a:	0004      	movs	r4, r0
    894c:	4b06      	ldr	r3, [pc, #24]	; (8968 <system_gclk_chan_enable+0x20>)
    894e:	4798      	blx	r3
    8950:	4b06      	ldr	r3, [pc, #24]	; (896c <system_gclk_chan_enable+0x24>)
    8952:	701c      	strb	r4, [r3, #0]
    8954:	4a06      	ldr	r2, [pc, #24]	; (8970 <system_gclk_chan_enable+0x28>)
    8956:	8853      	ldrh	r3, [r2, #2]
    8958:	2180      	movs	r1, #128	; 0x80
    895a:	01c9      	lsls	r1, r1, #7
    895c:	430b      	orrs	r3, r1
    895e:	8053      	strh	r3, [r2, #2]
    8960:	4b04      	ldr	r3, [pc, #16]	; (8974 <system_gclk_chan_enable+0x2c>)
    8962:	4798      	blx	r3
    8964:	bd10      	pop	{r4, pc}
    8966:	46c0      	nop			; (mov r8, r8)
    8968:	000082b9 	.word	0x000082b9
    896c:	40000c02 	.word	0x40000c02
    8970:	40000c00 	.word	0x40000c00
    8974:	000082f9 	.word	0x000082f9

00008978 <system_gclk_chan_disable>:
    8978:	b510      	push	{r4, lr}
    897a:	0004      	movs	r4, r0
    897c:	4b0f      	ldr	r3, [pc, #60]	; (89bc <system_gclk_chan_disable+0x44>)
    897e:	4798      	blx	r3
    8980:	4b0f      	ldr	r3, [pc, #60]	; (89c0 <system_gclk_chan_disable+0x48>)
    8982:	701c      	strb	r4, [r3, #0]
    8984:	4a0f      	ldr	r2, [pc, #60]	; (89c4 <system_gclk_chan_disable+0x4c>)
    8986:	8853      	ldrh	r3, [r2, #2]
    8988:	051b      	lsls	r3, r3, #20
    898a:	0f18      	lsrs	r0, r3, #28
    898c:	8853      	ldrh	r3, [r2, #2]
    898e:	490e      	ldr	r1, [pc, #56]	; (89c8 <system_gclk_chan_disable+0x50>)
    8990:	400b      	ands	r3, r1
    8992:	8053      	strh	r3, [r2, #2]
    8994:	8853      	ldrh	r3, [r2, #2]
    8996:	490d      	ldr	r1, [pc, #52]	; (89cc <system_gclk_chan_disable+0x54>)
    8998:	400b      	ands	r3, r1
    899a:	8053      	strh	r3, [r2, #2]
    899c:	0011      	movs	r1, r2
    899e:	2280      	movs	r2, #128	; 0x80
    89a0:	01d2      	lsls	r2, r2, #7
    89a2:	884b      	ldrh	r3, [r1, #2]
    89a4:	4213      	tst	r3, r2
    89a6:	d1fc      	bne.n	89a2 <system_gclk_chan_disable+0x2a>
    89a8:	4906      	ldr	r1, [pc, #24]	; (89c4 <system_gclk_chan_disable+0x4c>)
    89aa:	884a      	ldrh	r2, [r1, #2]
    89ac:	0203      	lsls	r3, r0, #8
    89ae:	4806      	ldr	r0, [pc, #24]	; (89c8 <system_gclk_chan_disable+0x50>)
    89b0:	4002      	ands	r2, r0
    89b2:	4313      	orrs	r3, r2
    89b4:	804b      	strh	r3, [r1, #2]
    89b6:	4b06      	ldr	r3, [pc, #24]	; (89d0 <system_gclk_chan_disable+0x58>)
    89b8:	4798      	blx	r3
    89ba:	bd10      	pop	{r4, pc}
    89bc:	000082b9 	.word	0x000082b9
    89c0:	40000c02 	.word	0x40000c02
    89c4:	40000c00 	.word	0x40000c00
    89c8:	fffff0ff 	.word	0xfffff0ff
    89cc:	ffffbfff 	.word	0xffffbfff
    89d0:	000082f9 	.word	0x000082f9

000089d4 <system_gclk_chan_set_config>:
    89d4:	b510      	push	{r4, lr}
    89d6:	780c      	ldrb	r4, [r1, #0]
    89d8:	0224      	lsls	r4, r4, #8
    89da:	4304      	orrs	r4, r0
    89dc:	4b02      	ldr	r3, [pc, #8]	; (89e8 <system_gclk_chan_set_config+0x14>)
    89de:	4798      	blx	r3
    89e0:	b2a4      	uxth	r4, r4
    89e2:	4b02      	ldr	r3, [pc, #8]	; (89ec <system_gclk_chan_set_config+0x18>)
    89e4:	805c      	strh	r4, [r3, #2]
    89e6:	bd10      	pop	{r4, pc}
    89e8:	00008979 	.word	0x00008979
    89ec:	40000c00 	.word	0x40000c00

000089f0 <system_gclk_chan_get_hz>:
    89f0:	b510      	push	{r4, lr}
    89f2:	0004      	movs	r4, r0
    89f4:	4b06      	ldr	r3, [pc, #24]	; (8a10 <system_gclk_chan_get_hz+0x20>)
    89f6:	4798      	blx	r3
    89f8:	4b06      	ldr	r3, [pc, #24]	; (8a14 <system_gclk_chan_get_hz+0x24>)
    89fa:	701c      	strb	r4, [r3, #0]
    89fc:	4b06      	ldr	r3, [pc, #24]	; (8a18 <system_gclk_chan_get_hz+0x28>)
    89fe:	885c      	ldrh	r4, [r3, #2]
    8a00:	0524      	lsls	r4, r4, #20
    8a02:	0f24      	lsrs	r4, r4, #28
    8a04:	4b05      	ldr	r3, [pc, #20]	; (8a1c <system_gclk_chan_get_hz+0x2c>)
    8a06:	4798      	blx	r3
    8a08:	0020      	movs	r0, r4
    8a0a:	4b05      	ldr	r3, [pc, #20]	; (8a20 <system_gclk_chan_get_hz+0x30>)
    8a0c:	4798      	blx	r3
    8a0e:	bd10      	pop	{r4, pc}
    8a10:	000082b9 	.word	0x000082b9
    8a14:	40000c02 	.word	0x40000c02
    8a18:	40000c00 	.word	0x40000c00
    8a1c:	000082f9 	.word	0x000082f9
    8a20:	000088bd 	.word	0x000088bd

00008a24 <_system_pinmux_config>:
    8a24:	b530      	push	{r4, r5, lr}
    8a26:	78d3      	ldrb	r3, [r2, #3]
    8a28:	2b00      	cmp	r3, #0
    8a2a:	d135      	bne.n	8a98 <_system_pinmux_config+0x74>
    8a2c:	7813      	ldrb	r3, [r2, #0]
    8a2e:	2b80      	cmp	r3, #128	; 0x80
    8a30:	d029      	beq.n	8a86 <_system_pinmux_config+0x62>
    8a32:	061b      	lsls	r3, r3, #24
    8a34:	2480      	movs	r4, #128	; 0x80
    8a36:	0264      	lsls	r4, r4, #9
    8a38:	4323      	orrs	r3, r4
    8a3a:	7854      	ldrb	r4, [r2, #1]
    8a3c:	2502      	movs	r5, #2
    8a3e:	43ac      	bics	r4, r5
    8a40:	d106      	bne.n	8a50 <_system_pinmux_config+0x2c>
    8a42:	7894      	ldrb	r4, [r2, #2]
    8a44:	2c00      	cmp	r4, #0
    8a46:	d120      	bne.n	8a8a <_system_pinmux_config+0x66>
    8a48:	2480      	movs	r4, #128	; 0x80
    8a4a:	02a4      	lsls	r4, r4, #10
    8a4c:	4323      	orrs	r3, r4
    8a4e:	6041      	str	r1, [r0, #4]
    8a50:	7854      	ldrb	r4, [r2, #1]
    8a52:	3c01      	subs	r4, #1
    8a54:	2c01      	cmp	r4, #1
    8a56:	d91c      	bls.n	8a92 <_system_pinmux_config+0x6e>
    8a58:	040d      	lsls	r5, r1, #16
    8a5a:	0c2d      	lsrs	r5, r5, #16
    8a5c:	24a0      	movs	r4, #160	; 0xa0
    8a5e:	05e4      	lsls	r4, r4, #23
    8a60:	432c      	orrs	r4, r5
    8a62:	431c      	orrs	r4, r3
    8a64:	6284      	str	r4, [r0, #40]	; 0x28
    8a66:	0c0d      	lsrs	r5, r1, #16
    8a68:	24d0      	movs	r4, #208	; 0xd0
    8a6a:	0624      	lsls	r4, r4, #24
    8a6c:	432c      	orrs	r4, r5
    8a6e:	431c      	orrs	r4, r3
    8a70:	6284      	str	r4, [r0, #40]	; 0x28
    8a72:	78d4      	ldrb	r4, [r2, #3]
    8a74:	2c00      	cmp	r4, #0
    8a76:	d122      	bne.n	8abe <_system_pinmux_config+0x9a>
    8a78:	035b      	lsls	r3, r3, #13
    8a7a:	d51c      	bpl.n	8ab6 <_system_pinmux_config+0x92>
    8a7c:	7893      	ldrb	r3, [r2, #2]
    8a7e:	2b01      	cmp	r3, #1
    8a80:	d01e      	beq.n	8ac0 <_system_pinmux_config+0x9c>
    8a82:	6141      	str	r1, [r0, #20]
    8a84:	e017      	b.n	8ab6 <_system_pinmux_config+0x92>
    8a86:	2300      	movs	r3, #0
    8a88:	e7d7      	b.n	8a3a <_system_pinmux_config+0x16>
    8a8a:	24c0      	movs	r4, #192	; 0xc0
    8a8c:	02e4      	lsls	r4, r4, #11
    8a8e:	4323      	orrs	r3, r4
    8a90:	e7dd      	b.n	8a4e <_system_pinmux_config+0x2a>
    8a92:	4c0d      	ldr	r4, [pc, #52]	; (8ac8 <_system_pinmux_config+0xa4>)
    8a94:	4023      	ands	r3, r4
    8a96:	e7df      	b.n	8a58 <_system_pinmux_config+0x34>
    8a98:	6041      	str	r1, [r0, #4]
    8a9a:	040c      	lsls	r4, r1, #16
    8a9c:	0c24      	lsrs	r4, r4, #16
    8a9e:	23a0      	movs	r3, #160	; 0xa0
    8aa0:	05db      	lsls	r3, r3, #23
    8aa2:	4323      	orrs	r3, r4
    8aa4:	6283      	str	r3, [r0, #40]	; 0x28
    8aa6:	0c0c      	lsrs	r4, r1, #16
    8aa8:	23d0      	movs	r3, #208	; 0xd0
    8aaa:	061b      	lsls	r3, r3, #24
    8aac:	4323      	orrs	r3, r4
    8aae:	6283      	str	r3, [r0, #40]	; 0x28
    8ab0:	78d3      	ldrb	r3, [r2, #3]
    8ab2:	2b00      	cmp	r3, #0
    8ab4:	d103      	bne.n	8abe <_system_pinmux_config+0x9a>
    8ab6:	7853      	ldrb	r3, [r2, #1]
    8ab8:	3b01      	subs	r3, #1
    8aba:	2b01      	cmp	r3, #1
    8abc:	d902      	bls.n	8ac4 <_system_pinmux_config+0xa0>
    8abe:	bd30      	pop	{r4, r5, pc}
    8ac0:	6181      	str	r1, [r0, #24]
    8ac2:	e7f8      	b.n	8ab6 <_system_pinmux_config+0x92>
    8ac4:	6081      	str	r1, [r0, #8]
    8ac6:	e7fa      	b.n	8abe <_system_pinmux_config+0x9a>
    8ac8:	fffbffff 	.word	0xfffbffff

00008acc <system_pinmux_pin_set_config>:
    8acc:	b510      	push	{r4, lr}
    8ace:	000a      	movs	r2, r1
    8ad0:	09c1      	lsrs	r1, r0, #7
    8ad2:	2300      	movs	r3, #0
    8ad4:	2900      	cmp	r1, #0
    8ad6:	d104      	bne.n	8ae2 <system_pinmux_pin_set_config+0x16>
    8ad8:	0943      	lsrs	r3, r0, #5
    8ada:	01db      	lsls	r3, r3, #7
    8adc:	4905      	ldr	r1, [pc, #20]	; (8af4 <system_pinmux_pin_set_config+0x28>)
    8ade:	468c      	mov	ip, r1
    8ae0:	4463      	add	r3, ip
    8ae2:	241f      	movs	r4, #31
    8ae4:	4020      	ands	r0, r4
    8ae6:	2101      	movs	r1, #1
    8ae8:	4081      	lsls	r1, r0
    8aea:	0018      	movs	r0, r3
    8aec:	4b02      	ldr	r3, [pc, #8]	; (8af8 <system_pinmux_pin_set_config+0x2c>)
    8aee:	4798      	blx	r3
    8af0:	bd10      	pop	{r4, pc}
    8af2:	46c0      	nop			; (mov r8, r8)
    8af4:	41004400 	.word	0x41004400
    8af8:	00008a25 	.word	0x00008a25

00008afc <_system_dummy_init>:
    8afc:	4770      	bx	lr
	...

00008b00 <system_init>:
    8b00:	b510      	push	{r4, lr}
    8b02:	4b05      	ldr	r3, [pc, #20]	; (8b18 <system_init+0x18>)
    8b04:	4798      	blx	r3
    8b06:	4b05      	ldr	r3, [pc, #20]	; (8b1c <system_init+0x1c>)
    8b08:	4798      	blx	r3
    8b0a:	4b05      	ldr	r3, [pc, #20]	; (8b20 <system_init+0x20>)
    8b0c:	4798      	blx	r3
    8b0e:	4b05      	ldr	r3, [pc, #20]	; (8b24 <system_init+0x24>)
    8b10:	4798      	blx	r3
    8b12:	4b05      	ldr	r3, [pc, #20]	; (8b28 <system_init+0x28>)
    8b14:	4798      	blx	r3
    8b16:	bd10      	pop	{r4, pc}
    8b18:	000085d5 	.word	0x000085d5
    8b1c:	000081e9 	.word	0x000081e9
    8b20:	000036b1 	.word	0x000036b1
    8b24:	000037d1 	.word	0x000037d1
    8b28:	00008afd 	.word	0x00008afd

00008b2c <Dummy_Handler>:
    8b2c:	e7fe      	b.n	8b2c <Dummy_Handler>
	...

00008b30 <Reset_Handler>:
    8b30:	b5f8      	push	{r3, r4, r5, r6, r7, lr}
    8b32:	4a2a      	ldr	r2, [pc, #168]	; (8bdc <Reset_Handler+0xac>)
    8b34:	4b2a      	ldr	r3, [pc, #168]	; (8be0 <Reset_Handler+0xb0>)
    8b36:	429a      	cmp	r2, r3
    8b38:	d011      	beq.n	8b5e <Reset_Handler+0x2e>
    8b3a:	001a      	movs	r2, r3
    8b3c:	4b29      	ldr	r3, [pc, #164]	; (8be4 <Reset_Handler+0xb4>)
    8b3e:	429a      	cmp	r2, r3
    8b40:	d20d      	bcs.n	8b5e <Reset_Handler+0x2e>
    8b42:	4a29      	ldr	r2, [pc, #164]	; (8be8 <Reset_Handler+0xb8>)
    8b44:	3303      	adds	r3, #3
    8b46:	1a9b      	subs	r3, r3, r2
    8b48:	089b      	lsrs	r3, r3, #2
    8b4a:	3301      	adds	r3, #1
    8b4c:	009b      	lsls	r3, r3, #2
    8b4e:	2200      	movs	r2, #0
    8b50:	4823      	ldr	r0, [pc, #140]	; (8be0 <Reset_Handler+0xb0>)
    8b52:	4922      	ldr	r1, [pc, #136]	; (8bdc <Reset_Handler+0xac>)
    8b54:	588c      	ldr	r4, [r1, r2]
    8b56:	5084      	str	r4, [r0, r2]
    8b58:	3204      	adds	r2, #4
    8b5a:	429a      	cmp	r2, r3
    8b5c:	d1fa      	bne.n	8b54 <Reset_Handler+0x24>
    8b5e:	4a23      	ldr	r2, [pc, #140]	; (8bec <Reset_Handler+0xbc>)
    8b60:	4b23      	ldr	r3, [pc, #140]	; (8bf0 <Reset_Handler+0xc0>)
    8b62:	429a      	cmp	r2, r3
    8b64:	d20a      	bcs.n	8b7c <Reset_Handler+0x4c>
    8b66:	43d3      	mvns	r3, r2
    8b68:	4921      	ldr	r1, [pc, #132]	; (8bf0 <Reset_Handler+0xc0>)
    8b6a:	185b      	adds	r3, r3, r1
    8b6c:	2103      	movs	r1, #3
    8b6e:	438b      	bics	r3, r1
    8b70:	3304      	adds	r3, #4
    8b72:	189b      	adds	r3, r3, r2
    8b74:	2100      	movs	r1, #0
    8b76:	c202      	stmia	r2!, {r1}
    8b78:	4293      	cmp	r3, r2
    8b7a:	d1fc      	bne.n	8b76 <Reset_Handler+0x46>
    8b7c:	4a1d      	ldr	r2, [pc, #116]	; (8bf4 <Reset_Handler+0xc4>)
    8b7e:	21ff      	movs	r1, #255	; 0xff
    8b80:	4b1d      	ldr	r3, [pc, #116]	; (8bf8 <Reset_Handler+0xc8>)
    8b82:	438b      	bics	r3, r1
    8b84:	6093      	str	r3, [r2, #8]
    8b86:	39fd      	subs	r1, #253	; 0xfd
    8b88:	2390      	movs	r3, #144	; 0x90
    8b8a:	005b      	lsls	r3, r3, #1
    8b8c:	4a1b      	ldr	r2, [pc, #108]	; (8bfc <Reset_Handler+0xcc>)
    8b8e:	50d1      	str	r1, [r2, r3]
    8b90:	4a1b      	ldr	r2, [pc, #108]	; (8c00 <Reset_Handler+0xd0>)
    8b92:	78d3      	ldrb	r3, [r2, #3]
    8b94:	2503      	movs	r5, #3
    8b96:	43ab      	bics	r3, r5
    8b98:	2402      	movs	r4, #2
    8b9a:	4323      	orrs	r3, r4
    8b9c:	70d3      	strb	r3, [r2, #3]
    8b9e:	78d3      	ldrb	r3, [r2, #3]
    8ba0:	270c      	movs	r7, #12
    8ba2:	43bb      	bics	r3, r7
    8ba4:	2608      	movs	r6, #8
    8ba6:	4333      	orrs	r3, r6
    8ba8:	70d3      	strb	r3, [r2, #3]
    8baa:	4b16      	ldr	r3, [pc, #88]	; (8c04 <Reset_Handler+0xd4>)
    8bac:	7b98      	ldrb	r0, [r3, #14]
    8bae:	2230      	movs	r2, #48	; 0x30
    8bb0:	4390      	bics	r0, r2
    8bb2:	2220      	movs	r2, #32
    8bb4:	4310      	orrs	r0, r2
    8bb6:	7398      	strb	r0, [r3, #14]
    8bb8:	7b99      	ldrb	r1, [r3, #14]
    8bba:	43b9      	bics	r1, r7
    8bbc:	4331      	orrs	r1, r6
    8bbe:	7399      	strb	r1, [r3, #14]
    8bc0:	7b9a      	ldrb	r2, [r3, #14]
    8bc2:	43aa      	bics	r2, r5
    8bc4:	4322      	orrs	r2, r4
    8bc6:	739a      	strb	r2, [r3, #14]
    8bc8:	4a0f      	ldr	r2, [pc, #60]	; (8c08 <Reset_Handler+0xd8>)
    8bca:	6853      	ldr	r3, [r2, #4]
    8bcc:	2180      	movs	r1, #128	; 0x80
    8bce:	430b      	orrs	r3, r1
    8bd0:	6053      	str	r3, [r2, #4]
    8bd2:	4b0e      	ldr	r3, [pc, #56]	; (8c0c <Reset_Handler+0xdc>)
    8bd4:	4798      	blx	r3
    8bd6:	4b0e      	ldr	r3, [pc, #56]	; (8c10 <Reset_Handler+0xe0>)
    8bd8:	4798      	blx	r3
    8bda:	e7fe      	b.n	8bda <Reset_Handler+0xaa>
    8bdc:	0000c6a4 	.word	0x0000c6a4
    8be0:	20000000 	.word	0x20000000
    8be4:	20000170 	.word	0x20000170
    8be8:	20000004 	.word	0x20000004
    8bec:	20000170 	.word	0x20000170
    8bf0:	200029e0 	.word	0x200029e0
    8bf4:	e000ed00 	.word	0xe000ed00
    8bf8:	00000000 	.word	0x00000000
    8bfc:	41007000 	.word	0x41007000
    8c00:	41005000 	.word	0x41005000
    8c04:	41004800 	.word	0x41004800
    8c08:	41004000 	.word	0x41004000
    8c0c:	0000bda5 	.word	0x0000bda5
    8c10:	00008c15 	.word	0x00008c15

00008c14 <main>:
    8c14:	b570      	push	{r4, r5, r6, lr}
    8c16:	b082      	sub	sp, #8
    8c18:	2400      	movs	r4, #0
    8c1a:	9401      	str	r4, [sp, #4]
    8c1c:	4b51      	ldr	r3, [pc, #324]	; (8d64 <main+0x150>)
    8c1e:	4798      	blx	r3
    8c20:	2201      	movs	r2, #1
    8c22:	4b51      	ldr	r3, [pc, #324]	; (8d68 <main+0x154>)
    8c24:	701a      	strb	r2, [r3, #0]
    8c26:	f3bf 8f5f 	dmb	sy
    8c2a:	b662      	cpsie	i
    8c2c:	4b4f      	ldr	r3, [pc, #316]	; (8d6c <main+0x158>)
    8c2e:	701c      	strb	r4, [r3, #0]
    8c30:	705c      	strb	r4, [r3, #1]
    8c32:	709c      	strb	r4, [r3, #2]
    8c34:	70dc      	strb	r4, [r3, #3]
    8c36:	711a      	strb	r2, [r3, #4]
    8c38:	4b4d      	ldr	r3, [pc, #308]	; (8d70 <main+0x15c>)
    8c3a:	4798      	blx	r3
    8c3c:	4b4d      	ldr	r3, [pc, #308]	; (8d74 <main+0x160>)
    8c3e:	4798      	blx	r3
    8c40:	4b4d      	ldr	r3, [pc, #308]	; (8d78 <main+0x164>)
    8c42:	4798      	blx	r3
    8c44:	4b4d      	ldr	r3, [pc, #308]	; (8d7c <main+0x168>)
    8c46:	4798      	blx	r3
    8c48:	4b4d      	ldr	r3, [pc, #308]	; (8d80 <main+0x16c>)
    8c4a:	4798      	blx	r3
    8c4c:	4b4d      	ldr	r3, [pc, #308]	; (8d84 <main+0x170>)
    8c4e:	4798      	blx	r3
    8c50:	2000      	movs	r0, #0
    8c52:	4b4d      	ldr	r3, [pc, #308]	; (8d88 <main+0x174>)
    8c54:	4798      	blx	r3
    8c56:	4b4d      	ldr	r3, [pc, #308]	; (8d8c <main+0x178>)
    8c58:	4798      	blx	r3
    8c5a:	4b4d      	ldr	r3, [pc, #308]	; (8d90 <main+0x17c>)
    8c5c:	4798      	blx	r3
    8c5e:	4b4d      	ldr	r3, [pc, #308]	; (8d94 <main+0x180>)
    8c60:	4798      	blx	r3
    8c62:	4b4d      	ldr	r3, [pc, #308]	; (8d98 <main+0x184>)
    8c64:	4798      	blx	r3
    8c66:	4b4d      	ldr	r3, [pc, #308]	; (8d9c <main+0x188>)
    8c68:	4798      	blx	r3
    8c6a:	4b4d      	ldr	r3, [pc, #308]	; (8da0 <main+0x18c>)
    8c6c:	4798      	blx	r3
    8c6e:	4b4d      	ldr	r3, [pc, #308]	; (8da4 <main+0x190>)
    8c70:	4798      	blx	r3
    8c72:	4b4d      	ldr	r3, [pc, #308]	; (8da8 <main+0x194>)
    8c74:	4798      	blx	r3
    8c76:	4b4d      	ldr	r3, [pc, #308]	; (8dac <main+0x198>)
    8c78:	4798      	blx	r3
    8c7a:	4b4d      	ldr	r3, [pc, #308]	; (8db0 <main+0x19c>)
    8c7c:	4798      	blx	r3
    8c7e:	4b4d      	ldr	r3, [pc, #308]	; (8db4 <main+0x1a0>)
    8c80:	4798      	blx	r3
    8c82:	4b4d      	ldr	r3, [pc, #308]	; (8db8 <main+0x1a4>)
    8c84:	4798      	blx	r3
    8c86:	4c4d      	ldr	r4, [pc, #308]	; (8dbc <main+0x1a8>)
    8c88:	2340      	movs	r3, #64	; 0x40
    8c8a:	61a3      	str	r3, [r4, #24]
    8c8c:	4b4c      	ldr	r3, [pc, #304]	; (8dc0 <main+0x1ac>)
    8c8e:	4798      	blx	r3
    8c90:	2380      	movs	r3, #128	; 0x80
    8c92:	051b      	lsls	r3, r3, #20
    8c94:	61a3      	str	r3, [r4, #24]
    8c96:	4b4b      	ldr	r3, [pc, #300]	; (8dc4 <main+0x1b0>)
    8c98:	4798      	blx	r3
    8c9a:	9001      	str	r0, [sp, #4]
    8c9c:	4d49      	ldr	r5, [pc, #292]	; (8dc4 <main+0x1b0>)
    8c9e:	4c4a      	ldr	r4, [pc, #296]	; (8dc8 <main+0x1b4>)
    8ca0:	9e01      	ldr	r6, [sp, #4]
    8ca2:	47a8      	blx	r5
    8ca4:	0001      	movs	r1, r0
    8ca6:	0030      	movs	r0, r6
    8ca8:	47a0      	blx	r4
    8caa:	2862      	cmp	r0, #98	; 0x62
    8cac:	d9f8      	bls.n	8ca0 <main+0x8c>
    8cae:	4b47      	ldr	r3, [pc, #284]	; (8dcc <main+0x1b8>)
    8cb0:	4798      	blx	r3
    8cb2:	4b47      	ldr	r3, [pc, #284]	; (8dd0 <main+0x1bc>)
    8cb4:	4798      	blx	r3
    8cb6:	4b47      	ldr	r3, [pc, #284]	; (8dd4 <main+0x1c0>)
    8cb8:	4798      	blx	r3
    8cba:	4e47      	ldr	r6, [pc, #284]	; (8dd8 <main+0x1c4>)
    8cbc:	4d47      	ldr	r5, [pc, #284]	; (8ddc <main+0x1c8>)
    8cbe:	4c48      	ldr	r4, [pc, #288]	; (8de0 <main+0x1cc>)
    8cc0:	e00e      	b.n	8ce0 <main+0xcc>
    8cc2:	0019      	movs	r1, r3
    8cc4:	3201      	adds	r2, #1
    8cc6:	1c4b      	adds	r3, r1, #1
    8cc8:	b2db      	uxtb	r3, r3
    8cca:	7810      	ldrb	r0, [r2, #0]
    8ccc:	2800      	cmp	r0, #0
    8cce:	d0f8      	beq.n	8cc2 <main+0xae>
    8cd0:	2b00      	cmp	r3, #0
    8cd2:	d119      	bne.n	8d08 <main+0xf4>
    8cd4:	2201      	movs	r2, #1
    8cd6:	4b24      	ldr	r3, [pc, #144]	; (8d68 <main+0x154>)
    8cd8:	701a      	strb	r2, [r3, #0]
    8cda:	f3bf 8f5f 	dmb	sy
    8cde:	b662      	cpsie	i
    8ce0:	47b0      	blx	r6
    8ce2:	47a8      	blx	r5
    8ce4:	47a0      	blx	r4
    8ce6:	4b3f      	ldr	r3, [pc, #252]	; (8de4 <main+0x1d0>)
    8ce8:	4798      	blx	r3
    8cea:	4b3f      	ldr	r3, [pc, #252]	; (8de8 <main+0x1d4>)
    8cec:	4798      	blx	r3
    8cee:	b672      	cpsid	i
    8cf0:	f3bf 8f5f 	dmb	sy
    8cf4:	2200      	movs	r2, #0
    8cf6:	4b1c      	ldr	r3, [pc, #112]	; (8d68 <main+0x154>)
    8cf8:	701a      	strb	r2, [r3, #0]
    8cfa:	4b1c      	ldr	r3, [pc, #112]	; (8d6c <main+0x158>)
    8cfc:	781b      	ldrb	r3, [r3, #0]
    8cfe:	2b00      	cmp	r3, #0
    8d00:	d1e8      	bne.n	8cd4 <main+0xc0>
    8d02:	2100      	movs	r1, #0
    8d04:	4a19      	ldr	r2, [pc, #100]	; (8d6c <main+0x158>)
    8d06:	e7dd      	b.n	8cc4 <main+0xb0>
    8d08:	b672      	cpsid	i
    8d0a:	f3bf 8f5f 	dmb	sy
    8d0e:	2200      	movs	r2, #0
    8d10:	4b15      	ldr	r3, [pc, #84]	; (8d68 <main+0x154>)
    8d12:	701a      	strb	r2, [r3, #0]
    8d14:	4b35      	ldr	r3, [pc, #212]	; (8dec <main+0x1d8>)
    8d16:	699b      	ldr	r3, [r3, #24]
    8d18:	051b      	lsls	r3, r3, #20
    8d1a:	0f1b      	lsrs	r3, r3, #28
    8d1c:	2b02      	cmp	r3, #2
    8d1e:	d805      	bhi.n	8d2c <main+0x118>
    8d20:	4a33      	ldr	r2, [pc, #204]	; (8df0 <main+0x1dc>)
    8d22:	6850      	ldr	r0, [r2, #4]
    8d24:	23c0      	movs	r3, #192	; 0xc0
    8d26:	009b      	lsls	r3, r3, #2
    8d28:	4303      	orrs	r3, r0
    8d2a:	6053      	str	r3, [r2, #4]
    8d2c:	2902      	cmp	r1, #2
    8d2e:	d90b      	bls.n	8d48 <main+0x134>
    8d30:	2903      	cmp	r1, #3
    8d32:	d011      	beq.n	8d58 <main+0x144>
    8d34:	2201      	movs	r2, #1
    8d36:	4b0c      	ldr	r3, [pc, #48]	; (8d68 <main+0x154>)
    8d38:	701a      	strb	r2, [r3, #0]
    8d3a:	f3bf 8f5f 	dmb	sy
    8d3e:	b662      	cpsie	i
    8d40:	f3bf 8f4f 	dsb	sy
    8d44:	bf30      	wfi
    8d46:	e7cb      	b.n	8ce0 <main+0xcc>
    8d48:	4a2a      	ldr	r2, [pc, #168]	; (8df4 <main+0x1e0>)
    8d4a:	6913      	ldr	r3, [r2, #16]
    8d4c:	2004      	movs	r0, #4
    8d4e:	4383      	bics	r3, r0
    8d50:	6113      	str	r3, [r2, #16]
    8d52:	4b29      	ldr	r3, [pc, #164]	; (8df8 <main+0x1e4>)
    8d54:	7059      	strb	r1, [r3, #1]
    8d56:	e7ed      	b.n	8d34 <main+0x120>
    8d58:	4a26      	ldr	r2, [pc, #152]	; (8df4 <main+0x1e0>)
    8d5a:	6913      	ldr	r3, [r2, #16]
    8d5c:	2104      	movs	r1, #4
    8d5e:	430b      	orrs	r3, r1
    8d60:	6113      	str	r3, [r2, #16]
    8d62:	e7e7      	b.n	8d34 <main+0x120>
    8d64:	00008b01 	.word	0x00008b01
    8d68:	20000108 	.word	0x20000108
    8d6c:	200029d8 	.word	0x200029d8
    8d70:	00007d09 	.word	0x00007d09
    8d74:	00002b91 	.word	0x00002b91
    8d78:	00002e71 	.word	0x00002e71
    8d7c:	00002d9d 	.word	0x00002d9d
    8d80:	00002c19 	.word	0x00002c19
    8d84:	000006d1 	.word	0x000006d1
    8d88:	00002a89 	.word	0x00002a89
    8d8c:	000005e5 	.word	0x000005e5
    8d90:	00000711 	.word	0x00000711
    8d94:	00000759 	.word	0x00000759
    8d98:	0000291d 	.word	0x0000291d
    8d9c:	000028b5 	.word	0x000028b5
    8da0:	0000057d 	.word	0x0000057d
    8da4:	00000419 	.word	0x00000419
    8da8:	000027f9 	.word	0x000027f9
    8dac:	00002aa9 	.word	0x00002aa9
    8db0:	00002f4d 	.word	0x00002f4d
    8db4:	00001725 	.word	0x00001725
    8db8:	00001c8d 	.word	0x00001c8d
    8dbc:	41004400 	.word	0x41004400
    8dc0:	00000789 	.word	0x00000789
    8dc4:	00002bf5 	.word	0x00002bf5
    8dc8:	00002c01 	.word	0x00002c01
    8dcc:	00002e69 	.word	0x00002e69
    8dd0:	00003671 	.word	0x00003671
    8dd4:	00001a95 	.word	0x00001a95
    8dd8:	000008a5 	.word	0x000008a5
    8ddc:	000025a9 	.word	0x000025a9
    8de0:	00001a81 	.word	0x00001a81
    8de4:	000017c9 	.word	0x000017c9
    8de8:	000030a5 	.word	0x000030a5
    8dec:	41002000 	.word	0x41002000
    8df0:	41004000 	.word	0x41004000
    8df4:	e000ed00 	.word	0xe000ed00
    8df8:	40000400 	.word	0x40000400

00008dfc <sqrtf>:
    8dfc:	b5f0      	push	{r4, r5, r6, r7, lr}
    8dfe:	2500      	movs	r5, #0
    8e00:	b08d      	sub	sp, #52	; 0x34
    8e02:	1c04      	adds	r4, r0, #0
    8e04:	f000 f84c 	bl	8ea0 <__ieee754_sqrtf>
    8e08:	4b23      	ldr	r3, [pc, #140]	; (8e98 <sqrtf+0x9c>)
    8e0a:	1c06      	adds	r6, r0, #0
    8e0c:	575d      	ldrsb	r5, [r3, r5]
    8e0e:	1c6b      	adds	r3, r5, #1
    8e10:	d00b      	beq.n	8e2a <sqrtf+0x2e>
    8e12:	1c21      	adds	r1, r4, #0
    8e14:	1c20      	adds	r0, r4, #0
    8e16:	f001 fa13 	bl	a240 <__aeabi_fcmpun>
    8e1a:	1e07      	subs	r7, r0, #0
    8e1c:	d105      	bne.n	8e2a <sqrtf+0x2e>
    8e1e:	2100      	movs	r1, #0
    8e20:	1c20      	adds	r0, r4, #0
    8e22:	f000 fa23 	bl	926c <__aeabi_fcmplt>
    8e26:	2800      	cmp	r0, #0
    8e28:	d102      	bne.n	8e30 <sqrtf+0x34>
    8e2a:	1c30      	adds	r0, r6, #0
    8e2c:	b00d      	add	sp, #52	; 0x34
    8e2e:	bdf0      	pop	{r4, r5, r6, r7, pc}
    8e30:	2301      	movs	r3, #1
    8e32:	9302      	str	r3, [sp, #8]
    8e34:	4b19      	ldr	r3, [pc, #100]	; (8e9c <sqrtf+0xa0>)
    8e36:	1c20      	adds	r0, r4, #0
    8e38:	9303      	str	r3, [sp, #12]
    8e3a:	970a      	str	r7, [sp, #40]	; 0x28
    8e3c:	f002 fec4 	bl	bbc8 <__aeabi_f2d>
    8e40:	2200      	movs	r2, #0
    8e42:	9006      	str	r0, [sp, #24]
    8e44:	9107      	str	r1, [sp, #28]
    8e46:	9004      	str	r0, [sp, #16]
    8e48:	9105      	str	r1, [sp, #20]
    8e4a:	2300      	movs	r3, #0
    8e4c:	2d00      	cmp	r5, #0
    8e4e:	d015      	beq.n	8e7c <sqrtf+0x80>
    8e50:	0010      	movs	r0, r2
    8e52:	0019      	movs	r1, r3
    8e54:	f001 fd82 	bl	a95c <__aeabi_ddiv>
    8e58:	9008      	str	r0, [sp, #32]
    8e5a:	9109      	str	r1, [sp, #36]	; 0x24
    8e5c:	2d02      	cmp	r5, #2
    8e5e:	d10f      	bne.n	8e80 <sqrtf+0x84>
    8e60:	f002 ff9a 	bl	bd98 <__errno>
    8e64:	2321      	movs	r3, #33	; 0x21
    8e66:	6003      	str	r3, [r0, #0]
    8e68:	9b0a      	ldr	r3, [sp, #40]	; 0x28
    8e6a:	9301      	str	r3, [sp, #4]
    8e6c:	2b00      	cmp	r3, #0
    8e6e:	d10d      	bne.n	8e8c <sqrtf+0x90>
    8e70:	9808      	ldr	r0, [sp, #32]
    8e72:	9909      	ldr	r1, [sp, #36]	; 0x24
    8e74:	f002 fefa 	bl	bc6c <__aeabi_d2f>
    8e78:	1c06      	adds	r6, r0, #0
    8e7a:	e7d6      	b.n	8e2a <sqrtf+0x2e>
    8e7c:	9208      	str	r2, [sp, #32]
    8e7e:	9309      	str	r3, [sp, #36]	; 0x24
    8e80:	a802      	add	r0, sp, #8
    8e82:	f000 f869 	bl	8f58 <matherr>
    8e86:	2800      	cmp	r0, #0
    8e88:	d1ee      	bne.n	8e68 <sqrtf+0x6c>
    8e8a:	e7e9      	b.n	8e60 <sqrtf+0x64>
    8e8c:	f002 ff84 	bl	bd98 <__errno>
    8e90:	9b0a      	ldr	r3, [sp, #40]	; 0x28
    8e92:	9301      	str	r3, [sp, #4]
    8e94:	6003      	str	r3, [r0, #0]
    8e96:	e7eb      	b.n	8e70 <sqrtf+0x74>
    8e98:	20000109 	.word	0x20000109
    8e9c:	0000c534 	.word	0x0000c534

00008ea0 <__ieee754_sqrtf>:
    8ea0:	492b      	ldr	r1, [pc, #172]	; (8f50 <__ieee754_sqrtf+0xb0>)
    8ea2:	0042      	lsls	r2, r0, #1
    8ea4:	b570      	push	{r4, r5, r6, lr}
    8ea6:	0003      	movs	r3, r0
    8ea8:	1c04      	adds	r4, r0, #0
    8eaa:	0852      	lsrs	r2, r2, #1
    8eac:	428a      	cmp	r2, r1
    8eae:	d83a      	bhi.n	8f26 <__ieee754_sqrtf+0x86>
    8eb0:	2a00      	cmp	r2, #0
    8eb2:	d037      	beq.n	8f24 <__ieee754_sqrtf+0x84>
    8eb4:	2800      	cmp	r0, #0
    8eb6:	db3f      	blt.n	8f38 <__ieee754_sqrtf+0x98>
    8eb8:	4926      	ldr	r1, [pc, #152]	; (8f54 <__ieee754_sqrtf+0xb4>)
    8eba:	15c6      	asrs	r6, r0, #23
    8ebc:	428a      	cmp	r2, r1
    8ebe:	d80b      	bhi.n	8ed8 <__ieee754_sqrtf+0x38>
    8ec0:	2080      	movs	r0, #128	; 0x80
    8ec2:	0400      	lsls	r0, r0, #16
    8ec4:	4220      	tst	r0, r4
    8ec6:	d13e      	bne.n	8f46 <__ieee754_sqrtf+0xa6>
    8ec8:	2200      	movs	r2, #0
    8eca:	e000      	b.n	8ece <__ieee754_sqrtf+0x2e>
    8ecc:	000a      	movs	r2, r1
    8ece:	005b      	lsls	r3, r3, #1
    8ed0:	1c51      	adds	r1, r2, #1
    8ed2:	4203      	tst	r3, r0
    8ed4:	d0fa      	beq.n	8ecc <__ieee754_sqrtf+0x2c>
    8ed6:	1ab6      	subs	r6, r6, r2
    8ed8:	025b      	lsls	r3, r3, #9
    8eda:	0a5a      	lsrs	r2, r3, #9
    8edc:	2380      	movs	r3, #128	; 0x80
    8ede:	3e7f      	subs	r6, #127	; 0x7f
    8ee0:	041b      	lsls	r3, r3, #16
    8ee2:	4313      	orrs	r3, r2
    8ee4:	07f2      	lsls	r2, r6, #31
    8ee6:	d425      	bmi.n	8f34 <__ieee754_sqrtf+0x94>
    8ee8:	2280      	movs	r2, #128	; 0x80
    8eea:	1070      	asrs	r0, r6, #1
    8eec:	2119      	movs	r1, #25
    8eee:	2600      	movs	r6, #0
    8ef0:	2500      	movs	r5, #0
    8ef2:	005b      	lsls	r3, r3, #1
    8ef4:	0452      	lsls	r2, r2, #17
    8ef6:	18ac      	adds	r4, r5, r2
    8ef8:	429c      	cmp	r4, r3
    8efa:	dc02      	bgt.n	8f02 <__ieee754_sqrtf+0x62>
    8efc:	18a5      	adds	r5, r4, r2
    8efe:	1b1b      	subs	r3, r3, r4
    8f00:	18b6      	adds	r6, r6, r2
    8f02:	3901      	subs	r1, #1
    8f04:	005b      	lsls	r3, r3, #1
    8f06:	0852      	lsrs	r2, r2, #1
    8f08:	2900      	cmp	r1, #0
    8f0a:	d1f4      	bne.n	8ef6 <__ieee754_sqrtf+0x56>
    8f0c:	2b00      	cmp	r3, #0
    8f0e:	d002      	beq.n	8f16 <__ieee754_sqrtf+0x76>
    8f10:	2301      	movs	r3, #1
    8f12:	3601      	adds	r6, #1
    8f14:	439e      	bics	r6, r3
    8f16:	23fc      	movs	r3, #252	; 0xfc
    8f18:	059b      	lsls	r3, r3, #22
    8f1a:	469c      	mov	ip, r3
    8f1c:	1076      	asrs	r6, r6, #1
    8f1e:	4466      	add	r6, ip
    8f20:	05c0      	lsls	r0, r0, #23
    8f22:	1980      	adds	r0, r0, r6
    8f24:	bd70      	pop	{r4, r5, r6, pc}
    8f26:	1c01      	adds	r1, r0, #0
    8f28:	f000 fece 	bl	9cc8 <__aeabi_fmul>
    8f2c:	1c21      	adds	r1, r4, #0
    8f2e:	f000 fb49 	bl	95c4 <__aeabi_fadd>
    8f32:	e7f7      	b.n	8f24 <__ieee754_sqrtf+0x84>
    8f34:	005b      	lsls	r3, r3, #1
    8f36:	e7d7      	b.n	8ee8 <__ieee754_sqrtf+0x48>
    8f38:	1c01      	adds	r1, r0, #0
    8f3a:	f000 ffe5 	bl	9f08 <__aeabi_fsub>
    8f3e:	1c01      	adds	r1, r0, #0
    8f40:	f000 fcd2 	bl	98e8 <__aeabi_fdiv>
    8f44:	e7ee      	b.n	8f24 <__ieee754_sqrtf+0x84>
    8f46:	2201      	movs	r2, #1
    8f48:	4252      	negs	r2, r2
    8f4a:	1ab6      	subs	r6, r6, r2
    8f4c:	e7c4      	b.n	8ed8 <__ieee754_sqrtf+0x38>
    8f4e:	46c0      	nop			; (mov r8, r8)
    8f50:	7f7fffff 	.word	0x7f7fffff
    8f54:	007fffff 	.word	0x007fffff

00008f58 <matherr>:
    8f58:	2000      	movs	r0, #0
    8f5a:	4770      	bx	lr

00008f5c <__udivsi3>:
    8f5c:	2200      	movs	r2, #0
    8f5e:	0843      	lsrs	r3, r0, #1
    8f60:	428b      	cmp	r3, r1
    8f62:	d374      	bcc.n	904e <__udivsi3+0xf2>
    8f64:	0903      	lsrs	r3, r0, #4
    8f66:	428b      	cmp	r3, r1
    8f68:	d35f      	bcc.n	902a <__udivsi3+0xce>
    8f6a:	0a03      	lsrs	r3, r0, #8
    8f6c:	428b      	cmp	r3, r1
    8f6e:	d344      	bcc.n	8ffa <__udivsi3+0x9e>
    8f70:	0b03      	lsrs	r3, r0, #12
    8f72:	428b      	cmp	r3, r1
    8f74:	d328      	bcc.n	8fc8 <__udivsi3+0x6c>
    8f76:	0c03      	lsrs	r3, r0, #16
    8f78:	428b      	cmp	r3, r1
    8f7a:	d30d      	bcc.n	8f98 <__udivsi3+0x3c>
    8f7c:	22ff      	movs	r2, #255	; 0xff
    8f7e:	0209      	lsls	r1, r1, #8
    8f80:	ba12      	rev	r2, r2
    8f82:	0c03      	lsrs	r3, r0, #16
    8f84:	428b      	cmp	r3, r1
    8f86:	d302      	bcc.n	8f8e <__udivsi3+0x32>
    8f88:	1212      	asrs	r2, r2, #8
    8f8a:	0209      	lsls	r1, r1, #8
    8f8c:	d065      	beq.n	905a <__udivsi3+0xfe>
    8f8e:	0b03      	lsrs	r3, r0, #12
    8f90:	428b      	cmp	r3, r1
    8f92:	d319      	bcc.n	8fc8 <__udivsi3+0x6c>
    8f94:	e000      	b.n	8f98 <__udivsi3+0x3c>
    8f96:	0a09      	lsrs	r1, r1, #8
    8f98:	0bc3      	lsrs	r3, r0, #15
    8f9a:	428b      	cmp	r3, r1
    8f9c:	d301      	bcc.n	8fa2 <__udivsi3+0x46>
    8f9e:	03cb      	lsls	r3, r1, #15
    8fa0:	1ac0      	subs	r0, r0, r3
    8fa2:	4152      	adcs	r2, r2
    8fa4:	0b83      	lsrs	r3, r0, #14
    8fa6:	428b      	cmp	r3, r1
    8fa8:	d301      	bcc.n	8fae <__udivsi3+0x52>
    8faa:	038b      	lsls	r3, r1, #14
    8fac:	1ac0      	subs	r0, r0, r3
    8fae:	4152      	adcs	r2, r2
    8fb0:	0b43      	lsrs	r3, r0, #13
    8fb2:	428b      	cmp	r3, r1
    8fb4:	d301      	bcc.n	8fba <__udivsi3+0x5e>
    8fb6:	034b      	lsls	r3, r1, #13
    8fb8:	1ac0      	subs	r0, r0, r3
    8fba:	4152      	adcs	r2, r2
    8fbc:	0b03      	lsrs	r3, r0, #12
    8fbe:	428b      	cmp	r3, r1
    8fc0:	d301      	bcc.n	8fc6 <__udivsi3+0x6a>
    8fc2:	030b      	lsls	r3, r1, #12
    8fc4:	1ac0      	subs	r0, r0, r3
    8fc6:	4152      	adcs	r2, r2
    8fc8:	0ac3      	lsrs	r3, r0, #11
    8fca:	428b      	cmp	r3, r1
    8fcc:	d301      	bcc.n	8fd2 <__udivsi3+0x76>
    8fce:	02cb      	lsls	r3, r1, #11
    8fd0:	1ac0      	subs	r0, r0, r3
    8fd2:	4152      	adcs	r2, r2
    8fd4:	0a83      	lsrs	r3, r0, #10
    8fd6:	428b      	cmp	r3, r1
    8fd8:	d301      	bcc.n	8fde <__udivsi3+0x82>
    8fda:	028b      	lsls	r3, r1, #10
    8fdc:	1ac0      	subs	r0, r0, r3
    8fde:	4152      	adcs	r2, r2
    8fe0:	0a43      	lsrs	r3, r0, #9
    8fe2:	428b      	cmp	r3, r1
    8fe4:	d301      	bcc.n	8fea <__udivsi3+0x8e>
    8fe6:	024b      	lsls	r3, r1, #9
    8fe8:	1ac0      	subs	r0, r0, r3
    8fea:	4152      	adcs	r2, r2
    8fec:	0a03      	lsrs	r3, r0, #8
    8fee:	428b      	cmp	r3, r1
    8ff0:	d301      	bcc.n	8ff6 <__udivsi3+0x9a>
    8ff2:	020b      	lsls	r3, r1, #8
    8ff4:	1ac0      	subs	r0, r0, r3
    8ff6:	4152      	adcs	r2, r2
    8ff8:	d2cd      	bcs.n	8f96 <__udivsi3+0x3a>
    8ffa:	09c3      	lsrs	r3, r0, #7
    8ffc:	428b      	cmp	r3, r1
    8ffe:	d301      	bcc.n	9004 <__udivsi3+0xa8>
    9000:	01cb      	lsls	r3, r1, #7
    9002:	1ac0      	subs	r0, r0, r3
    9004:	4152      	adcs	r2, r2
    9006:	0983      	lsrs	r3, r0, #6
    9008:	428b      	cmp	r3, r1
    900a:	d301      	bcc.n	9010 <__udivsi3+0xb4>
    900c:	018b      	lsls	r3, r1, #6
    900e:	1ac0      	subs	r0, r0, r3
    9010:	4152      	adcs	r2, r2
    9012:	0943      	lsrs	r3, r0, #5
    9014:	428b      	cmp	r3, r1
    9016:	d301      	bcc.n	901c <__udivsi3+0xc0>
    9018:	014b      	lsls	r3, r1, #5
    901a:	1ac0      	subs	r0, r0, r3
    901c:	4152      	adcs	r2, r2
    901e:	0903      	lsrs	r3, r0, #4
    9020:	428b      	cmp	r3, r1
    9022:	d301      	bcc.n	9028 <__udivsi3+0xcc>
    9024:	010b      	lsls	r3, r1, #4
    9026:	1ac0      	subs	r0, r0, r3
    9028:	4152      	adcs	r2, r2
    902a:	08c3      	lsrs	r3, r0, #3
    902c:	428b      	cmp	r3, r1
    902e:	d301      	bcc.n	9034 <__udivsi3+0xd8>
    9030:	00cb      	lsls	r3, r1, #3
    9032:	1ac0      	subs	r0, r0, r3
    9034:	4152      	adcs	r2, r2
    9036:	0883      	lsrs	r3, r0, #2
    9038:	428b      	cmp	r3, r1
    903a:	d301      	bcc.n	9040 <__udivsi3+0xe4>
    903c:	008b      	lsls	r3, r1, #2
    903e:	1ac0      	subs	r0, r0, r3
    9040:	4152      	adcs	r2, r2
    9042:	0843      	lsrs	r3, r0, #1
    9044:	428b      	cmp	r3, r1
    9046:	d301      	bcc.n	904c <__udivsi3+0xf0>
    9048:	004b      	lsls	r3, r1, #1
    904a:	1ac0      	subs	r0, r0, r3
    904c:	4152      	adcs	r2, r2
    904e:	1a41      	subs	r1, r0, r1
    9050:	d200      	bcs.n	9054 <__udivsi3+0xf8>
    9052:	4601      	mov	r1, r0
    9054:	4152      	adcs	r2, r2
    9056:	4610      	mov	r0, r2
    9058:	4770      	bx	lr
    905a:	e7ff      	b.n	905c <__udivsi3+0x100>
    905c:	b501      	push	{r0, lr}
    905e:	2000      	movs	r0, #0
    9060:	f000 f8f0 	bl	9244 <__aeabi_idiv0>
    9064:	bd02      	pop	{r1, pc}
    9066:	46c0      	nop			; (mov r8, r8)

00009068 <__aeabi_uidivmod>:
    9068:	2900      	cmp	r1, #0
    906a:	d0f7      	beq.n	905c <__udivsi3+0x100>
    906c:	e776      	b.n	8f5c <__udivsi3>
    906e:	4770      	bx	lr

00009070 <__divsi3>:
    9070:	4603      	mov	r3, r0
    9072:	430b      	orrs	r3, r1
    9074:	d47f      	bmi.n	9176 <__divsi3+0x106>
    9076:	2200      	movs	r2, #0
    9078:	0843      	lsrs	r3, r0, #1
    907a:	428b      	cmp	r3, r1
    907c:	d374      	bcc.n	9168 <__divsi3+0xf8>
    907e:	0903      	lsrs	r3, r0, #4
    9080:	428b      	cmp	r3, r1
    9082:	d35f      	bcc.n	9144 <__divsi3+0xd4>
    9084:	0a03      	lsrs	r3, r0, #8
    9086:	428b      	cmp	r3, r1
    9088:	d344      	bcc.n	9114 <__divsi3+0xa4>
    908a:	0b03      	lsrs	r3, r0, #12
    908c:	428b      	cmp	r3, r1
    908e:	d328      	bcc.n	90e2 <__divsi3+0x72>
    9090:	0c03      	lsrs	r3, r0, #16
    9092:	428b      	cmp	r3, r1
    9094:	d30d      	bcc.n	90b2 <__divsi3+0x42>
    9096:	22ff      	movs	r2, #255	; 0xff
    9098:	0209      	lsls	r1, r1, #8
    909a:	ba12      	rev	r2, r2
    909c:	0c03      	lsrs	r3, r0, #16
    909e:	428b      	cmp	r3, r1
    90a0:	d302      	bcc.n	90a8 <__divsi3+0x38>
    90a2:	1212      	asrs	r2, r2, #8
    90a4:	0209      	lsls	r1, r1, #8
    90a6:	d065      	beq.n	9174 <__divsi3+0x104>
    90a8:	0b03      	lsrs	r3, r0, #12
    90aa:	428b      	cmp	r3, r1
    90ac:	d319      	bcc.n	90e2 <__divsi3+0x72>
    90ae:	e000      	b.n	90b2 <__divsi3+0x42>
    90b0:	0a09      	lsrs	r1, r1, #8
    90b2:	0bc3      	lsrs	r3, r0, #15
    90b4:	428b      	cmp	r3, r1
    90b6:	d301      	bcc.n	90bc <__divsi3+0x4c>
    90b8:	03cb      	lsls	r3, r1, #15
    90ba:	1ac0      	subs	r0, r0, r3
    90bc:	4152      	adcs	r2, r2
    90be:	0b83      	lsrs	r3, r0, #14
    90c0:	428b      	cmp	r3, r1
    90c2:	d301      	bcc.n	90c8 <__divsi3+0x58>
    90c4:	038b      	lsls	r3, r1, #14
    90c6:	1ac0      	subs	r0, r0, r3
    90c8:	4152      	adcs	r2, r2
    90ca:	0b43      	lsrs	r3, r0, #13
    90cc:	428b      	cmp	r3, r1
    90ce:	d301      	bcc.n	90d4 <__divsi3+0x64>
    90d0:	034b      	lsls	r3, r1, #13
    90d2:	1ac0      	subs	r0, r0, r3
    90d4:	4152      	adcs	r2, r2
    90d6:	0b03      	lsrs	r3, r0, #12
    90d8:	428b      	cmp	r3, r1
    90da:	d301      	bcc.n	90e0 <__divsi3+0x70>
    90dc:	030b      	lsls	r3, r1, #12
    90de:	1ac0      	subs	r0, r0, r3
    90e0:	4152      	adcs	r2, r2
    90e2:	0ac3      	lsrs	r3, r0, #11
    90e4:	428b      	cmp	r3, r1
    90e6:	d301      	bcc.n	90ec <__divsi3+0x7c>
    90e8:	02cb      	lsls	r3, r1, #11
    90ea:	1ac0      	subs	r0, r0, r3
    90ec:	4152      	adcs	r2, r2
    90ee:	0a83      	lsrs	r3, r0, #10
    90f0:	428b      	cmp	r3, r1
    90f2:	d301      	bcc.n	90f8 <__divsi3+0x88>
    90f4:	028b      	lsls	r3, r1, #10
    90f6:	1ac0      	subs	r0, r0, r3
    90f8:	4152      	adcs	r2, r2
    90fa:	0a43      	lsrs	r3, r0, #9
    90fc:	428b      	cmp	r3, r1
    90fe:	d301      	bcc.n	9104 <__divsi3+0x94>
    9100:	024b      	lsls	r3, r1, #9
    9102:	1ac0      	subs	r0, r0, r3
    9104:	4152      	adcs	r2, r2
    9106:	0a03      	lsrs	r3, r0, #8
    9108:	428b      	cmp	r3, r1
    910a:	d301      	bcc.n	9110 <__divsi3+0xa0>
    910c:	020b      	lsls	r3, r1, #8
    910e:	1ac0      	subs	r0, r0, r3
    9110:	4152      	adcs	r2, r2
    9112:	d2cd      	bcs.n	90b0 <__divsi3+0x40>
    9114:	09c3      	lsrs	r3, r0, #7
    9116:	428b      	cmp	r3, r1
    9118:	d301      	bcc.n	911e <__divsi3+0xae>
    911a:	01cb      	lsls	r3, r1, #7
    911c:	1ac0      	subs	r0, r0, r3
    911e:	4152      	adcs	r2, r2
    9120:	0983      	lsrs	r3, r0, #6
    9122:	428b      	cmp	r3, r1
    9124:	d301      	bcc.n	912a <__divsi3+0xba>
    9126:	018b      	lsls	r3, r1, #6
    9128:	1ac0      	subs	r0, r0, r3
    912a:	4152      	adcs	r2, r2
    912c:	0943      	lsrs	r3, r0, #5
    912e:	428b      	cmp	r3, r1
    9130:	d301      	bcc.n	9136 <__divsi3+0xc6>
    9132:	014b      	lsls	r3, r1, #5
    9134:	1ac0      	subs	r0, r0, r3
    9136:	4152      	adcs	r2, r2
    9138:	0903      	lsrs	r3, r0, #4
    913a:	428b      	cmp	r3, r1
    913c:	d301      	bcc.n	9142 <__divsi3+0xd2>
    913e:	010b      	lsls	r3, r1, #4
    9140:	1ac0      	subs	r0, r0, r3
    9142:	4152      	adcs	r2, r2
    9144:	08c3      	lsrs	r3, r0, #3
    9146:	428b      	cmp	r3, r1
    9148:	d301      	bcc.n	914e <__divsi3+0xde>
    914a:	00cb      	lsls	r3, r1, #3
    914c:	1ac0      	subs	r0, r0, r3
    914e:	4152      	adcs	r2, r2
    9150:	0883      	lsrs	r3, r0, #2
    9152:	428b      	cmp	r3, r1
    9154:	d301      	bcc.n	915a <__divsi3+0xea>
    9156:	008b      	lsls	r3, r1, #2
    9158:	1ac0      	subs	r0, r0, r3
    915a:	4152      	adcs	r2, r2
    915c:	0843      	lsrs	r3, r0, #1
    915e:	428b      	cmp	r3, r1
    9160:	d301      	bcc.n	9166 <__divsi3+0xf6>
    9162:	004b      	lsls	r3, r1, #1
    9164:	1ac0      	subs	r0, r0, r3
    9166:	4152      	adcs	r2, r2
    9168:	1a41      	subs	r1, r0, r1
    916a:	d200      	bcs.n	916e <__divsi3+0xfe>
    916c:	4601      	mov	r1, r0
    916e:	4152      	adcs	r2, r2
    9170:	4610      	mov	r0, r2
    9172:	4770      	bx	lr
    9174:	e05d      	b.n	9232 <__divsi3+0x1c2>
    9176:	0fca      	lsrs	r2, r1, #31
    9178:	d000      	beq.n	917c <__divsi3+0x10c>
    917a:	4249      	negs	r1, r1
    917c:	1003      	asrs	r3, r0, #32
    917e:	d300      	bcc.n	9182 <__divsi3+0x112>
    9180:	4240      	negs	r0, r0
    9182:	4053      	eors	r3, r2
    9184:	2200      	movs	r2, #0
    9186:	469c      	mov	ip, r3
    9188:	0903      	lsrs	r3, r0, #4
    918a:	428b      	cmp	r3, r1
    918c:	d32d      	bcc.n	91ea <__divsi3+0x17a>
    918e:	0a03      	lsrs	r3, r0, #8
    9190:	428b      	cmp	r3, r1
    9192:	d312      	bcc.n	91ba <__divsi3+0x14a>
    9194:	22fc      	movs	r2, #252	; 0xfc
    9196:	0189      	lsls	r1, r1, #6
    9198:	ba12      	rev	r2, r2
    919a:	0a03      	lsrs	r3, r0, #8
    919c:	428b      	cmp	r3, r1
    919e:	d30c      	bcc.n	91ba <__divsi3+0x14a>
    91a0:	0189      	lsls	r1, r1, #6
    91a2:	1192      	asrs	r2, r2, #6
    91a4:	428b      	cmp	r3, r1
    91a6:	d308      	bcc.n	91ba <__divsi3+0x14a>
    91a8:	0189      	lsls	r1, r1, #6
    91aa:	1192      	asrs	r2, r2, #6
    91ac:	428b      	cmp	r3, r1
    91ae:	d304      	bcc.n	91ba <__divsi3+0x14a>
    91b0:	0189      	lsls	r1, r1, #6
    91b2:	d03a      	beq.n	922a <__divsi3+0x1ba>
    91b4:	1192      	asrs	r2, r2, #6
    91b6:	e000      	b.n	91ba <__divsi3+0x14a>
    91b8:	0989      	lsrs	r1, r1, #6
    91ba:	09c3      	lsrs	r3, r0, #7
    91bc:	428b      	cmp	r3, r1
    91be:	d301      	bcc.n	91c4 <__divsi3+0x154>
    91c0:	01cb      	lsls	r3, r1, #7
    91c2:	1ac0      	subs	r0, r0, r3
    91c4:	4152      	adcs	r2, r2
    91c6:	0983      	lsrs	r3, r0, #6
    91c8:	428b      	cmp	r3, r1
    91ca:	d301      	bcc.n	91d0 <__divsi3+0x160>
    91cc:	018b      	lsls	r3, r1, #6
    91ce:	1ac0      	subs	r0, r0, r3
    91d0:	4152      	adcs	r2, r2
    91d2:	0943      	lsrs	r3, r0, #5
    91d4:	428b      	cmp	r3, r1
    91d6:	d301      	bcc.n	91dc <__divsi3+0x16c>
    91d8:	014b      	lsls	r3, r1, #5
    91da:	1ac0      	subs	r0, r0, r3
    91dc:	4152      	adcs	r2, r2
    91de:	0903      	lsrs	r3, r0, #4
    91e0:	428b      	cmp	r3, r1
    91e2:	d301      	bcc.n	91e8 <__divsi3+0x178>
    91e4:	010b      	lsls	r3, r1, #4
    91e6:	1ac0      	subs	r0, r0, r3
    91e8:	4152      	adcs	r2, r2
    91ea:	08c3      	lsrs	r3, r0, #3
    91ec:	428b      	cmp	r3, r1
    91ee:	d301      	bcc.n	91f4 <__divsi3+0x184>
    91f0:	00cb      	lsls	r3, r1, #3
    91f2:	1ac0      	subs	r0, r0, r3
    91f4:	4152      	adcs	r2, r2
    91f6:	0883      	lsrs	r3, r0, #2
    91f8:	428b      	cmp	r3, r1
    91fa:	d301      	bcc.n	9200 <__divsi3+0x190>
    91fc:	008b      	lsls	r3, r1, #2
    91fe:	1ac0      	subs	r0, r0, r3
    9200:	4152      	adcs	r2, r2
    9202:	d2d9      	bcs.n	91b8 <__divsi3+0x148>
    9204:	0843      	lsrs	r3, r0, #1
    9206:	428b      	cmp	r3, r1
    9208:	d301      	bcc.n	920e <__divsi3+0x19e>
    920a:	004b      	lsls	r3, r1, #1
    920c:	1ac0      	subs	r0, r0, r3
    920e:	4152      	adcs	r2, r2
    9210:	1a41      	subs	r1, r0, r1
    9212:	d200      	bcs.n	9216 <__divsi3+0x1a6>
    9214:	4601      	mov	r1, r0
    9216:	4663      	mov	r3, ip
    9218:	4152      	adcs	r2, r2
    921a:	105b      	asrs	r3, r3, #1
    921c:	4610      	mov	r0, r2
    921e:	d301      	bcc.n	9224 <__divsi3+0x1b4>
    9220:	4240      	negs	r0, r0
    9222:	2b00      	cmp	r3, #0
    9224:	d500      	bpl.n	9228 <__divsi3+0x1b8>
    9226:	4249      	negs	r1, r1
    9228:	4770      	bx	lr
    922a:	4663      	mov	r3, ip
    922c:	105b      	asrs	r3, r3, #1
    922e:	d300      	bcc.n	9232 <__divsi3+0x1c2>
    9230:	4240      	negs	r0, r0
    9232:	b501      	push	{r0, lr}
    9234:	2000      	movs	r0, #0
    9236:	f000 f805 	bl	9244 <__aeabi_idiv0>
    923a:	bd02      	pop	{r1, pc}

0000923c <__aeabi_idivmod>:
    923c:	2900      	cmp	r1, #0
    923e:	d0f8      	beq.n	9232 <__divsi3+0x1c2>
    9240:	e716      	b.n	9070 <__divsi3>
    9242:	4770      	bx	lr

00009244 <__aeabi_idiv0>:
    9244:	4770      	bx	lr
    9246:	46c0      	nop			; (mov r8, r8)

00009248 <__aeabi_cfrcmple>:
    9248:	4684      	mov	ip, r0
    924a:	1c08      	adds	r0, r1, #0
    924c:	4661      	mov	r1, ip
    924e:	e7ff      	b.n	9250 <__aeabi_cfcmpeq>

00009250 <__aeabi_cfcmpeq>:
    9250:	b51f      	push	{r0, r1, r2, r3, r4, lr}
    9252:	f000 fcf7 	bl	9c44 <__lesf2>
    9256:	2800      	cmp	r0, #0
    9258:	d401      	bmi.n	925e <__aeabi_cfcmpeq+0xe>
    925a:	2100      	movs	r1, #0
    925c:	42c8      	cmn	r0, r1
    925e:	bd1f      	pop	{r0, r1, r2, r3, r4, pc}

00009260 <__aeabi_fcmpeq>:
    9260:	b510      	push	{r4, lr}
    9262:	f000 fc89 	bl	9b78 <__eqsf2>
    9266:	4240      	negs	r0, r0
    9268:	3001      	adds	r0, #1
    926a:	bd10      	pop	{r4, pc}

0000926c <__aeabi_fcmplt>:
    926c:	b510      	push	{r4, lr}
    926e:	f000 fce9 	bl	9c44 <__lesf2>
    9272:	2800      	cmp	r0, #0
    9274:	db01      	blt.n	927a <__aeabi_fcmplt+0xe>
    9276:	2000      	movs	r0, #0
    9278:	bd10      	pop	{r4, pc}
    927a:	2001      	movs	r0, #1
    927c:	bd10      	pop	{r4, pc}
    927e:	46c0      	nop			; (mov r8, r8)

00009280 <__aeabi_fcmple>:
    9280:	b510      	push	{r4, lr}
    9282:	f000 fcdf 	bl	9c44 <__lesf2>
    9286:	2800      	cmp	r0, #0
    9288:	dd01      	ble.n	928e <__aeabi_fcmple+0xe>
    928a:	2000      	movs	r0, #0
    928c:	bd10      	pop	{r4, pc}
    928e:	2001      	movs	r0, #1
    9290:	bd10      	pop	{r4, pc}
    9292:	46c0      	nop			; (mov r8, r8)

00009294 <__aeabi_fcmpgt>:
    9294:	b510      	push	{r4, lr}
    9296:	f000 fc95 	bl	9bc4 <__gesf2>
    929a:	2800      	cmp	r0, #0
    929c:	dc01      	bgt.n	92a2 <__aeabi_fcmpgt+0xe>
    929e:	2000      	movs	r0, #0
    92a0:	bd10      	pop	{r4, pc}
    92a2:	2001      	movs	r0, #1
    92a4:	bd10      	pop	{r4, pc}
    92a6:	46c0      	nop			; (mov r8, r8)

000092a8 <__aeabi_fcmpge>:
    92a8:	b510      	push	{r4, lr}
    92aa:	f000 fc8b 	bl	9bc4 <__gesf2>
    92ae:	2800      	cmp	r0, #0
    92b0:	da01      	bge.n	92b6 <__aeabi_fcmpge+0xe>
    92b2:	2000      	movs	r0, #0
    92b4:	bd10      	pop	{r4, pc}
    92b6:	2001      	movs	r0, #1
    92b8:	bd10      	pop	{r4, pc}
    92ba:	46c0      	nop			; (mov r8, r8)

000092bc <__clzsi2>:
    92bc:	211c      	movs	r1, #28
    92be:	2301      	movs	r3, #1
    92c0:	041b      	lsls	r3, r3, #16
    92c2:	4298      	cmp	r0, r3
    92c4:	d301      	bcc.n	92ca <__clzsi2+0xe>
    92c6:	0c00      	lsrs	r0, r0, #16
    92c8:	3910      	subs	r1, #16
    92ca:	0a1b      	lsrs	r3, r3, #8
    92cc:	4298      	cmp	r0, r3
    92ce:	d301      	bcc.n	92d4 <__clzsi2+0x18>
    92d0:	0a00      	lsrs	r0, r0, #8
    92d2:	3908      	subs	r1, #8
    92d4:	091b      	lsrs	r3, r3, #4
    92d6:	4298      	cmp	r0, r3
    92d8:	d301      	bcc.n	92de <__clzsi2+0x22>
    92da:	0900      	lsrs	r0, r0, #4
    92dc:	3904      	subs	r1, #4
    92de:	a202      	add	r2, pc, #8	; (adr r2, 92e8 <__clzsi2+0x2c>)
    92e0:	5c10      	ldrb	r0, [r2, r0]
    92e2:	1840      	adds	r0, r0, r1
    92e4:	4770      	bx	lr
    92e6:	46c0      	nop			; (mov r8, r8)
    92e8:	02020304 	.word	0x02020304
    92ec:	01010101 	.word	0x01010101
	...

000092f8 <__ctzsi2>:
    92f8:	4241      	negs	r1, r0
    92fa:	4008      	ands	r0, r1
    92fc:	211c      	movs	r1, #28
    92fe:	2301      	movs	r3, #1
    9300:	041b      	lsls	r3, r3, #16
    9302:	4298      	cmp	r0, r3
    9304:	d301      	bcc.n	930a <__ctzsi2+0x12>
    9306:	0c00      	lsrs	r0, r0, #16
    9308:	3910      	subs	r1, #16
    930a:	0a1b      	lsrs	r3, r3, #8
    930c:	4298      	cmp	r0, r3
    930e:	d301      	bcc.n	9314 <__ctzsi2+0x1c>
    9310:	0a00      	lsrs	r0, r0, #8
    9312:	3908      	subs	r1, #8
    9314:	091b      	lsrs	r3, r3, #4
    9316:	4298      	cmp	r0, r3
    9318:	d301      	bcc.n	931e <__ctzsi2+0x26>
    931a:	0900      	lsrs	r0, r0, #4
    931c:	3904      	subs	r1, #4
    931e:	a202      	add	r2, pc, #8	; (adr r2, 9328 <__ctzsi2+0x30>)
    9320:	5c10      	ldrb	r0, [r2, r0]
    9322:	1a40      	subs	r0, r0, r1
    9324:	4770      	bx	lr
    9326:	46c0      	nop			; (mov r8, r8)
    9328:	1d1d1c1b 	.word	0x1d1d1c1b
    932c:	1e1e1e1e 	.word	0x1e1e1e1e
    9330:	1f1f1f1f 	.word	0x1f1f1f1f
    9334:	1f1f1f1f 	.word	0x1f1f1f1f

00009338 <__aeabi_uldivmod>:
    9338:	2b00      	cmp	r3, #0
    933a:	d111      	bne.n	9360 <__aeabi_uldivmod+0x28>
    933c:	2a00      	cmp	r2, #0
    933e:	d10f      	bne.n	9360 <__aeabi_uldivmod+0x28>
    9340:	2900      	cmp	r1, #0
    9342:	d100      	bne.n	9346 <__aeabi_uldivmod+0xe>
    9344:	2800      	cmp	r0, #0
    9346:	d002      	beq.n	934e <__aeabi_uldivmod+0x16>
    9348:	2100      	movs	r1, #0
    934a:	43c9      	mvns	r1, r1
    934c:	1c08      	adds	r0, r1, #0
    934e:	b407      	push	{r0, r1, r2}
    9350:	4802      	ldr	r0, [pc, #8]	; (935c <__aeabi_uldivmod+0x24>)
    9352:	a102      	add	r1, pc, #8	; (adr r1, 935c <__aeabi_uldivmod+0x24>)
    9354:	1840      	adds	r0, r0, r1
    9356:	9002      	str	r0, [sp, #8]
    9358:	bd03      	pop	{r0, r1, pc}
    935a:	46c0      	nop			; (mov r8, r8)
    935c:	fffffee9 	.word	0xfffffee9
    9360:	b403      	push	{r0, r1}
    9362:	4668      	mov	r0, sp
    9364:	b501      	push	{r0, lr}
    9366:	9802      	ldr	r0, [sp, #8]
    9368:	f000 f86c 	bl	9444 <__udivmoddi4>
    936c:	9b01      	ldr	r3, [sp, #4]
    936e:	469e      	mov	lr, r3
    9370:	b002      	add	sp, #8
    9372:	bc0c      	pop	{r2, r3}
    9374:	4770      	bx	lr
    9376:	46c0      	nop			; (mov r8, r8)

00009378 <__aeabi_lmul>:
    9378:	b5f0      	push	{r4, r5, r6, r7, lr}
    937a:	46ce      	mov	lr, r9
    937c:	4647      	mov	r7, r8
    937e:	0415      	lsls	r5, r2, #16
    9380:	0c2d      	lsrs	r5, r5, #16
    9382:	002e      	movs	r6, r5
    9384:	b580      	push	{r7, lr}
    9386:	0407      	lsls	r7, r0, #16
    9388:	0c14      	lsrs	r4, r2, #16
    938a:	0c3f      	lsrs	r7, r7, #16
    938c:	4699      	mov	r9, r3
    938e:	0c03      	lsrs	r3, r0, #16
    9390:	437e      	muls	r6, r7
    9392:	435d      	muls	r5, r3
    9394:	4367      	muls	r7, r4
    9396:	4363      	muls	r3, r4
    9398:	197f      	adds	r7, r7, r5
    939a:	0c34      	lsrs	r4, r6, #16
    939c:	19e4      	adds	r4, r4, r7
    939e:	469c      	mov	ip, r3
    93a0:	42a5      	cmp	r5, r4
    93a2:	d903      	bls.n	93ac <__aeabi_lmul+0x34>
    93a4:	2380      	movs	r3, #128	; 0x80
    93a6:	025b      	lsls	r3, r3, #9
    93a8:	4698      	mov	r8, r3
    93aa:	44c4      	add	ip, r8
    93ac:	464b      	mov	r3, r9
    93ae:	4351      	muls	r1, r2
    93b0:	4343      	muls	r3, r0
    93b2:	0436      	lsls	r6, r6, #16
    93b4:	0c36      	lsrs	r6, r6, #16
    93b6:	0c25      	lsrs	r5, r4, #16
    93b8:	0424      	lsls	r4, r4, #16
    93ba:	4465      	add	r5, ip
    93bc:	19a4      	adds	r4, r4, r6
    93be:	1859      	adds	r1, r3, r1
    93c0:	1949      	adds	r1, r1, r5
    93c2:	0020      	movs	r0, r4
    93c4:	bc0c      	pop	{r2, r3}
    93c6:	4690      	mov	r8, r2
    93c8:	4699      	mov	r9, r3
    93ca:	bdf0      	pop	{r4, r5, r6, r7, pc}

000093cc <__aeabi_f2uiz>:
    93cc:	219e      	movs	r1, #158	; 0x9e
    93ce:	b510      	push	{r4, lr}
    93d0:	05c9      	lsls	r1, r1, #23
    93d2:	1c04      	adds	r4, r0, #0
    93d4:	f7ff ff68 	bl	92a8 <__aeabi_fcmpge>
    93d8:	2800      	cmp	r0, #0
    93da:	d103      	bne.n	93e4 <__aeabi_f2uiz+0x18>
    93dc:	1c20      	adds	r0, r4, #0
    93de:	f000 ff47 	bl	a270 <__aeabi_f2iz>
    93e2:	bd10      	pop	{r4, pc}
    93e4:	219e      	movs	r1, #158	; 0x9e
    93e6:	1c20      	adds	r0, r4, #0
    93e8:	05c9      	lsls	r1, r1, #23
    93ea:	f000 fd8d 	bl	9f08 <__aeabi_fsub>
    93ee:	f000 ff3f 	bl	a270 <__aeabi_f2iz>
    93f2:	2380      	movs	r3, #128	; 0x80
    93f4:	061b      	lsls	r3, r3, #24
    93f6:	469c      	mov	ip, r3
    93f8:	4460      	add	r0, ip
    93fa:	e7f2      	b.n	93e2 <__aeabi_f2uiz+0x16>

000093fc <__aeabi_ul2f>:
    93fc:	4b0f      	ldr	r3, [pc, #60]	; (943c <__aeabi_ul2f+0x40>)
    93fe:	b5d0      	push	{r4, r6, r7, lr}
    9400:	0004      	movs	r4, r0
    9402:	4299      	cmp	r1, r3
    9404:	d906      	bls.n	9414 <__aeabi_ul2f+0x18>
    9406:	0543      	lsls	r3, r0, #21
    9408:	d004      	beq.n	9414 <__aeabi_ul2f+0x18>
    940a:	2380      	movs	r3, #128	; 0x80
    940c:	0ac4      	lsrs	r4, r0, #11
    940e:	02e4      	lsls	r4, r4, #11
    9410:	011b      	lsls	r3, r3, #4
    9412:	431c      	orrs	r4, r3
    9414:	0008      	movs	r0, r1
    9416:	f002 fb9f 	bl	bb58 <__aeabi_ui2d>
    941a:	2200      	movs	r2, #0
    941c:	4b08      	ldr	r3, [pc, #32]	; (9440 <__aeabi_ul2f+0x44>)
    941e:	f001 fdd1 	bl	afc4 <__aeabi_dmul>
    9422:	0006      	movs	r6, r0
    9424:	000f      	movs	r7, r1
    9426:	0020      	movs	r0, r4
    9428:	f002 fb96 	bl	bb58 <__aeabi_ui2d>
    942c:	0032      	movs	r2, r6
    942e:	003b      	movs	r3, r7
    9430:	f000 ff84 	bl	a33c <__aeabi_dadd>
    9434:	f002 fc1a 	bl	bc6c <__aeabi_d2f>
    9438:	bdd0      	pop	{r4, r6, r7, pc}
    943a:	46c0      	nop			; (mov r8, r8)
    943c:	001fffff 	.word	0x001fffff
    9440:	41f00000 	.word	0x41f00000

00009444 <__udivmoddi4>:
    9444:	b5f0      	push	{r4, r5, r6, r7, lr}
    9446:	4657      	mov	r7, sl
    9448:	464e      	mov	r6, r9
    944a:	4645      	mov	r5, r8
    944c:	46de      	mov	lr, fp
    944e:	b5e0      	push	{r5, r6, r7, lr}
    9450:	0004      	movs	r4, r0
    9452:	b083      	sub	sp, #12
    9454:	000d      	movs	r5, r1
    9456:	4692      	mov	sl, r2
    9458:	4699      	mov	r9, r3
    945a:	428b      	cmp	r3, r1
    945c:	d82f      	bhi.n	94be <__udivmoddi4+0x7a>
    945e:	d02c      	beq.n	94ba <__udivmoddi4+0x76>
    9460:	4649      	mov	r1, r9
    9462:	4650      	mov	r0, sl
    9464:	f002 fc8c 	bl	bd80 <__clzdi2>
    9468:	0029      	movs	r1, r5
    946a:	0006      	movs	r6, r0
    946c:	0020      	movs	r0, r4
    946e:	f002 fc87 	bl	bd80 <__clzdi2>
    9472:	1a33      	subs	r3, r6, r0
    9474:	4698      	mov	r8, r3
    9476:	3b20      	subs	r3, #32
    9478:	469b      	mov	fp, r3
    947a:	d500      	bpl.n	947e <__udivmoddi4+0x3a>
    947c:	e074      	b.n	9568 <__udivmoddi4+0x124>
    947e:	4653      	mov	r3, sl
    9480:	465a      	mov	r2, fp
    9482:	4093      	lsls	r3, r2
    9484:	001f      	movs	r7, r3
    9486:	4653      	mov	r3, sl
    9488:	4642      	mov	r2, r8
    948a:	4093      	lsls	r3, r2
    948c:	001e      	movs	r6, r3
    948e:	42af      	cmp	r7, r5
    9490:	d829      	bhi.n	94e6 <__udivmoddi4+0xa2>
    9492:	d026      	beq.n	94e2 <__udivmoddi4+0x9e>
    9494:	465b      	mov	r3, fp
    9496:	1ba4      	subs	r4, r4, r6
    9498:	41bd      	sbcs	r5, r7
    949a:	2b00      	cmp	r3, #0
    949c:	da00      	bge.n	94a0 <__udivmoddi4+0x5c>
    949e:	e079      	b.n	9594 <__udivmoddi4+0x150>
    94a0:	2200      	movs	r2, #0
    94a2:	2300      	movs	r3, #0
    94a4:	9200      	str	r2, [sp, #0]
    94a6:	9301      	str	r3, [sp, #4]
    94a8:	2301      	movs	r3, #1
    94aa:	465a      	mov	r2, fp
    94ac:	4093      	lsls	r3, r2
    94ae:	9301      	str	r3, [sp, #4]
    94b0:	2301      	movs	r3, #1
    94b2:	4642      	mov	r2, r8
    94b4:	4093      	lsls	r3, r2
    94b6:	9300      	str	r3, [sp, #0]
    94b8:	e019      	b.n	94ee <__udivmoddi4+0xaa>
    94ba:	4282      	cmp	r2, r0
    94bc:	d9d0      	bls.n	9460 <__udivmoddi4+0x1c>
    94be:	2200      	movs	r2, #0
    94c0:	2300      	movs	r3, #0
    94c2:	9200      	str	r2, [sp, #0]
    94c4:	9301      	str	r3, [sp, #4]
    94c6:	9b0c      	ldr	r3, [sp, #48]	; 0x30
    94c8:	2b00      	cmp	r3, #0
    94ca:	d001      	beq.n	94d0 <__udivmoddi4+0x8c>
    94cc:	601c      	str	r4, [r3, #0]
    94ce:	605d      	str	r5, [r3, #4]
    94d0:	9800      	ldr	r0, [sp, #0]
    94d2:	9901      	ldr	r1, [sp, #4]
    94d4:	b003      	add	sp, #12
    94d6:	bc3c      	pop	{r2, r3, r4, r5}
    94d8:	4690      	mov	r8, r2
    94da:	4699      	mov	r9, r3
    94dc:	46a2      	mov	sl, r4
    94de:	46ab      	mov	fp, r5
    94e0:	bdf0      	pop	{r4, r5, r6, r7, pc}
    94e2:	42a3      	cmp	r3, r4
    94e4:	d9d6      	bls.n	9494 <__udivmoddi4+0x50>
    94e6:	2200      	movs	r2, #0
    94e8:	2300      	movs	r3, #0
    94ea:	9200      	str	r2, [sp, #0]
    94ec:	9301      	str	r3, [sp, #4]
    94ee:	4643      	mov	r3, r8
    94f0:	2b00      	cmp	r3, #0
    94f2:	d0e8      	beq.n	94c6 <__udivmoddi4+0x82>
    94f4:	07fb      	lsls	r3, r7, #31
    94f6:	0872      	lsrs	r2, r6, #1
    94f8:	431a      	orrs	r2, r3
    94fa:	4646      	mov	r6, r8
    94fc:	087b      	lsrs	r3, r7, #1
    94fe:	e00e      	b.n	951e <__udivmoddi4+0xda>
    9500:	42ab      	cmp	r3, r5
    9502:	d101      	bne.n	9508 <__udivmoddi4+0xc4>
    9504:	42a2      	cmp	r2, r4
    9506:	d80c      	bhi.n	9522 <__udivmoddi4+0xde>
    9508:	1aa4      	subs	r4, r4, r2
    950a:	419d      	sbcs	r5, r3
    950c:	2001      	movs	r0, #1
    950e:	1924      	adds	r4, r4, r4
    9510:	416d      	adcs	r5, r5
    9512:	2100      	movs	r1, #0
    9514:	3e01      	subs	r6, #1
    9516:	1824      	adds	r4, r4, r0
    9518:	414d      	adcs	r5, r1
    951a:	2e00      	cmp	r6, #0
    951c:	d006      	beq.n	952c <__udivmoddi4+0xe8>
    951e:	42ab      	cmp	r3, r5
    9520:	d9ee      	bls.n	9500 <__udivmoddi4+0xbc>
    9522:	3e01      	subs	r6, #1
    9524:	1924      	adds	r4, r4, r4
    9526:	416d      	adcs	r5, r5
    9528:	2e00      	cmp	r6, #0
    952a:	d1f8      	bne.n	951e <__udivmoddi4+0xda>
    952c:	465b      	mov	r3, fp
    952e:	9800      	ldr	r0, [sp, #0]
    9530:	9901      	ldr	r1, [sp, #4]
    9532:	1900      	adds	r0, r0, r4
    9534:	4169      	adcs	r1, r5
    9536:	2b00      	cmp	r3, #0
    9538:	db22      	blt.n	9580 <__udivmoddi4+0x13c>
    953a:	002b      	movs	r3, r5
    953c:	465a      	mov	r2, fp
    953e:	40d3      	lsrs	r3, r2
    9540:	002a      	movs	r2, r5
    9542:	4644      	mov	r4, r8
    9544:	40e2      	lsrs	r2, r4
    9546:	001c      	movs	r4, r3
    9548:	465b      	mov	r3, fp
    954a:	0015      	movs	r5, r2
    954c:	2b00      	cmp	r3, #0
    954e:	db2c      	blt.n	95aa <__udivmoddi4+0x166>
    9550:	0026      	movs	r6, r4
    9552:	409e      	lsls	r6, r3
    9554:	0033      	movs	r3, r6
    9556:	0026      	movs	r6, r4
    9558:	4647      	mov	r7, r8
    955a:	40be      	lsls	r6, r7
    955c:	0032      	movs	r2, r6
    955e:	1a80      	subs	r0, r0, r2
    9560:	4199      	sbcs	r1, r3
    9562:	9000      	str	r0, [sp, #0]
    9564:	9101      	str	r1, [sp, #4]
    9566:	e7ae      	b.n	94c6 <__udivmoddi4+0x82>
    9568:	4642      	mov	r2, r8
    956a:	2320      	movs	r3, #32
    956c:	1a9b      	subs	r3, r3, r2
    956e:	4652      	mov	r2, sl
    9570:	40da      	lsrs	r2, r3
    9572:	4641      	mov	r1, r8
    9574:	0013      	movs	r3, r2
    9576:	464a      	mov	r2, r9
    9578:	408a      	lsls	r2, r1
    957a:	0017      	movs	r7, r2
    957c:	431f      	orrs	r7, r3
    957e:	e782      	b.n	9486 <__udivmoddi4+0x42>
    9580:	4642      	mov	r2, r8
    9582:	2320      	movs	r3, #32
    9584:	1a9b      	subs	r3, r3, r2
    9586:	002a      	movs	r2, r5
    9588:	4646      	mov	r6, r8
    958a:	409a      	lsls	r2, r3
    958c:	0023      	movs	r3, r4
    958e:	40f3      	lsrs	r3, r6
    9590:	4313      	orrs	r3, r2
    9592:	e7d5      	b.n	9540 <__udivmoddi4+0xfc>
    9594:	4642      	mov	r2, r8
    9596:	2320      	movs	r3, #32
    9598:	2100      	movs	r1, #0
    959a:	1a9b      	subs	r3, r3, r2
    959c:	2200      	movs	r2, #0
    959e:	9100      	str	r1, [sp, #0]
    95a0:	9201      	str	r2, [sp, #4]
    95a2:	2201      	movs	r2, #1
    95a4:	40da      	lsrs	r2, r3
    95a6:	9201      	str	r2, [sp, #4]
    95a8:	e782      	b.n	94b0 <__udivmoddi4+0x6c>
    95aa:	4642      	mov	r2, r8
    95ac:	2320      	movs	r3, #32
    95ae:	0026      	movs	r6, r4
    95b0:	1a9b      	subs	r3, r3, r2
    95b2:	40de      	lsrs	r6, r3
    95b4:	002f      	movs	r7, r5
    95b6:	46b4      	mov	ip, r6
    95b8:	4097      	lsls	r7, r2
    95ba:	4666      	mov	r6, ip
    95bc:	003b      	movs	r3, r7
    95be:	4333      	orrs	r3, r6
    95c0:	e7c9      	b.n	9556 <__udivmoddi4+0x112>
    95c2:	46c0      	nop			; (mov r8, r8)

000095c4 <__aeabi_fadd>:
    95c4:	b5f0      	push	{r4, r5, r6, r7, lr}
    95c6:	46c6      	mov	lr, r8
    95c8:	024e      	lsls	r6, r1, #9
    95ca:	0247      	lsls	r7, r0, #9
    95cc:	0a76      	lsrs	r6, r6, #9
    95ce:	0a7b      	lsrs	r3, r7, #9
    95d0:	0044      	lsls	r4, r0, #1
    95d2:	0fc5      	lsrs	r5, r0, #31
    95d4:	00f7      	lsls	r7, r6, #3
    95d6:	0048      	lsls	r0, r1, #1
    95d8:	4698      	mov	r8, r3
    95da:	b500      	push	{lr}
    95dc:	0e24      	lsrs	r4, r4, #24
    95de:	002a      	movs	r2, r5
    95e0:	00db      	lsls	r3, r3, #3
    95e2:	0e00      	lsrs	r0, r0, #24
    95e4:	0fc9      	lsrs	r1, r1, #31
    95e6:	46bc      	mov	ip, r7
    95e8:	428d      	cmp	r5, r1
    95ea:	d067      	beq.n	96bc <__aeabi_fadd+0xf8>
    95ec:	1a22      	subs	r2, r4, r0
    95ee:	2a00      	cmp	r2, #0
    95f0:	dc00      	bgt.n	95f4 <__aeabi_fadd+0x30>
    95f2:	e0a5      	b.n	9740 <__aeabi_fadd+0x17c>
    95f4:	2800      	cmp	r0, #0
    95f6:	d13a      	bne.n	966e <__aeabi_fadd+0xaa>
    95f8:	2f00      	cmp	r7, #0
    95fa:	d100      	bne.n	95fe <__aeabi_fadd+0x3a>
    95fc:	e093      	b.n	9726 <__aeabi_fadd+0x162>
    95fe:	1e51      	subs	r1, r2, #1
    9600:	2900      	cmp	r1, #0
    9602:	d000      	beq.n	9606 <__aeabi_fadd+0x42>
    9604:	e0bc      	b.n	9780 <__aeabi_fadd+0x1bc>
    9606:	2401      	movs	r4, #1
    9608:	1bdb      	subs	r3, r3, r7
    960a:	015a      	lsls	r2, r3, #5
    960c:	d546      	bpl.n	969c <__aeabi_fadd+0xd8>
    960e:	019b      	lsls	r3, r3, #6
    9610:	099e      	lsrs	r6, r3, #6
    9612:	0030      	movs	r0, r6
    9614:	f7ff fe52 	bl	92bc <__clzsi2>
    9618:	3805      	subs	r0, #5
    961a:	4086      	lsls	r6, r0
    961c:	4284      	cmp	r4, r0
    961e:	dd00      	ble.n	9622 <__aeabi_fadd+0x5e>
    9620:	e09d      	b.n	975e <__aeabi_fadd+0x19a>
    9622:	1b04      	subs	r4, r0, r4
    9624:	0032      	movs	r2, r6
    9626:	2020      	movs	r0, #32
    9628:	3401      	adds	r4, #1
    962a:	40e2      	lsrs	r2, r4
    962c:	1b04      	subs	r4, r0, r4
    962e:	40a6      	lsls	r6, r4
    9630:	0033      	movs	r3, r6
    9632:	1e5e      	subs	r6, r3, #1
    9634:	41b3      	sbcs	r3, r6
    9636:	2400      	movs	r4, #0
    9638:	4313      	orrs	r3, r2
    963a:	075a      	lsls	r2, r3, #29
    963c:	d004      	beq.n	9648 <__aeabi_fadd+0x84>
    963e:	220f      	movs	r2, #15
    9640:	401a      	ands	r2, r3
    9642:	2a04      	cmp	r2, #4
    9644:	d000      	beq.n	9648 <__aeabi_fadd+0x84>
    9646:	3304      	adds	r3, #4
    9648:	015a      	lsls	r2, r3, #5
    964a:	d529      	bpl.n	96a0 <__aeabi_fadd+0xdc>
    964c:	3401      	adds	r4, #1
    964e:	2cff      	cmp	r4, #255	; 0xff
    9650:	d100      	bne.n	9654 <__aeabi_fadd+0x90>
    9652:	e081      	b.n	9758 <__aeabi_fadd+0x194>
    9654:	002a      	movs	r2, r5
    9656:	019b      	lsls	r3, r3, #6
    9658:	0a5b      	lsrs	r3, r3, #9
    965a:	b2e4      	uxtb	r4, r4
    965c:	025b      	lsls	r3, r3, #9
    965e:	05e4      	lsls	r4, r4, #23
    9660:	0a58      	lsrs	r0, r3, #9
    9662:	07d2      	lsls	r2, r2, #31
    9664:	4320      	orrs	r0, r4
    9666:	4310      	orrs	r0, r2
    9668:	bc04      	pop	{r2}
    966a:	4690      	mov	r8, r2
    966c:	bdf0      	pop	{r4, r5, r6, r7, pc}
    966e:	2cff      	cmp	r4, #255	; 0xff
    9670:	d0e3      	beq.n	963a <__aeabi_fadd+0x76>
    9672:	2180      	movs	r1, #128	; 0x80
    9674:	0038      	movs	r0, r7
    9676:	04c9      	lsls	r1, r1, #19
    9678:	4308      	orrs	r0, r1
    967a:	4684      	mov	ip, r0
    967c:	2a1b      	cmp	r2, #27
    967e:	dd00      	ble.n	9682 <__aeabi_fadd+0xbe>
    9680:	e082      	b.n	9788 <__aeabi_fadd+0x1c4>
    9682:	2020      	movs	r0, #32
    9684:	4661      	mov	r1, ip
    9686:	40d1      	lsrs	r1, r2
    9688:	1a82      	subs	r2, r0, r2
    968a:	4660      	mov	r0, ip
    968c:	4090      	lsls	r0, r2
    968e:	0002      	movs	r2, r0
    9690:	1e50      	subs	r0, r2, #1
    9692:	4182      	sbcs	r2, r0
    9694:	430a      	orrs	r2, r1
    9696:	1a9b      	subs	r3, r3, r2
    9698:	015a      	lsls	r2, r3, #5
    969a:	d4b8      	bmi.n	960e <__aeabi_fadd+0x4a>
    969c:	075a      	lsls	r2, r3, #29
    969e:	d1ce      	bne.n	963e <__aeabi_fadd+0x7a>
    96a0:	08de      	lsrs	r6, r3, #3
    96a2:	002a      	movs	r2, r5
    96a4:	2cff      	cmp	r4, #255	; 0xff
    96a6:	d13a      	bne.n	971e <__aeabi_fadd+0x15a>
    96a8:	2e00      	cmp	r6, #0
    96aa:	d100      	bne.n	96ae <__aeabi_fadd+0xea>
    96ac:	e0ae      	b.n	980c <__aeabi_fadd+0x248>
    96ae:	2380      	movs	r3, #128	; 0x80
    96b0:	03db      	lsls	r3, r3, #15
    96b2:	4333      	orrs	r3, r6
    96b4:	025b      	lsls	r3, r3, #9
    96b6:	0a5b      	lsrs	r3, r3, #9
    96b8:	24ff      	movs	r4, #255	; 0xff
    96ba:	e7cf      	b.n	965c <__aeabi_fadd+0x98>
    96bc:	1a21      	subs	r1, r4, r0
    96be:	2900      	cmp	r1, #0
    96c0:	dd52      	ble.n	9768 <__aeabi_fadd+0x1a4>
    96c2:	2800      	cmp	r0, #0
    96c4:	d031      	beq.n	972a <__aeabi_fadd+0x166>
    96c6:	2cff      	cmp	r4, #255	; 0xff
    96c8:	d0b7      	beq.n	963a <__aeabi_fadd+0x76>
    96ca:	2080      	movs	r0, #128	; 0x80
    96cc:	003e      	movs	r6, r7
    96ce:	04c0      	lsls	r0, r0, #19
    96d0:	4306      	orrs	r6, r0
    96d2:	46b4      	mov	ip, r6
    96d4:	291b      	cmp	r1, #27
    96d6:	dd00      	ble.n	96da <__aeabi_fadd+0x116>
    96d8:	e0aa      	b.n	9830 <__aeabi_fadd+0x26c>
    96da:	2620      	movs	r6, #32
    96dc:	4660      	mov	r0, ip
    96de:	40c8      	lsrs	r0, r1
    96e0:	1a71      	subs	r1, r6, r1
    96e2:	4666      	mov	r6, ip
    96e4:	408e      	lsls	r6, r1
    96e6:	0031      	movs	r1, r6
    96e8:	1e4e      	subs	r6, r1, #1
    96ea:	41b1      	sbcs	r1, r6
    96ec:	4301      	orrs	r1, r0
    96ee:	185b      	adds	r3, r3, r1
    96f0:	0159      	lsls	r1, r3, #5
    96f2:	d5d3      	bpl.n	969c <__aeabi_fadd+0xd8>
    96f4:	3401      	adds	r4, #1
    96f6:	2cff      	cmp	r4, #255	; 0xff
    96f8:	d100      	bne.n	96fc <__aeabi_fadd+0x138>
    96fa:	e087      	b.n	980c <__aeabi_fadd+0x248>
    96fc:	2201      	movs	r2, #1
    96fe:	4978      	ldr	r1, [pc, #480]	; (98e0 <__aeabi_fadd+0x31c>)
    9700:	401a      	ands	r2, r3
    9702:	085b      	lsrs	r3, r3, #1
    9704:	400b      	ands	r3, r1
    9706:	4313      	orrs	r3, r2
    9708:	e797      	b.n	963a <__aeabi_fadd+0x76>
    970a:	2c00      	cmp	r4, #0
    970c:	d000      	beq.n	9710 <__aeabi_fadd+0x14c>
    970e:	e0a7      	b.n	9860 <__aeabi_fadd+0x29c>
    9710:	2b00      	cmp	r3, #0
    9712:	d000      	beq.n	9716 <__aeabi_fadd+0x152>
    9714:	e0b6      	b.n	9884 <__aeabi_fadd+0x2c0>
    9716:	1e3b      	subs	r3, r7, #0
    9718:	d162      	bne.n	97e0 <__aeabi_fadd+0x21c>
    971a:	2600      	movs	r6, #0
    971c:	2200      	movs	r2, #0
    971e:	0273      	lsls	r3, r6, #9
    9720:	0a5b      	lsrs	r3, r3, #9
    9722:	b2e4      	uxtb	r4, r4
    9724:	e79a      	b.n	965c <__aeabi_fadd+0x98>
    9726:	0014      	movs	r4, r2
    9728:	e787      	b.n	963a <__aeabi_fadd+0x76>
    972a:	2f00      	cmp	r7, #0
    972c:	d04d      	beq.n	97ca <__aeabi_fadd+0x206>
    972e:	1e48      	subs	r0, r1, #1
    9730:	2800      	cmp	r0, #0
    9732:	d157      	bne.n	97e4 <__aeabi_fadd+0x220>
    9734:	4463      	add	r3, ip
    9736:	2401      	movs	r4, #1
    9738:	015a      	lsls	r2, r3, #5
    973a:	d5af      	bpl.n	969c <__aeabi_fadd+0xd8>
    973c:	2402      	movs	r4, #2
    973e:	e7dd      	b.n	96fc <__aeabi_fadd+0x138>
    9740:	2a00      	cmp	r2, #0
    9742:	d124      	bne.n	978e <__aeabi_fadd+0x1ca>
    9744:	1c62      	adds	r2, r4, #1
    9746:	b2d2      	uxtb	r2, r2
    9748:	2a01      	cmp	r2, #1
    974a:	ddde      	ble.n	970a <__aeabi_fadd+0x146>
    974c:	1bde      	subs	r6, r3, r7
    974e:	0172      	lsls	r2, r6, #5
    9750:	d535      	bpl.n	97be <__aeabi_fadd+0x1fa>
    9752:	1afe      	subs	r6, r7, r3
    9754:	000d      	movs	r5, r1
    9756:	e75c      	b.n	9612 <__aeabi_fadd+0x4e>
    9758:	002a      	movs	r2, r5
    975a:	2300      	movs	r3, #0
    975c:	e77e      	b.n	965c <__aeabi_fadd+0x98>
    975e:	0033      	movs	r3, r6
    9760:	4a60      	ldr	r2, [pc, #384]	; (98e4 <__aeabi_fadd+0x320>)
    9762:	1a24      	subs	r4, r4, r0
    9764:	4013      	ands	r3, r2
    9766:	e768      	b.n	963a <__aeabi_fadd+0x76>
    9768:	2900      	cmp	r1, #0
    976a:	d163      	bne.n	9834 <__aeabi_fadd+0x270>
    976c:	1c61      	adds	r1, r4, #1
    976e:	b2c8      	uxtb	r0, r1
    9770:	2801      	cmp	r0, #1
    9772:	dd4e      	ble.n	9812 <__aeabi_fadd+0x24e>
    9774:	29ff      	cmp	r1, #255	; 0xff
    9776:	d049      	beq.n	980c <__aeabi_fadd+0x248>
    9778:	4463      	add	r3, ip
    977a:	085b      	lsrs	r3, r3, #1
    977c:	000c      	movs	r4, r1
    977e:	e75c      	b.n	963a <__aeabi_fadd+0x76>
    9780:	2aff      	cmp	r2, #255	; 0xff
    9782:	d041      	beq.n	9808 <__aeabi_fadd+0x244>
    9784:	000a      	movs	r2, r1
    9786:	e779      	b.n	967c <__aeabi_fadd+0xb8>
    9788:	2201      	movs	r2, #1
    978a:	1a9b      	subs	r3, r3, r2
    978c:	e784      	b.n	9698 <__aeabi_fadd+0xd4>
    978e:	2c00      	cmp	r4, #0
    9790:	d01d      	beq.n	97ce <__aeabi_fadd+0x20a>
    9792:	28ff      	cmp	r0, #255	; 0xff
    9794:	d022      	beq.n	97dc <__aeabi_fadd+0x218>
    9796:	2480      	movs	r4, #128	; 0x80
    9798:	04e4      	lsls	r4, r4, #19
    979a:	4252      	negs	r2, r2
    979c:	4323      	orrs	r3, r4
    979e:	2a1b      	cmp	r2, #27
    97a0:	dd00      	ble.n	97a4 <__aeabi_fadd+0x1e0>
    97a2:	e08a      	b.n	98ba <__aeabi_fadd+0x2f6>
    97a4:	001c      	movs	r4, r3
    97a6:	2520      	movs	r5, #32
    97a8:	40d4      	lsrs	r4, r2
    97aa:	1aaa      	subs	r2, r5, r2
    97ac:	4093      	lsls	r3, r2
    97ae:	1e5a      	subs	r2, r3, #1
    97b0:	4193      	sbcs	r3, r2
    97b2:	4323      	orrs	r3, r4
    97b4:	4662      	mov	r2, ip
    97b6:	0004      	movs	r4, r0
    97b8:	1ad3      	subs	r3, r2, r3
    97ba:	000d      	movs	r5, r1
    97bc:	e725      	b.n	960a <__aeabi_fadd+0x46>
    97be:	2e00      	cmp	r6, #0
    97c0:	d000      	beq.n	97c4 <__aeabi_fadd+0x200>
    97c2:	e726      	b.n	9612 <__aeabi_fadd+0x4e>
    97c4:	2200      	movs	r2, #0
    97c6:	2400      	movs	r4, #0
    97c8:	e7a9      	b.n	971e <__aeabi_fadd+0x15a>
    97ca:	000c      	movs	r4, r1
    97cc:	e735      	b.n	963a <__aeabi_fadd+0x76>
    97ce:	2b00      	cmp	r3, #0
    97d0:	d04d      	beq.n	986e <__aeabi_fadd+0x2aa>
    97d2:	43d2      	mvns	r2, r2
    97d4:	2a00      	cmp	r2, #0
    97d6:	d0ed      	beq.n	97b4 <__aeabi_fadd+0x1f0>
    97d8:	28ff      	cmp	r0, #255	; 0xff
    97da:	d1e0      	bne.n	979e <__aeabi_fadd+0x1da>
    97dc:	4663      	mov	r3, ip
    97de:	24ff      	movs	r4, #255	; 0xff
    97e0:	000d      	movs	r5, r1
    97e2:	e72a      	b.n	963a <__aeabi_fadd+0x76>
    97e4:	29ff      	cmp	r1, #255	; 0xff
    97e6:	d00f      	beq.n	9808 <__aeabi_fadd+0x244>
    97e8:	0001      	movs	r1, r0
    97ea:	e773      	b.n	96d4 <__aeabi_fadd+0x110>
    97ec:	2b00      	cmp	r3, #0
    97ee:	d061      	beq.n	98b4 <__aeabi_fadd+0x2f0>
    97f0:	24ff      	movs	r4, #255	; 0xff
    97f2:	2f00      	cmp	r7, #0
    97f4:	d100      	bne.n	97f8 <__aeabi_fadd+0x234>
    97f6:	e720      	b.n	963a <__aeabi_fadd+0x76>
    97f8:	2280      	movs	r2, #128	; 0x80
    97fa:	4641      	mov	r1, r8
    97fc:	03d2      	lsls	r2, r2, #15
    97fe:	4211      	tst	r1, r2
    9800:	d002      	beq.n	9808 <__aeabi_fadd+0x244>
    9802:	4216      	tst	r6, r2
    9804:	d100      	bne.n	9808 <__aeabi_fadd+0x244>
    9806:	003b      	movs	r3, r7
    9808:	24ff      	movs	r4, #255	; 0xff
    980a:	e716      	b.n	963a <__aeabi_fadd+0x76>
    980c:	24ff      	movs	r4, #255	; 0xff
    980e:	2300      	movs	r3, #0
    9810:	e724      	b.n	965c <__aeabi_fadd+0x98>
    9812:	2c00      	cmp	r4, #0
    9814:	d1ea      	bne.n	97ec <__aeabi_fadd+0x228>
    9816:	2b00      	cmp	r3, #0
    9818:	d058      	beq.n	98cc <__aeabi_fadd+0x308>
    981a:	2f00      	cmp	r7, #0
    981c:	d100      	bne.n	9820 <__aeabi_fadd+0x25c>
    981e:	e70c      	b.n	963a <__aeabi_fadd+0x76>
    9820:	4463      	add	r3, ip
    9822:	015a      	lsls	r2, r3, #5
    9824:	d400      	bmi.n	9828 <__aeabi_fadd+0x264>
    9826:	e739      	b.n	969c <__aeabi_fadd+0xd8>
    9828:	4a2e      	ldr	r2, [pc, #184]	; (98e4 <__aeabi_fadd+0x320>)
    982a:	000c      	movs	r4, r1
    982c:	4013      	ands	r3, r2
    982e:	e704      	b.n	963a <__aeabi_fadd+0x76>
    9830:	2101      	movs	r1, #1
    9832:	e75c      	b.n	96ee <__aeabi_fadd+0x12a>
    9834:	2c00      	cmp	r4, #0
    9836:	d11e      	bne.n	9876 <__aeabi_fadd+0x2b2>
    9838:	2b00      	cmp	r3, #0
    983a:	d040      	beq.n	98be <__aeabi_fadd+0x2fa>
    983c:	43c9      	mvns	r1, r1
    983e:	2900      	cmp	r1, #0
    9840:	d00b      	beq.n	985a <__aeabi_fadd+0x296>
    9842:	28ff      	cmp	r0, #255	; 0xff
    9844:	d036      	beq.n	98b4 <__aeabi_fadd+0x2f0>
    9846:	291b      	cmp	r1, #27
    9848:	dc47      	bgt.n	98da <__aeabi_fadd+0x316>
    984a:	001c      	movs	r4, r3
    984c:	2620      	movs	r6, #32
    984e:	40cc      	lsrs	r4, r1
    9850:	1a71      	subs	r1, r6, r1
    9852:	408b      	lsls	r3, r1
    9854:	1e59      	subs	r1, r3, #1
    9856:	418b      	sbcs	r3, r1
    9858:	4323      	orrs	r3, r4
    985a:	4463      	add	r3, ip
    985c:	0004      	movs	r4, r0
    985e:	e747      	b.n	96f0 <__aeabi_fadd+0x12c>
    9860:	2b00      	cmp	r3, #0
    9862:	d118      	bne.n	9896 <__aeabi_fadd+0x2d2>
    9864:	1e3b      	subs	r3, r7, #0
    9866:	d02d      	beq.n	98c4 <__aeabi_fadd+0x300>
    9868:	000d      	movs	r5, r1
    986a:	24ff      	movs	r4, #255	; 0xff
    986c:	e6e5      	b.n	963a <__aeabi_fadd+0x76>
    986e:	003b      	movs	r3, r7
    9870:	0004      	movs	r4, r0
    9872:	000d      	movs	r5, r1
    9874:	e6e1      	b.n	963a <__aeabi_fadd+0x76>
    9876:	28ff      	cmp	r0, #255	; 0xff
    9878:	d01c      	beq.n	98b4 <__aeabi_fadd+0x2f0>
    987a:	2480      	movs	r4, #128	; 0x80
    987c:	04e4      	lsls	r4, r4, #19
    987e:	4249      	negs	r1, r1
    9880:	4323      	orrs	r3, r4
    9882:	e7e0      	b.n	9846 <__aeabi_fadd+0x282>
    9884:	2f00      	cmp	r7, #0
    9886:	d100      	bne.n	988a <__aeabi_fadd+0x2c6>
    9888:	e6d7      	b.n	963a <__aeabi_fadd+0x76>
    988a:	1bde      	subs	r6, r3, r7
    988c:	0172      	lsls	r2, r6, #5
    988e:	d51f      	bpl.n	98d0 <__aeabi_fadd+0x30c>
    9890:	1afb      	subs	r3, r7, r3
    9892:	000d      	movs	r5, r1
    9894:	e6d1      	b.n	963a <__aeabi_fadd+0x76>
    9896:	24ff      	movs	r4, #255	; 0xff
    9898:	2f00      	cmp	r7, #0
    989a:	d100      	bne.n	989e <__aeabi_fadd+0x2da>
    989c:	e6cd      	b.n	963a <__aeabi_fadd+0x76>
    989e:	2280      	movs	r2, #128	; 0x80
    98a0:	4640      	mov	r0, r8
    98a2:	03d2      	lsls	r2, r2, #15
    98a4:	4210      	tst	r0, r2
    98a6:	d0af      	beq.n	9808 <__aeabi_fadd+0x244>
    98a8:	4216      	tst	r6, r2
    98aa:	d1ad      	bne.n	9808 <__aeabi_fadd+0x244>
    98ac:	003b      	movs	r3, r7
    98ae:	000d      	movs	r5, r1
    98b0:	24ff      	movs	r4, #255	; 0xff
    98b2:	e6c2      	b.n	963a <__aeabi_fadd+0x76>
    98b4:	4663      	mov	r3, ip
    98b6:	24ff      	movs	r4, #255	; 0xff
    98b8:	e6bf      	b.n	963a <__aeabi_fadd+0x76>
    98ba:	2301      	movs	r3, #1
    98bc:	e77a      	b.n	97b4 <__aeabi_fadd+0x1f0>
    98be:	003b      	movs	r3, r7
    98c0:	0004      	movs	r4, r0
    98c2:	e6ba      	b.n	963a <__aeabi_fadd+0x76>
    98c4:	2680      	movs	r6, #128	; 0x80
    98c6:	2200      	movs	r2, #0
    98c8:	03f6      	lsls	r6, r6, #15
    98ca:	e6f0      	b.n	96ae <__aeabi_fadd+0xea>
    98cc:	003b      	movs	r3, r7
    98ce:	e6b4      	b.n	963a <__aeabi_fadd+0x76>
    98d0:	1e33      	subs	r3, r6, #0
    98d2:	d000      	beq.n	98d6 <__aeabi_fadd+0x312>
    98d4:	e6e2      	b.n	969c <__aeabi_fadd+0xd8>
    98d6:	2200      	movs	r2, #0
    98d8:	e721      	b.n	971e <__aeabi_fadd+0x15a>
    98da:	2301      	movs	r3, #1
    98dc:	e7bd      	b.n	985a <__aeabi_fadd+0x296>
    98de:	46c0      	nop			; (mov r8, r8)
    98e0:	7dffffff 	.word	0x7dffffff
    98e4:	fbffffff 	.word	0xfbffffff

000098e8 <__aeabi_fdiv>:
    98e8:	b5f0      	push	{r4, r5, r6, r7, lr}
    98ea:	4657      	mov	r7, sl
    98ec:	464e      	mov	r6, r9
    98ee:	46de      	mov	lr, fp
    98f0:	4645      	mov	r5, r8
    98f2:	b5e0      	push	{r5, r6, r7, lr}
    98f4:	0244      	lsls	r4, r0, #9
    98f6:	0043      	lsls	r3, r0, #1
    98f8:	0fc6      	lsrs	r6, r0, #31
    98fa:	b083      	sub	sp, #12
    98fc:	1c0f      	adds	r7, r1, #0
    98fe:	0a64      	lsrs	r4, r4, #9
    9900:	0e1b      	lsrs	r3, r3, #24
    9902:	46b2      	mov	sl, r6
    9904:	d053      	beq.n	99ae <__aeabi_fdiv+0xc6>
    9906:	2bff      	cmp	r3, #255	; 0xff
    9908:	d027      	beq.n	995a <__aeabi_fdiv+0x72>
    990a:	2280      	movs	r2, #128	; 0x80
    990c:	00e4      	lsls	r4, r4, #3
    990e:	04d2      	lsls	r2, r2, #19
    9910:	4314      	orrs	r4, r2
    9912:	227f      	movs	r2, #127	; 0x7f
    9914:	4252      	negs	r2, r2
    9916:	4690      	mov	r8, r2
    9918:	4498      	add	r8, r3
    991a:	2300      	movs	r3, #0
    991c:	4699      	mov	r9, r3
    991e:	469b      	mov	fp, r3
    9920:	027d      	lsls	r5, r7, #9
    9922:	0078      	lsls	r0, r7, #1
    9924:	0ffb      	lsrs	r3, r7, #31
    9926:	0a6d      	lsrs	r5, r5, #9
    9928:	0e00      	lsrs	r0, r0, #24
    992a:	9300      	str	r3, [sp, #0]
    992c:	d024      	beq.n	9978 <__aeabi_fdiv+0x90>
    992e:	28ff      	cmp	r0, #255	; 0xff
    9930:	d046      	beq.n	99c0 <__aeabi_fdiv+0xd8>
    9932:	2380      	movs	r3, #128	; 0x80
    9934:	2100      	movs	r1, #0
    9936:	00ed      	lsls	r5, r5, #3
    9938:	04db      	lsls	r3, r3, #19
    993a:	431d      	orrs	r5, r3
    993c:	387f      	subs	r0, #127	; 0x7f
    993e:	4647      	mov	r7, r8
    9940:	1a38      	subs	r0, r7, r0
    9942:	464f      	mov	r7, r9
    9944:	430f      	orrs	r7, r1
    9946:	00bf      	lsls	r7, r7, #2
    9948:	46b9      	mov	r9, r7
    994a:	0033      	movs	r3, r6
    994c:	9a00      	ldr	r2, [sp, #0]
    994e:	4f87      	ldr	r7, [pc, #540]	; (9b6c <__aeabi_fdiv+0x284>)
    9950:	4053      	eors	r3, r2
    9952:	464a      	mov	r2, r9
    9954:	58ba      	ldr	r2, [r7, r2]
    9956:	9301      	str	r3, [sp, #4]
    9958:	4697      	mov	pc, r2
    995a:	2c00      	cmp	r4, #0
    995c:	d14e      	bne.n	99fc <__aeabi_fdiv+0x114>
    995e:	2308      	movs	r3, #8
    9960:	4699      	mov	r9, r3
    9962:	33f7      	adds	r3, #247	; 0xf7
    9964:	4698      	mov	r8, r3
    9966:	3bfd      	subs	r3, #253	; 0xfd
    9968:	469b      	mov	fp, r3
    996a:	027d      	lsls	r5, r7, #9
    996c:	0078      	lsls	r0, r7, #1
    996e:	0ffb      	lsrs	r3, r7, #31
    9970:	0a6d      	lsrs	r5, r5, #9
    9972:	0e00      	lsrs	r0, r0, #24
    9974:	9300      	str	r3, [sp, #0]
    9976:	d1da      	bne.n	992e <__aeabi_fdiv+0x46>
    9978:	2d00      	cmp	r5, #0
    997a:	d126      	bne.n	99ca <__aeabi_fdiv+0xe2>
    997c:	2000      	movs	r0, #0
    997e:	2101      	movs	r1, #1
    9980:	0033      	movs	r3, r6
    9982:	9a00      	ldr	r2, [sp, #0]
    9984:	4f7a      	ldr	r7, [pc, #488]	; (9b70 <__aeabi_fdiv+0x288>)
    9986:	4053      	eors	r3, r2
    9988:	4642      	mov	r2, r8
    998a:	1a10      	subs	r0, r2, r0
    998c:	464a      	mov	r2, r9
    998e:	430a      	orrs	r2, r1
    9990:	0092      	lsls	r2, r2, #2
    9992:	58ba      	ldr	r2, [r7, r2]
    9994:	001d      	movs	r5, r3
    9996:	4697      	mov	pc, r2
    9998:	9b00      	ldr	r3, [sp, #0]
    999a:	002c      	movs	r4, r5
    999c:	469a      	mov	sl, r3
    999e:	468b      	mov	fp, r1
    99a0:	465b      	mov	r3, fp
    99a2:	2b02      	cmp	r3, #2
    99a4:	d131      	bne.n	9a0a <__aeabi_fdiv+0x122>
    99a6:	4653      	mov	r3, sl
    99a8:	21ff      	movs	r1, #255	; 0xff
    99aa:	2400      	movs	r4, #0
    99ac:	e038      	b.n	9a20 <__aeabi_fdiv+0x138>
    99ae:	2c00      	cmp	r4, #0
    99b0:	d117      	bne.n	99e2 <__aeabi_fdiv+0xfa>
    99b2:	2304      	movs	r3, #4
    99b4:	4699      	mov	r9, r3
    99b6:	2300      	movs	r3, #0
    99b8:	4698      	mov	r8, r3
    99ba:	3301      	adds	r3, #1
    99bc:	469b      	mov	fp, r3
    99be:	e7af      	b.n	9920 <__aeabi_fdiv+0x38>
    99c0:	20ff      	movs	r0, #255	; 0xff
    99c2:	2d00      	cmp	r5, #0
    99c4:	d10b      	bne.n	99de <__aeabi_fdiv+0xf6>
    99c6:	2102      	movs	r1, #2
    99c8:	e7da      	b.n	9980 <__aeabi_fdiv+0x98>
    99ca:	0028      	movs	r0, r5
    99cc:	f7ff fc76 	bl	92bc <__clzsi2>
    99d0:	1f43      	subs	r3, r0, #5
    99d2:	409d      	lsls	r5, r3
    99d4:	2376      	movs	r3, #118	; 0x76
    99d6:	425b      	negs	r3, r3
    99d8:	1a18      	subs	r0, r3, r0
    99da:	2100      	movs	r1, #0
    99dc:	e7af      	b.n	993e <__aeabi_fdiv+0x56>
    99de:	2103      	movs	r1, #3
    99e0:	e7ad      	b.n	993e <__aeabi_fdiv+0x56>
    99e2:	0020      	movs	r0, r4
    99e4:	f7ff fc6a 	bl	92bc <__clzsi2>
    99e8:	1f43      	subs	r3, r0, #5
    99ea:	409c      	lsls	r4, r3
    99ec:	2376      	movs	r3, #118	; 0x76
    99ee:	425b      	negs	r3, r3
    99f0:	1a1b      	subs	r3, r3, r0
    99f2:	4698      	mov	r8, r3
    99f4:	2300      	movs	r3, #0
    99f6:	4699      	mov	r9, r3
    99f8:	469b      	mov	fp, r3
    99fa:	e791      	b.n	9920 <__aeabi_fdiv+0x38>
    99fc:	230c      	movs	r3, #12
    99fe:	4699      	mov	r9, r3
    9a00:	33f3      	adds	r3, #243	; 0xf3
    9a02:	4698      	mov	r8, r3
    9a04:	3bfc      	subs	r3, #252	; 0xfc
    9a06:	469b      	mov	fp, r3
    9a08:	e78a      	b.n	9920 <__aeabi_fdiv+0x38>
    9a0a:	2b03      	cmp	r3, #3
    9a0c:	d100      	bne.n	9a10 <__aeabi_fdiv+0x128>
    9a0e:	e0a5      	b.n	9b5c <__aeabi_fdiv+0x274>
    9a10:	4655      	mov	r5, sl
    9a12:	2b01      	cmp	r3, #1
    9a14:	d000      	beq.n	9a18 <__aeabi_fdiv+0x130>
    9a16:	e081      	b.n	9b1c <__aeabi_fdiv+0x234>
    9a18:	2301      	movs	r3, #1
    9a1a:	2100      	movs	r1, #0
    9a1c:	2400      	movs	r4, #0
    9a1e:	402b      	ands	r3, r5
    9a20:	0264      	lsls	r4, r4, #9
    9a22:	05c9      	lsls	r1, r1, #23
    9a24:	0a60      	lsrs	r0, r4, #9
    9a26:	07db      	lsls	r3, r3, #31
    9a28:	4308      	orrs	r0, r1
    9a2a:	4318      	orrs	r0, r3
    9a2c:	b003      	add	sp, #12
    9a2e:	bc3c      	pop	{r2, r3, r4, r5}
    9a30:	4690      	mov	r8, r2
    9a32:	4699      	mov	r9, r3
    9a34:	46a2      	mov	sl, r4
    9a36:	46ab      	mov	fp, r5
    9a38:	bdf0      	pop	{r4, r5, r6, r7, pc}
    9a3a:	2480      	movs	r4, #128	; 0x80
    9a3c:	2300      	movs	r3, #0
    9a3e:	03e4      	lsls	r4, r4, #15
    9a40:	21ff      	movs	r1, #255	; 0xff
    9a42:	e7ed      	b.n	9a20 <__aeabi_fdiv+0x138>
    9a44:	21ff      	movs	r1, #255	; 0xff
    9a46:	2400      	movs	r4, #0
    9a48:	e7ea      	b.n	9a20 <__aeabi_fdiv+0x138>
    9a4a:	2301      	movs	r3, #1
    9a4c:	1a59      	subs	r1, r3, r1
    9a4e:	291b      	cmp	r1, #27
    9a50:	dd66      	ble.n	9b20 <__aeabi_fdiv+0x238>
    9a52:	9a01      	ldr	r2, [sp, #4]
    9a54:	4013      	ands	r3, r2
    9a56:	2100      	movs	r1, #0
    9a58:	2400      	movs	r4, #0
    9a5a:	e7e1      	b.n	9a20 <__aeabi_fdiv+0x138>
    9a5c:	2380      	movs	r3, #128	; 0x80
    9a5e:	03db      	lsls	r3, r3, #15
    9a60:	421c      	tst	r4, r3
    9a62:	d038      	beq.n	9ad6 <__aeabi_fdiv+0x1ee>
    9a64:	421d      	tst	r5, r3
    9a66:	d051      	beq.n	9b0c <__aeabi_fdiv+0x224>
    9a68:	431c      	orrs	r4, r3
    9a6a:	0264      	lsls	r4, r4, #9
    9a6c:	0a64      	lsrs	r4, r4, #9
    9a6e:	0033      	movs	r3, r6
    9a70:	21ff      	movs	r1, #255	; 0xff
    9a72:	e7d5      	b.n	9a20 <__aeabi_fdiv+0x138>
    9a74:	0163      	lsls	r3, r4, #5
    9a76:	016c      	lsls	r4, r5, #5
    9a78:	42a3      	cmp	r3, r4
    9a7a:	d23b      	bcs.n	9af4 <__aeabi_fdiv+0x20c>
    9a7c:	261b      	movs	r6, #27
    9a7e:	2100      	movs	r1, #0
    9a80:	3801      	subs	r0, #1
    9a82:	2501      	movs	r5, #1
    9a84:	001f      	movs	r7, r3
    9a86:	0049      	lsls	r1, r1, #1
    9a88:	005b      	lsls	r3, r3, #1
    9a8a:	2f00      	cmp	r7, #0
    9a8c:	db01      	blt.n	9a92 <__aeabi_fdiv+0x1aa>
    9a8e:	429c      	cmp	r4, r3
    9a90:	d801      	bhi.n	9a96 <__aeabi_fdiv+0x1ae>
    9a92:	1b1b      	subs	r3, r3, r4
    9a94:	4329      	orrs	r1, r5
    9a96:	3e01      	subs	r6, #1
    9a98:	2e00      	cmp	r6, #0
    9a9a:	d1f3      	bne.n	9a84 <__aeabi_fdiv+0x19c>
    9a9c:	001c      	movs	r4, r3
    9a9e:	1e63      	subs	r3, r4, #1
    9aa0:	419c      	sbcs	r4, r3
    9aa2:	430c      	orrs	r4, r1
    9aa4:	0001      	movs	r1, r0
    9aa6:	317f      	adds	r1, #127	; 0x7f
    9aa8:	2900      	cmp	r1, #0
    9aaa:	ddce      	ble.n	9a4a <__aeabi_fdiv+0x162>
    9aac:	0763      	lsls	r3, r4, #29
    9aae:	d004      	beq.n	9aba <__aeabi_fdiv+0x1d2>
    9ab0:	230f      	movs	r3, #15
    9ab2:	4023      	ands	r3, r4
    9ab4:	2b04      	cmp	r3, #4
    9ab6:	d000      	beq.n	9aba <__aeabi_fdiv+0x1d2>
    9ab8:	3404      	adds	r4, #4
    9aba:	0123      	lsls	r3, r4, #4
    9abc:	d503      	bpl.n	9ac6 <__aeabi_fdiv+0x1de>
    9abe:	0001      	movs	r1, r0
    9ac0:	4b2c      	ldr	r3, [pc, #176]	; (9b74 <__aeabi_fdiv+0x28c>)
    9ac2:	3180      	adds	r1, #128	; 0x80
    9ac4:	401c      	ands	r4, r3
    9ac6:	29fe      	cmp	r1, #254	; 0xfe
    9ac8:	dd0d      	ble.n	9ae6 <__aeabi_fdiv+0x1fe>
    9aca:	2301      	movs	r3, #1
    9acc:	9a01      	ldr	r2, [sp, #4]
    9ace:	21ff      	movs	r1, #255	; 0xff
    9ad0:	4013      	ands	r3, r2
    9ad2:	2400      	movs	r4, #0
    9ad4:	e7a4      	b.n	9a20 <__aeabi_fdiv+0x138>
    9ad6:	2380      	movs	r3, #128	; 0x80
    9ad8:	03db      	lsls	r3, r3, #15
    9ada:	431c      	orrs	r4, r3
    9adc:	0264      	lsls	r4, r4, #9
    9ade:	0a64      	lsrs	r4, r4, #9
    9ae0:	0033      	movs	r3, r6
    9ae2:	21ff      	movs	r1, #255	; 0xff
    9ae4:	e79c      	b.n	9a20 <__aeabi_fdiv+0x138>
    9ae6:	2301      	movs	r3, #1
    9ae8:	9a01      	ldr	r2, [sp, #4]
    9aea:	01a4      	lsls	r4, r4, #6
    9aec:	0a64      	lsrs	r4, r4, #9
    9aee:	b2c9      	uxtb	r1, r1
    9af0:	4013      	ands	r3, r2
    9af2:	e795      	b.n	9a20 <__aeabi_fdiv+0x138>
    9af4:	1b1b      	subs	r3, r3, r4
    9af6:	261a      	movs	r6, #26
    9af8:	2101      	movs	r1, #1
    9afa:	e7c2      	b.n	9a82 <__aeabi_fdiv+0x19a>
    9afc:	9b00      	ldr	r3, [sp, #0]
    9afe:	468b      	mov	fp, r1
    9b00:	469a      	mov	sl, r3
    9b02:	2400      	movs	r4, #0
    9b04:	e74c      	b.n	99a0 <__aeabi_fdiv+0xb8>
    9b06:	0263      	lsls	r3, r4, #9
    9b08:	d5e5      	bpl.n	9ad6 <__aeabi_fdiv+0x1ee>
    9b0a:	2500      	movs	r5, #0
    9b0c:	2480      	movs	r4, #128	; 0x80
    9b0e:	03e4      	lsls	r4, r4, #15
    9b10:	432c      	orrs	r4, r5
    9b12:	0264      	lsls	r4, r4, #9
    9b14:	0a64      	lsrs	r4, r4, #9
    9b16:	9b00      	ldr	r3, [sp, #0]
    9b18:	21ff      	movs	r1, #255	; 0xff
    9b1a:	e781      	b.n	9a20 <__aeabi_fdiv+0x138>
    9b1c:	9501      	str	r5, [sp, #4]
    9b1e:	e7c1      	b.n	9aa4 <__aeabi_fdiv+0x1bc>
    9b20:	0023      	movs	r3, r4
    9b22:	2020      	movs	r0, #32
    9b24:	40cb      	lsrs	r3, r1
    9b26:	1a41      	subs	r1, r0, r1
    9b28:	408c      	lsls	r4, r1
    9b2a:	1e61      	subs	r1, r4, #1
    9b2c:	418c      	sbcs	r4, r1
    9b2e:	431c      	orrs	r4, r3
    9b30:	0763      	lsls	r3, r4, #29
    9b32:	d004      	beq.n	9b3e <__aeabi_fdiv+0x256>
    9b34:	230f      	movs	r3, #15
    9b36:	4023      	ands	r3, r4
    9b38:	2b04      	cmp	r3, #4
    9b3a:	d000      	beq.n	9b3e <__aeabi_fdiv+0x256>
    9b3c:	3404      	adds	r4, #4
    9b3e:	0163      	lsls	r3, r4, #5
    9b40:	d505      	bpl.n	9b4e <__aeabi_fdiv+0x266>
    9b42:	2301      	movs	r3, #1
    9b44:	9a01      	ldr	r2, [sp, #4]
    9b46:	2101      	movs	r1, #1
    9b48:	4013      	ands	r3, r2
    9b4a:	2400      	movs	r4, #0
    9b4c:	e768      	b.n	9a20 <__aeabi_fdiv+0x138>
    9b4e:	2301      	movs	r3, #1
    9b50:	9a01      	ldr	r2, [sp, #4]
    9b52:	01a4      	lsls	r4, r4, #6
    9b54:	0a64      	lsrs	r4, r4, #9
    9b56:	4013      	ands	r3, r2
    9b58:	2100      	movs	r1, #0
    9b5a:	e761      	b.n	9a20 <__aeabi_fdiv+0x138>
    9b5c:	2380      	movs	r3, #128	; 0x80
    9b5e:	03db      	lsls	r3, r3, #15
    9b60:	431c      	orrs	r4, r3
    9b62:	0264      	lsls	r4, r4, #9
    9b64:	0a64      	lsrs	r4, r4, #9
    9b66:	4653      	mov	r3, sl
    9b68:	21ff      	movs	r1, #255	; 0xff
    9b6a:	e759      	b.n	9a20 <__aeabi_fdiv+0x138>
    9b6c:	0000c53c 	.word	0x0000c53c
    9b70:	0000c57c 	.word	0x0000c57c
    9b74:	f7ffffff 	.word	0xf7ffffff

00009b78 <__eqsf2>:
    9b78:	b570      	push	{r4, r5, r6, lr}
    9b7a:	0042      	lsls	r2, r0, #1
    9b7c:	0245      	lsls	r5, r0, #9
    9b7e:	024e      	lsls	r6, r1, #9
    9b80:	004c      	lsls	r4, r1, #1
    9b82:	0fc3      	lsrs	r3, r0, #31
    9b84:	0a6d      	lsrs	r5, r5, #9
    9b86:	0e12      	lsrs	r2, r2, #24
    9b88:	0a76      	lsrs	r6, r6, #9
    9b8a:	0e24      	lsrs	r4, r4, #24
    9b8c:	0fc9      	lsrs	r1, r1, #31
    9b8e:	2001      	movs	r0, #1
    9b90:	2aff      	cmp	r2, #255	; 0xff
    9b92:	d006      	beq.n	9ba2 <__eqsf2+0x2a>
    9b94:	2cff      	cmp	r4, #255	; 0xff
    9b96:	d003      	beq.n	9ba0 <__eqsf2+0x28>
    9b98:	42a2      	cmp	r2, r4
    9b9a:	d101      	bne.n	9ba0 <__eqsf2+0x28>
    9b9c:	42b5      	cmp	r5, r6
    9b9e:	d006      	beq.n	9bae <__eqsf2+0x36>
    9ba0:	bd70      	pop	{r4, r5, r6, pc}
    9ba2:	2d00      	cmp	r5, #0
    9ba4:	d1fc      	bne.n	9ba0 <__eqsf2+0x28>
    9ba6:	2cff      	cmp	r4, #255	; 0xff
    9ba8:	d1fa      	bne.n	9ba0 <__eqsf2+0x28>
    9baa:	2e00      	cmp	r6, #0
    9bac:	d1f8      	bne.n	9ba0 <__eqsf2+0x28>
    9bae:	428b      	cmp	r3, r1
    9bb0:	d006      	beq.n	9bc0 <__eqsf2+0x48>
    9bb2:	2001      	movs	r0, #1
    9bb4:	2a00      	cmp	r2, #0
    9bb6:	d1f3      	bne.n	9ba0 <__eqsf2+0x28>
    9bb8:	0028      	movs	r0, r5
    9bba:	1e45      	subs	r5, r0, #1
    9bbc:	41a8      	sbcs	r0, r5
    9bbe:	e7ef      	b.n	9ba0 <__eqsf2+0x28>
    9bc0:	2000      	movs	r0, #0
    9bc2:	e7ed      	b.n	9ba0 <__eqsf2+0x28>

00009bc4 <__gesf2>:
    9bc4:	b5f0      	push	{r4, r5, r6, r7, lr}
    9bc6:	0042      	lsls	r2, r0, #1
    9bc8:	0245      	lsls	r5, r0, #9
    9bca:	024c      	lsls	r4, r1, #9
    9bcc:	0fc3      	lsrs	r3, r0, #31
    9bce:	0048      	lsls	r0, r1, #1
    9bd0:	0a6d      	lsrs	r5, r5, #9
    9bd2:	0e12      	lsrs	r2, r2, #24
    9bd4:	0a64      	lsrs	r4, r4, #9
    9bd6:	0e00      	lsrs	r0, r0, #24
    9bd8:	0fc9      	lsrs	r1, r1, #31
    9bda:	2aff      	cmp	r2, #255	; 0xff
    9bdc:	d01e      	beq.n	9c1c <__gesf2+0x58>
    9bde:	28ff      	cmp	r0, #255	; 0xff
    9be0:	d021      	beq.n	9c26 <__gesf2+0x62>
    9be2:	2a00      	cmp	r2, #0
    9be4:	d10a      	bne.n	9bfc <__gesf2+0x38>
    9be6:	426e      	negs	r6, r5
    9be8:	416e      	adcs	r6, r5
    9bea:	b2f6      	uxtb	r6, r6
    9bec:	2800      	cmp	r0, #0
    9bee:	d10f      	bne.n	9c10 <__gesf2+0x4c>
    9bf0:	2c00      	cmp	r4, #0
    9bf2:	d10d      	bne.n	9c10 <__gesf2+0x4c>
    9bf4:	2000      	movs	r0, #0
    9bf6:	2d00      	cmp	r5, #0
    9bf8:	d009      	beq.n	9c0e <__gesf2+0x4a>
    9bfa:	e005      	b.n	9c08 <__gesf2+0x44>
    9bfc:	2800      	cmp	r0, #0
    9bfe:	d101      	bne.n	9c04 <__gesf2+0x40>
    9c00:	2c00      	cmp	r4, #0
    9c02:	d001      	beq.n	9c08 <__gesf2+0x44>
    9c04:	428b      	cmp	r3, r1
    9c06:	d011      	beq.n	9c2c <__gesf2+0x68>
    9c08:	2101      	movs	r1, #1
    9c0a:	4258      	negs	r0, r3
    9c0c:	4308      	orrs	r0, r1
    9c0e:	bdf0      	pop	{r4, r5, r6, r7, pc}
    9c10:	2e00      	cmp	r6, #0
    9c12:	d0f7      	beq.n	9c04 <__gesf2+0x40>
    9c14:	2001      	movs	r0, #1
    9c16:	3901      	subs	r1, #1
    9c18:	4308      	orrs	r0, r1
    9c1a:	e7f8      	b.n	9c0e <__gesf2+0x4a>
    9c1c:	2d00      	cmp	r5, #0
    9c1e:	d0de      	beq.n	9bde <__gesf2+0x1a>
    9c20:	2002      	movs	r0, #2
    9c22:	4240      	negs	r0, r0
    9c24:	e7f3      	b.n	9c0e <__gesf2+0x4a>
    9c26:	2c00      	cmp	r4, #0
    9c28:	d0db      	beq.n	9be2 <__gesf2+0x1e>
    9c2a:	e7f9      	b.n	9c20 <__gesf2+0x5c>
    9c2c:	4282      	cmp	r2, r0
    9c2e:	dceb      	bgt.n	9c08 <__gesf2+0x44>
    9c30:	db04      	blt.n	9c3c <__gesf2+0x78>
    9c32:	42a5      	cmp	r5, r4
    9c34:	d8e8      	bhi.n	9c08 <__gesf2+0x44>
    9c36:	2000      	movs	r0, #0
    9c38:	42a5      	cmp	r5, r4
    9c3a:	d2e8      	bcs.n	9c0e <__gesf2+0x4a>
    9c3c:	2101      	movs	r1, #1
    9c3e:	1e58      	subs	r0, r3, #1
    9c40:	4308      	orrs	r0, r1
    9c42:	e7e4      	b.n	9c0e <__gesf2+0x4a>

00009c44 <__lesf2>:
    9c44:	b5f0      	push	{r4, r5, r6, r7, lr}
    9c46:	0042      	lsls	r2, r0, #1
    9c48:	024d      	lsls	r5, r1, #9
    9c4a:	004c      	lsls	r4, r1, #1
    9c4c:	0246      	lsls	r6, r0, #9
    9c4e:	0a76      	lsrs	r6, r6, #9
    9c50:	0e12      	lsrs	r2, r2, #24
    9c52:	0fc3      	lsrs	r3, r0, #31
    9c54:	0a6d      	lsrs	r5, r5, #9
    9c56:	0e24      	lsrs	r4, r4, #24
    9c58:	0fc9      	lsrs	r1, r1, #31
    9c5a:	2aff      	cmp	r2, #255	; 0xff
    9c5c:	d016      	beq.n	9c8c <__lesf2+0x48>
    9c5e:	2cff      	cmp	r4, #255	; 0xff
    9c60:	d018      	beq.n	9c94 <__lesf2+0x50>
    9c62:	2a00      	cmp	r2, #0
    9c64:	d10a      	bne.n	9c7c <__lesf2+0x38>
    9c66:	4270      	negs	r0, r6
    9c68:	4170      	adcs	r0, r6
    9c6a:	b2c0      	uxtb	r0, r0
    9c6c:	2c00      	cmp	r4, #0
    9c6e:	d015      	beq.n	9c9c <__lesf2+0x58>
    9c70:	2800      	cmp	r0, #0
    9c72:	d005      	beq.n	9c80 <__lesf2+0x3c>
    9c74:	2001      	movs	r0, #1
    9c76:	3901      	subs	r1, #1
    9c78:	4308      	orrs	r0, r1
    9c7a:	bdf0      	pop	{r4, r5, r6, r7, pc}
    9c7c:	2c00      	cmp	r4, #0
    9c7e:	d013      	beq.n	9ca8 <__lesf2+0x64>
    9c80:	4299      	cmp	r1, r3
    9c82:	d014      	beq.n	9cae <__lesf2+0x6a>
    9c84:	2001      	movs	r0, #1
    9c86:	425b      	negs	r3, r3
    9c88:	4318      	orrs	r0, r3
    9c8a:	e7f6      	b.n	9c7a <__lesf2+0x36>
    9c8c:	2002      	movs	r0, #2
    9c8e:	2e00      	cmp	r6, #0
    9c90:	d1f3      	bne.n	9c7a <__lesf2+0x36>
    9c92:	e7e4      	b.n	9c5e <__lesf2+0x1a>
    9c94:	2002      	movs	r0, #2
    9c96:	2d00      	cmp	r5, #0
    9c98:	d1ef      	bne.n	9c7a <__lesf2+0x36>
    9c9a:	e7e2      	b.n	9c62 <__lesf2+0x1e>
    9c9c:	2d00      	cmp	r5, #0
    9c9e:	d1e7      	bne.n	9c70 <__lesf2+0x2c>
    9ca0:	2000      	movs	r0, #0
    9ca2:	2e00      	cmp	r6, #0
    9ca4:	d0e9      	beq.n	9c7a <__lesf2+0x36>
    9ca6:	e7ed      	b.n	9c84 <__lesf2+0x40>
    9ca8:	2d00      	cmp	r5, #0
    9caa:	d1e9      	bne.n	9c80 <__lesf2+0x3c>
    9cac:	e7ea      	b.n	9c84 <__lesf2+0x40>
    9cae:	42a2      	cmp	r2, r4
    9cb0:	dc06      	bgt.n	9cc0 <__lesf2+0x7c>
    9cb2:	dbdf      	blt.n	9c74 <__lesf2+0x30>
    9cb4:	42ae      	cmp	r6, r5
    9cb6:	d803      	bhi.n	9cc0 <__lesf2+0x7c>
    9cb8:	2000      	movs	r0, #0
    9cba:	42ae      	cmp	r6, r5
    9cbc:	d3da      	bcc.n	9c74 <__lesf2+0x30>
    9cbe:	e7dc      	b.n	9c7a <__lesf2+0x36>
    9cc0:	2001      	movs	r0, #1
    9cc2:	4249      	negs	r1, r1
    9cc4:	4308      	orrs	r0, r1
    9cc6:	e7d8      	b.n	9c7a <__lesf2+0x36>

00009cc8 <__aeabi_fmul>:
    9cc8:	b5f8      	push	{r3, r4, r5, r6, r7, lr}
    9cca:	4657      	mov	r7, sl
    9ccc:	464e      	mov	r6, r9
    9cce:	4645      	mov	r5, r8
    9cd0:	46de      	mov	lr, fp
    9cd2:	b5e0      	push	{r5, r6, r7, lr}
    9cd4:	0247      	lsls	r7, r0, #9
    9cd6:	0046      	lsls	r6, r0, #1
    9cd8:	4688      	mov	r8, r1
    9cda:	0a7f      	lsrs	r7, r7, #9
    9cdc:	0e36      	lsrs	r6, r6, #24
    9cde:	0fc4      	lsrs	r4, r0, #31
    9ce0:	2e00      	cmp	r6, #0
    9ce2:	d047      	beq.n	9d74 <__aeabi_fmul+0xac>
    9ce4:	2eff      	cmp	r6, #255	; 0xff
    9ce6:	d024      	beq.n	9d32 <__aeabi_fmul+0x6a>
    9ce8:	00fb      	lsls	r3, r7, #3
    9cea:	2780      	movs	r7, #128	; 0x80
    9cec:	04ff      	lsls	r7, r7, #19
    9cee:	431f      	orrs	r7, r3
    9cf0:	2300      	movs	r3, #0
    9cf2:	4699      	mov	r9, r3
    9cf4:	469a      	mov	sl, r3
    9cf6:	3e7f      	subs	r6, #127	; 0x7f
    9cf8:	4643      	mov	r3, r8
    9cfa:	025d      	lsls	r5, r3, #9
    9cfc:	0058      	lsls	r0, r3, #1
    9cfe:	0fdb      	lsrs	r3, r3, #31
    9d00:	0a6d      	lsrs	r5, r5, #9
    9d02:	0e00      	lsrs	r0, r0, #24
    9d04:	4698      	mov	r8, r3
    9d06:	d043      	beq.n	9d90 <__aeabi_fmul+0xc8>
    9d08:	28ff      	cmp	r0, #255	; 0xff
    9d0a:	d03b      	beq.n	9d84 <__aeabi_fmul+0xbc>
    9d0c:	00eb      	lsls	r3, r5, #3
    9d0e:	2580      	movs	r5, #128	; 0x80
    9d10:	2200      	movs	r2, #0
    9d12:	04ed      	lsls	r5, r5, #19
    9d14:	431d      	orrs	r5, r3
    9d16:	387f      	subs	r0, #127	; 0x7f
    9d18:	1836      	adds	r6, r6, r0
    9d1a:	1c73      	adds	r3, r6, #1
    9d1c:	4641      	mov	r1, r8
    9d1e:	469b      	mov	fp, r3
    9d20:	464b      	mov	r3, r9
    9d22:	4061      	eors	r1, r4
    9d24:	4313      	orrs	r3, r2
    9d26:	2b0f      	cmp	r3, #15
    9d28:	d864      	bhi.n	9df4 <__aeabi_fmul+0x12c>
    9d2a:	4875      	ldr	r0, [pc, #468]	; (9f00 <__aeabi_fmul+0x238>)
    9d2c:	009b      	lsls	r3, r3, #2
    9d2e:	58c3      	ldr	r3, [r0, r3]
    9d30:	469f      	mov	pc, r3
    9d32:	2f00      	cmp	r7, #0
    9d34:	d142      	bne.n	9dbc <__aeabi_fmul+0xf4>
    9d36:	2308      	movs	r3, #8
    9d38:	4699      	mov	r9, r3
    9d3a:	3b06      	subs	r3, #6
    9d3c:	26ff      	movs	r6, #255	; 0xff
    9d3e:	469a      	mov	sl, r3
    9d40:	e7da      	b.n	9cf8 <__aeabi_fmul+0x30>
    9d42:	4641      	mov	r1, r8
    9d44:	2a02      	cmp	r2, #2
    9d46:	d028      	beq.n	9d9a <__aeabi_fmul+0xd2>
    9d48:	2a03      	cmp	r2, #3
    9d4a:	d100      	bne.n	9d4e <__aeabi_fmul+0x86>
    9d4c:	e0ce      	b.n	9eec <__aeabi_fmul+0x224>
    9d4e:	2a01      	cmp	r2, #1
    9d50:	d000      	beq.n	9d54 <__aeabi_fmul+0x8c>
    9d52:	e0ac      	b.n	9eae <__aeabi_fmul+0x1e6>
    9d54:	4011      	ands	r1, r2
    9d56:	2000      	movs	r0, #0
    9d58:	2200      	movs	r2, #0
    9d5a:	b2cc      	uxtb	r4, r1
    9d5c:	0240      	lsls	r0, r0, #9
    9d5e:	05d2      	lsls	r2, r2, #23
    9d60:	0a40      	lsrs	r0, r0, #9
    9d62:	07e4      	lsls	r4, r4, #31
    9d64:	4310      	orrs	r0, r2
    9d66:	4320      	orrs	r0, r4
    9d68:	bc3c      	pop	{r2, r3, r4, r5}
    9d6a:	4690      	mov	r8, r2
    9d6c:	4699      	mov	r9, r3
    9d6e:	46a2      	mov	sl, r4
    9d70:	46ab      	mov	fp, r5
    9d72:	bdf8      	pop	{r3, r4, r5, r6, r7, pc}
    9d74:	2f00      	cmp	r7, #0
    9d76:	d115      	bne.n	9da4 <__aeabi_fmul+0xdc>
    9d78:	2304      	movs	r3, #4
    9d7a:	4699      	mov	r9, r3
    9d7c:	3b03      	subs	r3, #3
    9d7e:	2600      	movs	r6, #0
    9d80:	469a      	mov	sl, r3
    9d82:	e7b9      	b.n	9cf8 <__aeabi_fmul+0x30>
    9d84:	20ff      	movs	r0, #255	; 0xff
    9d86:	2202      	movs	r2, #2
    9d88:	2d00      	cmp	r5, #0
    9d8a:	d0c5      	beq.n	9d18 <__aeabi_fmul+0x50>
    9d8c:	2203      	movs	r2, #3
    9d8e:	e7c3      	b.n	9d18 <__aeabi_fmul+0x50>
    9d90:	2d00      	cmp	r5, #0
    9d92:	d119      	bne.n	9dc8 <__aeabi_fmul+0x100>
    9d94:	2000      	movs	r0, #0
    9d96:	2201      	movs	r2, #1
    9d98:	e7be      	b.n	9d18 <__aeabi_fmul+0x50>
    9d9a:	2401      	movs	r4, #1
    9d9c:	22ff      	movs	r2, #255	; 0xff
    9d9e:	400c      	ands	r4, r1
    9da0:	2000      	movs	r0, #0
    9da2:	e7db      	b.n	9d5c <__aeabi_fmul+0x94>
    9da4:	0038      	movs	r0, r7
    9da6:	f7ff fa89 	bl	92bc <__clzsi2>
    9daa:	2676      	movs	r6, #118	; 0x76
    9dac:	1f43      	subs	r3, r0, #5
    9dae:	409f      	lsls	r7, r3
    9db0:	2300      	movs	r3, #0
    9db2:	4276      	negs	r6, r6
    9db4:	1a36      	subs	r6, r6, r0
    9db6:	4699      	mov	r9, r3
    9db8:	469a      	mov	sl, r3
    9dba:	e79d      	b.n	9cf8 <__aeabi_fmul+0x30>
    9dbc:	230c      	movs	r3, #12
    9dbe:	4699      	mov	r9, r3
    9dc0:	3b09      	subs	r3, #9
    9dc2:	26ff      	movs	r6, #255	; 0xff
    9dc4:	469a      	mov	sl, r3
    9dc6:	e797      	b.n	9cf8 <__aeabi_fmul+0x30>
    9dc8:	0028      	movs	r0, r5
    9dca:	f7ff fa77 	bl	92bc <__clzsi2>
    9dce:	1f43      	subs	r3, r0, #5
    9dd0:	409d      	lsls	r5, r3
    9dd2:	2376      	movs	r3, #118	; 0x76
    9dd4:	425b      	negs	r3, r3
    9dd6:	1a18      	subs	r0, r3, r0
    9dd8:	2200      	movs	r2, #0
    9dda:	e79d      	b.n	9d18 <__aeabi_fmul+0x50>
    9ddc:	2080      	movs	r0, #128	; 0x80
    9dde:	2400      	movs	r4, #0
    9de0:	03c0      	lsls	r0, r0, #15
    9de2:	22ff      	movs	r2, #255	; 0xff
    9de4:	e7ba      	b.n	9d5c <__aeabi_fmul+0x94>
    9de6:	003d      	movs	r5, r7
    9de8:	4652      	mov	r2, sl
    9dea:	e7ab      	b.n	9d44 <__aeabi_fmul+0x7c>
    9dec:	003d      	movs	r5, r7
    9dee:	0021      	movs	r1, r4
    9df0:	4652      	mov	r2, sl
    9df2:	e7a7      	b.n	9d44 <__aeabi_fmul+0x7c>
    9df4:	0c3b      	lsrs	r3, r7, #16
    9df6:	469c      	mov	ip, r3
    9df8:	042a      	lsls	r2, r5, #16
    9dfa:	0c12      	lsrs	r2, r2, #16
    9dfc:	0c2b      	lsrs	r3, r5, #16
    9dfe:	0014      	movs	r4, r2
    9e00:	4660      	mov	r0, ip
    9e02:	4665      	mov	r5, ip
    9e04:	043f      	lsls	r7, r7, #16
    9e06:	0c3f      	lsrs	r7, r7, #16
    9e08:	437c      	muls	r4, r7
    9e0a:	4342      	muls	r2, r0
    9e0c:	435d      	muls	r5, r3
    9e0e:	437b      	muls	r3, r7
    9e10:	0c27      	lsrs	r7, r4, #16
    9e12:	189b      	adds	r3, r3, r2
    9e14:	18ff      	adds	r7, r7, r3
    9e16:	42ba      	cmp	r2, r7
    9e18:	d903      	bls.n	9e22 <__aeabi_fmul+0x15a>
    9e1a:	2380      	movs	r3, #128	; 0x80
    9e1c:	025b      	lsls	r3, r3, #9
    9e1e:	469c      	mov	ip, r3
    9e20:	4465      	add	r5, ip
    9e22:	0424      	lsls	r4, r4, #16
    9e24:	043a      	lsls	r2, r7, #16
    9e26:	0c24      	lsrs	r4, r4, #16
    9e28:	1912      	adds	r2, r2, r4
    9e2a:	0193      	lsls	r3, r2, #6
    9e2c:	1e5c      	subs	r4, r3, #1
    9e2e:	41a3      	sbcs	r3, r4
    9e30:	0c3f      	lsrs	r7, r7, #16
    9e32:	0e92      	lsrs	r2, r2, #26
    9e34:	197d      	adds	r5, r7, r5
    9e36:	431a      	orrs	r2, r3
    9e38:	01ad      	lsls	r5, r5, #6
    9e3a:	4315      	orrs	r5, r2
    9e3c:	012b      	lsls	r3, r5, #4
    9e3e:	d504      	bpl.n	9e4a <__aeabi_fmul+0x182>
    9e40:	2301      	movs	r3, #1
    9e42:	465e      	mov	r6, fp
    9e44:	086a      	lsrs	r2, r5, #1
    9e46:	401d      	ands	r5, r3
    9e48:	4315      	orrs	r5, r2
    9e4a:	0032      	movs	r2, r6
    9e4c:	327f      	adds	r2, #127	; 0x7f
    9e4e:	2a00      	cmp	r2, #0
    9e50:	dd25      	ble.n	9e9e <__aeabi_fmul+0x1d6>
    9e52:	076b      	lsls	r3, r5, #29
    9e54:	d004      	beq.n	9e60 <__aeabi_fmul+0x198>
    9e56:	230f      	movs	r3, #15
    9e58:	402b      	ands	r3, r5
    9e5a:	2b04      	cmp	r3, #4
    9e5c:	d000      	beq.n	9e60 <__aeabi_fmul+0x198>
    9e5e:	3504      	adds	r5, #4
    9e60:	012b      	lsls	r3, r5, #4
    9e62:	d503      	bpl.n	9e6c <__aeabi_fmul+0x1a4>
    9e64:	0032      	movs	r2, r6
    9e66:	4b27      	ldr	r3, [pc, #156]	; (9f04 <__aeabi_fmul+0x23c>)
    9e68:	3280      	adds	r2, #128	; 0x80
    9e6a:	401d      	ands	r5, r3
    9e6c:	2afe      	cmp	r2, #254	; 0xfe
    9e6e:	dc94      	bgt.n	9d9a <__aeabi_fmul+0xd2>
    9e70:	2401      	movs	r4, #1
    9e72:	01a8      	lsls	r0, r5, #6
    9e74:	0a40      	lsrs	r0, r0, #9
    9e76:	b2d2      	uxtb	r2, r2
    9e78:	400c      	ands	r4, r1
    9e7a:	e76f      	b.n	9d5c <__aeabi_fmul+0x94>
    9e7c:	2080      	movs	r0, #128	; 0x80
    9e7e:	03c0      	lsls	r0, r0, #15
    9e80:	4207      	tst	r7, r0
    9e82:	d007      	beq.n	9e94 <__aeabi_fmul+0x1cc>
    9e84:	4205      	tst	r5, r0
    9e86:	d105      	bne.n	9e94 <__aeabi_fmul+0x1cc>
    9e88:	4328      	orrs	r0, r5
    9e8a:	0240      	lsls	r0, r0, #9
    9e8c:	0a40      	lsrs	r0, r0, #9
    9e8e:	4644      	mov	r4, r8
    9e90:	22ff      	movs	r2, #255	; 0xff
    9e92:	e763      	b.n	9d5c <__aeabi_fmul+0x94>
    9e94:	4338      	orrs	r0, r7
    9e96:	0240      	lsls	r0, r0, #9
    9e98:	0a40      	lsrs	r0, r0, #9
    9e9a:	22ff      	movs	r2, #255	; 0xff
    9e9c:	e75e      	b.n	9d5c <__aeabi_fmul+0x94>
    9e9e:	2401      	movs	r4, #1
    9ea0:	1aa3      	subs	r3, r4, r2
    9ea2:	2b1b      	cmp	r3, #27
    9ea4:	dd05      	ble.n	9eb2 <__aeabi_fmul+0x1ea>
    9ea6:	400c      	ands	r4, r1
    9ea8:	2200      	movs	r2, #0
    9eaa:	2000      	movs	r0, #0
    9eac:	e756      	b.n	9d5c <__aeabi_fmul+0x94>
    9eae:	465e      	mov	r6, fp
    9eb0:	e7cb      	b.n	9e4a <__aeabi_fmul+0x182>
    9eb2:	002a      	movs	r2, r5
    9eb4:	2020      	movs	r0, #32
    9eb6:	40da      	lsrs	r2, r3
    9eb8:	1ac3      	subs	r3, r0, r3
    9eba:	409d      	lsls	r5, r3
    9ebc:	002b      	movs	r3, r5
    9ebe:	1e5d      	subs	r5, r3, #1
    9ec0:	41ab      	sbcs	r3, r5
    9ec2:	4313      	orrs	r3, r2
    9ec4:	075a      	lsls	r2, r3, #29
    9ec6:	d004      	beq.n	9ed2 <__aeabi_fmul+0x20a>
    9ec8:	220f      	movs	r2, #15
    9eca:	401a      	ands	r2, r3
    9ecc:	2a04      	cmp	r2, #4
    9ece:	d000      	beq.n	9ed2 <__aeabi_fmul+0x20a>
    9ed0:	3304      	adds	r3, #4
    9ed2:	015a      	lsls	r2, r3, #5
    9ed4:	d504      	bpl.n	9ee0 <__aeabi_fmul+0x218>
    9ed6:	2401      	movs	r4, #1
    9ed8:	2201      	movs	r2, #1
    9eda:	400c      	ands	r4, r1
    9edc:	2000      	movs	r0, #0
    9ede:	e73d      	b.n	9d5c <__aeabi_fmul+0x94>
    9ee0:	2401      	movs	r4, #1
    9ee2:	019b      	lsls	r3, r3, #6
    9ee4:	0a58      	lsrs	r0, r3, #9
    9ee6:	400c      	ands	r4, r1
    9ee8:	2200      	movs	r2, #0
    9eea:	e737      	b.n	9d5c <__aeabi_fmul+0x94>
    9eec:	2080      	movs	r0, #128	; 0x80
    9eee:	2401      	movs	r4, #1
    9ef0:	03c0      	lsls	r0, r0, #15
    9ef2:	4328      	orrs	r0, r5
    9ef4:	0240      	lsls	r0, r0, #9
    9ef6:	0a40      	lsrs	r0, r0, #9
    9ef8:	400c      	ands	r4, r1
    9efa:	22ff      	movs	r2, #255	; 0xff
    9efc:	e72e      	b.n	9d5c <__aeabi_fmul+0x94>
    9efe:	46c0      	nop			; (mov r8, r8)
    9f00:	0000c5bc 	.word	0x0000c5bc
    9f04:	f7ffffff 	.word	0xf7ffffff

00009f08 <__aeabi_fsub>:
    9f08:	b5f0      	push	{r4, r5, r6, r7, lr}
    9f0a:	464f      	mov	r7, r9
    9f0c:	46d6      	mov	lr, sl
    9f0e:	4646      	mov	r6, r8
    9f10:	0044      	lsls	r4, r0, #1
    9f12:	b5c0      	push	{r6, r7, lr}
    9f14:	0fc2      	lsrs	r2, r0, #31
    9f16:	0247      	lsls	r7, r0, #9
    9f18:	0248      	lsls	r0, r1, #9
    9f1a:	0a40      	lsrs	r0, r0, #9
    9f1c:	4684      	mov	ip, r0
    9f1e:	4666      	mov	r6, ip
    9f20:	0a7b      	lsrs	r3, r7, #9
    9f22:	0048      	lsls	r0, r1, #1
    9f24:	0fc9      	lsrs	r1, r1, #31
    9f26:	469a      	mov	sl, r3
    9f28:	0e24      	lsrs	r4, r4, #24
    9f2a:	0015      	movs	r5, r2
    9f2c:	00db      	lsls	r3, r3, #3
    9f2e:	0e00      	lsrs	r0, r0, #24
    9f30:	4689      	mov	r9, r1
    9f32:	00f6      	lsls	r6, r6, #3
    9f34:	28ff      	cmp	r0, #255	; 0xff
    9f36:	d100      	bne.n	9f3a <__aeabi_fsub+0x32>
    9f38:	e08f      	b.n	a05a <__aeabi_fsub+0x152>
    9f3a:	2101      	movs	r1, #1
    9f3c:	464f      	mov	r7, r9
    9f3e:	404f      	eors	r7, r1
    9f40:	0039      	movs	r1, r7
    9f42:	4291      	cmp	r1, r2
    9f44:	d066      	beq.n	a014 <__aeabi_fsub+0x10c>
    9f46:	1a22      	subs	r2, r4, r0
    9f48:	2a00      	cmp	r2, #0
    9f4a:	dc00      	bgt.n	9f4e <__aeabi_fsub+0x46>
    9f4c:	e09d      	b.n	a08a <__aeabi_fsub+0x182>
    9f4e:	2800      	cmp	r0, #0
    9f50:	d13d      	bne.n	9fce <__aeabi_fsub+0xc6>
    9f52:	2e00      	cmp	r6, #0
    9f54:	d100      	bne.n	9f58 <__aeabi_fsub+0x50>
    9f56:	e08b      	b.n	a070 <__aeabi_fsub+0x168>
    9f58:	1e51      	subs	r1, r2, #1
    9f5a:	2900      	cmp	r1, #0
    9f5c:	d000      	beq.n	9f60 <__aeabi_fsub+0x58>
    9f5e:	e0b5      	b.n	a0cc <__aeabi_fsub+0x1c4>
    9f60:	2401      	movs	r4, #1
    9f62:	1b9b      	subs	r3, r3, r6
    9f64:	015a      	lsls	r2, r3, #5
    9f66:	d544      	bpl.n	9ff2 <__aeabi_fsub+0xea>
    9f68:	019b      	lsls	r3, r3, #6
    9f6a:	099f      	lsrs	r7, r3, #6
    9f6c:	0038      	movs	r0, r7
    9f6e:	f7ff f9a5 	bl	92bc <__clzsi2>
    9f72:	3805      	subs	r0, #5
    9f74:	4087      	lsls	r7, r0
    9f76:	4284      	cmp	r4, r0
    9f78:	dd00      	ble.n	9f7c <__aeabi_fsub+0x74>
    9f7a:	e096      	b.n	a0aa <__aeabi_fsub+0x1a2>
    9f7c:	1b04      	subs	r4, r0, r4
    9f7e:	003a      	movs	r2, r7
    9f80:	2020      	movs	r0, #32
    9f82:	3401      	adds	r4, #1
    9f84:	40e2      	lsrs	r2, r4
    9f86:	1b04      	subs	r4, r0, r4
    9f88:	40a7      	lsls	r7, r4
    9f8a:	003b      	movs	r3, r7
    9f8c:	1e5f      	subs	r7, r3, #1
    9f8e:	41bb      	sbcs	r3, r7
    9f90:	2400      	movs	r4, #0
    9f92:	4313      	orrs	r3, r2
    9f94:	075a      	lsls	r2, r3, #29
    9f96:	d004      	beq.n	9fa2 <__aeabi_fsub+0x9a>
    9f98:	220f      	movs	r2, #15
    9f9a:	401a      	ands	r2, r3
    9f9c:	2a04      	cmp	r2, #4
    9f9e:	d000      	beq.n	9fa2 <__aeabi_fsub+0x9a>
    9fa0:	3304      	adds	r3, #4
    9fa2:	015a      	lsls	r2, r3, #5
    9fa4:	d527      	bpl.n	9ff6 <__aeabi_fsub+0xee>
    9fa6:	3401      	adds	r4, #1
    9fa8:	2cff      	cmp	r4, #255	; 0xff
    9faa:	d100      	bne.n	9fae <__aeabi_fsub+0xa6>
    9fac:	e079      	b.n	a0a2 <__aeabi_fsub+0x19a>
    9fae:	2201      	movs	r2, #1
    9fb0:	019b      	lsls	r3, r3, #6
    9fb2:	0a5b      	lsrs	r3, r3, #9
    9fb4:	b2e4      	uxtb	r4, r4
    9fb6:	402a      	ands	r2, r5
    9fb8:	025b      	lsls	r3, r3, #9
    9fba:	05e4      	lsls	r4, r4, #23
    9fbc:	0a58      	lsrs	r0, r3, #9
    9fbe:	07d2      	lsls	r2, r2, #31
    9fc0:	4320      	orrs	r0, r4
    9fc2:	4310      	orrs	r0, r2
    9fc4:	bc1c      	pop	{r2, r3, r4}
    9fc6:	4690      	mov	r8, r2
    9fc8:	4699      	mov	r9, r3
    9fca:	46a2      	mov	sl, r4
    9fcc:	bdf0      	pop	{r4, r5, r6, r7, pc}
    9fce:	2cff      	cmp	r4, #255	; 0xff
    9fd0:	d0e0      	beq.n	9f94 <__aeabi_fsub+0x8c>
    9fd2:	2180      	movs	r1, #128	; 0x80
    9fd4:	04c9      	lsls	r1, r1, #19
    9fd6:	430e      	orrs	r6, r1
    9fd8:	2a1b      	cmp	r2, #27
    9fda:	dc7b      	bgt.n	a0d4 <__aeabi_fsub+0x1cc>
    9fdc:	0031      	movs	r1, r6
    9fde:	2020      	movs	r0, #32
    9fe0:	40d1      	lsrs	r1, r2
    9fe2:	1a82      	subs	r2, r0, r2
    9fe4:	4096      	lsls	r6, r2
    9fe6:	1e72      	subs	r2, r6, #1
    9fe8:	4196      	sbcs	r6, r2
    9fea:	430e      	orrs	r6, r1
    9fec:	1b9b      	subs	r3, r3, r6
    9fee:	015a      	lsls	r2, r3, #5
    9ff0:	d4ba      	bmi.n	9f68 <__aeabi_fsub+0x60>
    9ff2:	075a      	lsls	r2, r3, #29
    9ff4:	d1d0      	bne.n	9f98 <__aeabi_fsub+0x90>
    9ff6:	2201      	movs	r2, #1
    9ff8:	08df      	lsrs	r7, r3, #3
    9ffa:	402a      	ands	r2, r5
    9ffc:	2cff      	cmp	r4, #255	; 0xff
    9ffe:	d133      	bne.n	a068 <__aeabi_fsub+0x160>
    a000:	2f00      	cmp	r7, #0
    a002:	d100      	bne.n	a006 <__aeabi_fsub+0xfe>
    a004:	e0a8      	b.n	a158 <__aeabi_fsub+0x250>
    a006:	2380      	movs	r3, #128	; 0x80
    a008:	03db      	lsls	r3, r3, #15
    a00a:	433b      	orrs	r3, r7
    a00c:	025b      	lsls	r3, r3, #9
    a00e:	0a5b      	lsrs	r3, r3, #9
    a010:	24ff      	movs	r4, #255	; 0xff
    a012:	e7d1      	b.n	9fb8 <__aeabi_fsub+0xb0>
    a014:	1a21      	subs	r1, r4, r0
    a016:	2900      	cmp	r1, #0
    a018:	dd4c      	ble.n	a0b4 <__aeabi_fsub+0x1ac>
    a01a:	2800      	cmp	r0, #0
    a01c:	d02a      	beq.n	a074 <__aeabi_fsub+0x16c>
    a01e:	2cff      	cmp	r4, #255	; 0xff
    a020:	d0b8      	beq.n	9f94 <__aeabi_fsub+0x8c>
    a022:	2080      	movs	r0, #128	; 0x80
    a024:	04c0      	lsls	r0, r0, #19
    a026:	4306      	orrs	r6, r0
    a028:	291b      	cmp	r1, #27
    a02a:	dd00      	ble.n	a02e <__aeabi_fsub+0x126>
    a02c:	e0af      	b.n	a18e <__aeabi_fsub+0x286>
    a02e:	0030      	movs	r0, r6
    a030:	2720      	movs	r7, #32
    a032:	40c8      	lsrs	r0, r1
    a034:	1a79      	subs	r1, r7, r1
    a036:	408e      	lsls	r6, r1
    a038:	1e71      	subs	r1, r6, #1
    a03a:	418e      	sbcs	r6, r1
    a03c:	4306      	orrs	r6, r0
    a03e:	199b      	adds	r3, r3, r6
    a040:	0159      	lsls	r1, r3, #5
    a042:	d5d6      	bpl.n	9ff2 <__aeabi_fsub+0xea>
    a044:	3401      	adds	r4, #1
    a046:	2cff      	cmp	r4, #255	; 0xff
    a048:	d100      	bne.n	a04c <__aeabi_fsub+0x144>
    a04a:	e085      	b.n	a158 <__aeabi_fsub+0x250>
    a04c:	2201      	movs	r2, #1
    a04e:	497a      	ldr	r1, [pc, #488]	; (a238 <__aeabi_fsub+0x330>)
    a050:	401a      	ands	r2, r3
    a052:	085b      	lsrs	r3, r3, #1
    a054:	400b      	ands	r3, r1
    a056:	4313      	orrs	r3, r2
    a058:	e79c      	b.n	9f94 <__aeabi_fsub+0x8c>
    a05a:	2e00      	cmp	r6, #0
    a05c:	d000      	beq.n	a060 <__aeabi_fsub+0x158>
    a05e:	e770      	b.n	9f42 <__aeabi_fsub+0x3a>
    a060:	e76b      	b.n	9f3a <__aeabi_fsub+0x32>
    a062:	1e3b      	subs	r3, r7, #0
    a064:	d1c5      	bne.n	9ff2 <__aeabi_fsub+0xea>
    a066:	2200      	movs	r2, #0
    a068:	027b      	lsls	r3, r7, #9
    a06a:	0a5b      	lsrs	r3, r3, #9
    a06c:	b2e4      	uxtb	r4, r4
    a06e:	e7a3      	b.n	9fb8 <__aeabi_fsub+0xb0>
    a070:	0014      	movs	r4, r2
    a072:	e78f      	b.n	9f94 <__aeabi_fsub+0x8c>
    a074:	2e00      	cmp	r6, #0
    a076:	d04d      	beq.n	a114 <__aeabi_fsub+0x20c>
    a078:	1e48      	subs	r0, r1, #1
    a07a:	2800      	cmp	r0, #0
    a07c:	d157      	bne.n	a12e <__aeabi_fsub+0x226>
    a07e:	199b      	adds	r3, r3, r6
    a080:	2401      	movs	r4, #1
    a082:	015a      	lsls	r2, r3, #5
    a084:	d5b5      	bpl.n	9ff2 <__aeabi_fsub+0xea>
    a086:	2402      	movs	r4, #2
    a088:	e7e0      	b.n	a04c <__aeabi_fsub+0x144>
    a08a:	2a00      	cmp	r2, #0
    a08c:	d125      	bne.n	a0da <__aeabi_fsub+0x1d2>
    a08e:	1c62      	adds	r2, r4, #1
    a090:	b2d2      	uxtb	r2, r2
    a092:	2a01      	cmp	r2, #1
    a094:	dd72      	ble.n	a17c <__aeabi_fsub+0x274>
    a096:	1b9f      	subs	r7, r3, r6
    a098:	017a      	lsls	r2, r7, #5
    a09a:	d535      	bpl.n	a108 <__aeabi_fsub+0x200>
    a09c:	1af7      	subs	r7, r6, r3
    a09e:	000d      	movs	r5, r1
    a0a0:	e764      	b.n	9f6c <__aeabi_fsub+0x64>
    a0a2:	2201      	movs	r2, #1
    a0a4:	2300      	movs	r3, #0
    a0a6:	402a      	ands	r2, r5
    a0a8:	e786      	b.n	9fb8 <__aeabi_fsub+0xb0>
    a0aa:	003b      	movs	r3, r7
    a0ac:	4a63      	ldr	r2, [pc, #396]	; (a23c <__aeabi_fsub+0x334>)
    a0ae:	1a24      	subs	r4, r4, r0
    a0b0:	4013      	ands	r3, r2
    a0b2:	e76f      	b.n	9f94 <__aeabi_fsub+0x8c>
    a0b4:	2900      	cmp	r1, #0
    a0b6:	d16c      	bne.n	a192 <__aeabi_fsub+0x28a>
    a0b8:	1c61      	adds	r1, r4, #1
    a0ba:	b2c8      	uxtb	r0, r1
    a0bc:	2801      	cmp	r0, #1
    a0be:	dd4e      	ble.n	a15e <__aeabi_fsub+0x256>
    a0c0:	29ff      	cmp	r1, #255	; 0xff
    a0c2:	d049      	beq.n	a158 <__aeabi_fsub+0x250>
    a0c4:	199b      	adds	r3, r3, r6
    a0c6:	085b      	lsrs	r3, r3, #1
    a0c8:	000c      	movs	r4, r1
    a0ca:	e763      	b.n	9f94 <__aeabi_fsub+0x8c>
    a0cc:	2aff      	cmp	r2, #255	; 0xff
    a0ce:	d041      	beq.n	a154 <__aeabi_fsub+0x24c>
    a0d0:	000a      	movs	r2, r1
    a0d2:	e781      	b.n	9fd8 <__aeabi_fsub+0xd0>
    a0d4:	2601      	movs	r6, #1
    a0d6:	1b9b      	subs	r3, r3, r6
    a0d8:	e789      	b.n	9fee <__aeabi_fsub+0xe6>
    a0da:	2c00      	cmp	r4, #0
    a0dc:	d01c      	beq.n	a118 <__aeabi_fsub+0x210>
    a0de:	28ff      	cmp	r0, #255	; 0xff
    a0e0:	d021      	beq.n	a126 <__aeabi_fsub+0x21e>
    a0e2:	2480      	movs	r4, #128	; 0x80
    a0e4:	04e4      	lsls	r4, r4, #19
    a0e6:	4252      	negs	r2, r2
    a0e8:	4323      	orrs	r3, r4
    a0ea:	2a1b      	cmp	r2, #27
    a0ec:	dd00      	ble.n	a0f0 <__aeabi_fsub+0x1e8>
    a0ee:	e096      	b.n	a21e <__aeabi_fsub+0x316>
    a0f0:	001c      	movs	r4, r3
    a0f2:	2520      	movs	r5, #32
    a0f4:	40d4      	lsrs	r4, r2
    a0f6:	1aaa      	subs	r2, r5, r2
    a0f8:	4093      	lsls	r3, r2
    a0fa:	1e5a      	subs	r2, r3, #1
    a0fc:	4193      	sbcs	r3, r2
    a0fe:	4323      	orrs	r3, r4
    a100:	1af3      	subs	r3, r6, r3
    a102:	0004      	movs	r4, r0
    a104:	000d      	movs	r5, r1
    a106:	e72d      	b.n	9f64 <__aeabi_fsub+0x5c>
    a108:	2f00      	cmp	r7, #0
    a10a:	d000      	beq.n	a10e <__aeabi_fsub+0x206>
    a10c:	e72e      	b.n	9f6c <__aeabi_fsub+0x64>
    a10e:	2200      	movs	r2, #0
    a110:	2400      	movs	r4, #0
    a112:	e7a9      	b.n	a068 <__aeabi_fsub+0x160>
    a114:	000c      	movs	r4, r1
    a116:	e73d      	b.n	9f94 <__aeabi_fsub+0x8c>
    a118:	2b00      	cmp	r3, #0
    a11a:	d058      	beq.n	a1ce <__aeabi_fsub+0x2c6>
    a11c:	43d2      	mvns	r2, r2
    a11e:	2a00      	cmp	r2, #0
    a120:	d0ee      	beq.n	a100 <__aeabi_fsub+0x1f8>
    a122:	28ff      	cmp	r0, #255	; 0xff
    a124:	d1e1      	bne.n	a0ea <__aeabi_fsub+0x1e2>
    a126:	0033      	movs	r3, r6
    a128:	24ff      	movs	r4, #255	; 0xff
    a12a:	000d      	movs	r5, r1
    a12c:	e732      	b.n	9f94 <__aeabi_fsub+0x8c>
    a12e:	29ff      	cmp	r1, #255	; 0xff
    a130:	d010      	beq.n	a154 <__aeabi_fsub+0x24c>
    a132:	0001      	movs	r1, r0
    a134:	e778      	b.n	a028 <__aeabi_fsub+0x120>
    a136:	2b00      	cmp	r3, #0
    a138:	d06e      	beq.n	a218 <__aeabi_fsub+0x310>
    a13a:	24ff      	movs	r4, #255	; 0xff
    a13c:	2e00      	cmp	r6, #0
    a13e:	d100      	bne.n	a142 <__aeabi_fsub+0x23a>
    a140:	e728      	b.n	9f94 <__aeabi_fsub+0x8c>
    a142:	2280      	movs	r2, #128	; 0x80
    a144:	4651      	mov	r1, sl
    a146:	03d2      	lsls	r2, r2, #15
    a148:	4211      	tst	r1, r2
    a14a:	d003      	beq.n	a154 <__aeabi_fsub+0x24c>
    a14c:	4661      	mov	r1, ip
    a14e:	4211      	tst	r1, r2
    a150:	d100      	bne.n	a154 <__aeabi_fsub+0x24c>
    a152:	0033      	movs	r3, r6
    a154:	24ff      	movs	r4, #255	; 0xff
    a156:	e71d      	b.n	9f94 <__aeabi_fsub+0x8c>
    a158:	24ff      	movs	r4, #255	; 0xff
    a15a:	2300      	movs	r3, #0
    a15c:	e72c      	b.n	9fb8 <__aeabi_fsub+0xb0>
    a15e:	2c00      	cmp	r4, #0
    a160:	d1e9      	bne.n	a136 <__aeabi_fsub+0x22e>
    a162:	2b00      	cmp	r3, #0
    a164:	d063      	beq.n	a22e <__aeabi_fsub+0x326>
    a166:	2e00      	cmp	r6, #0
    a168:	d100      	bne.n	a16c <__aeabi_fsub+0x264>
    a16a:	e713      	b.n	9f94 <__aeabi_fsub+0x8c>
    a16c:	199b      	adds	r3, r3, r6
    a16e:	015a      	lsls	r2, r3, #5
    a170:	d400      	bmi.n	a174 <__aeabi_fsub+0x26c>
    a172:	e73e      	b.n	9ff2 <__aeabi_fsub+0xea>
    a174:	4a31      	ldr	r2, [pc, #196]	; (a23c <__aeabi_fsub+0x334>)
    a176:	000c      	movs	r4, r1
    a178:	4013      	ands	r3, r2
    a17a:	e70b      	b.n	9f94 <__aeabi_fsub+0x8c>
    a17c:	2c00      	cmp	r4, #0
    a17e:	d11e      	bne.n	a1be <__aeabi_fsub+0x2b6>
    a180:	2b00      	cmp	r3, #0
    a182:	d12f      	bne.n	a1e4 <__aeabi_fsub+0x2dc>
    a184:	2e00      	cmp	r6, #0
    a186:	d04f      	beq.n	a228 <__aeabi_fsub+0x320>
    a188:	0033      	movs	r3, r6
    a18a:	000d      	movs	r5, r1
    a18c:	e702      	b.n	9f94 <__aeabi_fsub+0x8c>
    a18e:	2601      	movs	r6, #1
    a190:	e755      	b.n	a03e <__aeabi_fsub+0x136>
    a192:	2c00      	cmp	r4, #0
    a194:	d11f      	bne.n	a1d6 <__aeabi_fsub+0x2ce>
    a196:	2b00      	cmp	r3, #0
    a198:	d043      	beq.n	a222 <__aeabi_fsub+0x31a>
    a19a:	43c9      	mvns	r1, r1
    a19c:	2900      	cmp	r1, #0
    a19e:	d00b      	beq.n	a1b8 <__aeabi_fsub+0x2b0>
    a1a0:	28ff      	cmp	r0, #255	; 0xff
    a1a2:	d039      	beq.n	a218 <__aeabi_fsub+0x310>
    a1a4:	291b      	cmp	r1, #27
    a1a6:	dc44      	bgt.n	a232 <__aeabi_fsub+0x32a>
    a1a8:	001c      	movs	r4, r3
    a1aa:	2720      	movs	r7, #32
    a1ac:	40cc      	lsrs	r4, r1
    a1ae:	1a79      	subs	r1, r7, r1
    a1b0:	408b      	lsls	r3, r1
    a1b2:	1e59      	subs	r1, r3, #1
    a1b4:	418b      	sbcs	r3, r1
    a1b6:	4323      	orrs	r3, r4
    a1b8:	199b      	adds	r3, r3, r6
    a1ba:	0004      	movs	r4, r0
    a1bc:	e740      	b.n	a040 <__aeabi_fsub+0x138>
    a1be:	2b00      	cmp	r3, #0
    a1c0:	d11a      	bne.n	a1f8 <__aeabi_fsub+0x2f0>
    a1c2:	2e00      	cmp	r6, #0
    a1c4:	d124      	bne.n	a210 <__aeabi_fsub+0x308>
    a1c6:	2780      	movs	r7, #128	; 0x80
    a1c8:	2200      	movs	r2, #0
    a1ca:	03ff      	lsls	r7, r7, #15
    a1cc:	e71b      	b.n	a006 <__aeabi_fsub+0xfe>
    a1ce:	0033      	movs	r3, r6
    a1d0:	0004      	movs	r4, r0
    a1d2:	000d      	movs	r5, r1
    a1d4:	e6de      	b.n	9f94 <__aeabi_fsub+0x8c>
    a1d6:	28ff      	cmp	r0, #255	; 0xff
    a1d8:	d01e      	beq.n	a218 <__aeabi_fsub+0x310>
    a1da:	2480      	movs	r4, #128	; 0x80
    a1dc:	04e4      	lsls	r4, r4, #19
    a1de:	4249      	negs	r1, r1
    a1e0:	4323      	orrs	r3, r4
    a1e2:	e7df      	b.n	a1a4 <__aeabi_fsub+0x29c>
    a1e4:	2e00      	cmp	r6, #0
    a1e6:	d100      	bne.n	a1ea <__aeabi_fsub+0x2e2>
    a1e8:	e6d4      	b.n	9f94 <__aeabi_fsub+0x8c>
    a1ea:	1b9f      	subs	r7, r3, r6
    a1ec:	017a      	lsls	r2, r7, #5
    a1ee:	d400      	bmi.n	a1f2 <__aeabi_fsub+0x2ea>
    a1f0:	e737      	b.n	a062 <__aeabi_fsub+0x15a>
    a1f2:	1af3      	subs	r3, r6, r3
    a1f4:	000d      	movs	r5, r1
    a1f6:	e6cd      	b.n	9f94 <__aeabi_fsub+0x8c>
    a1f8:	24ff      	movs	r4, #255	; 0xff
    a1fa:	2e00      	cmp	r6, #0
    a1fc:	d100      	bne.n	a200 <__aeabi_fsub+0x2f8>
    a1fe:	e6c9      	b.n	9f94 <__aeabi_fsub+0x8c>
    a200:	2280      	movs	r2, #128	; 0x80
    a202:	4650      	mov	r0, sl
    a204:	03d2      	lsls	r2, r2, #15
    a206:	4210      	tst	r0, r2
    a208:	d0a4      	beq.n	a154 <__aeabi_fsub+0x24c>
    a20a:	4660      	mov	r0, ip
    a20c:	4210      	tst	r0, r2
    a20e:	d1a1      	bne.n	a154 <__aeabi_fsub+0x24c>
    a210:	0033      	movs	r3, r6
    a212:	000d      	movs	r5, r1
    a214:	24ff      	movs	r4, #255	; 0xff
    a216:	e6bd      	b.n	9f94 <__aeabi_fsub+0x8c>
    a218:	0033      	movs	r3, r6
    a21a:	24ff      	movs	r4, #255	; 0xff
    a21c:	e6ba      	b.n	9f94 <__aeabi_fsub+0x8c>
    a21e:	2301      	movs	r3, #1
    a220:	e76e      	b.n	a100 <__aeabi_fsub+0x1f8>
    a222:	0033      	movs	r3, r6
    a224:	0004      	movs	r4, r0
    a226:	e6b5      	b.n	9f94 <__aeabi_fsub+0x8c>
    a228:	2700      	movs	r7, #0
    a22a:	2200      	movs	r2, #0
    a22c:	e71c      	b.n	a068 <__aeabi_fsub+0x160>
    a22e:	0033      	movs	r3, r6
    a230:	e6b0      	b.n	9f94 <__aeabi_fsub+0x8c>
    a232:	2301      	movs	r3, #1
    a234:	e7c0      	b.n	a1b8 <__aeabi_fsub+0x2b0>
    a236:	46c0      	nop			; (mov r8, r8)
    a238:	7dffffff 	.word	0x7dffffff
    a23c:	fbffffff 	.word	0xfbffffff

0000a240 <__aeabi_fcmpun>:
    a240:	0242      	lsls	r2, r0, #9
    a242:	024b      	lsls	r3, r1, #9
    a244:	0040      	lsls	r0, r0, #1
    a246:	0049      	lsls	r1, r1, #1
    a248:	0a52      	lsrs	r2, r2, #9
    a24a:	0e00      	lsrs	r0, r0, #24
    a24c:	0a5b      	lsrs	r3, r3, #9
    a24e:	0e09      	lsrs	r1, r1, #24
    a250:	28ff      	cmp	r0, #255	; 0xff
    a252:	d003      	beq.n	a25c <__aeabi_fcmpun+0x1c>
    a254:	2000      	movs	r0, #0
    a256:	29ff      	cmp	r1, #255	; 0xff
    a258:	d006      	beq.n	a268 <__aeabi_fcmpun+0x28>
    a25a:	4770      	bx	lr
    a25c:	38fe      	subs	r0, #254	; 0xfe
    a25e:	2a00      	cmp	r2, #0
    a260:	d1fb      	bne.n	a25a <__aeabi_fcmpun+0x1a>
    a262:	2000      	movs	r0, #0
    a264:	29ff      	cmp	r1, #255	; 0xff
    a266:	d1f8      	bne.n	a25a <__aeabi_fcmpun+0x1a>
    a268:	0018      	movs	r0, r3
    a26a:	1e43      	subs	r3, r0, #1
    a26c:	4198      	sbcs	r0, r3
    a26e:	e7f4      	b.n	a25a <__aeabi_fcmpun+0x1a>

0000a270 <__aeabi_f2iz>:
    a270:	0241      	lsls	r1, r0, #9
    a272:	0043      	lsls	r3, r0, #1
    a274:	0fc2      	lsrs	r2, r0, #31
    a276:	0a49      	lsrs	r1, r1, #9
    a278:	0e1b      	lsrs	r3, r3, #24
    a27a:	2000      	movs	r0, #0
    a27c:	2b7e      	cmp	r3, #126	; 0x7e
    a27e:	dd0d      	ble.n	a29c <__aeabi_f2iz+0x2c>
    a280:	2b9d      	cmp	r3, #157	; 0x9d
    a282:	dc0c      	bgt.n	a29e <__aeabi_f2iz+0x2e>
    a284:	2080      	movs	r0, #128	; 0x80
    a286:	0400      	lsls	r0, r0, #16
    a288:	4301      	orrs	r1, r0
    a28a:	2b95      	cmp	r3, #149	; 0x95
    a28c:	dc0a      	bgt.n	a2a4 <__aeabi_f2iz+0x34>
    a28e:	2096      	movs	r0, #150	; 0x96
    a290:	1ac3      	subs	r3, r0, r3
    a292:	40d9      	lsrs	r1, r3
    a294:	4248      	negs	r0, r1
    a296:	2a00      	cmp	r2, #0
    a298:	d100      	bne.n	a29c <__aeabi_f2iz+0x2c>
    a29a:	0008      	movs	r0, r1
    a29c:	4770      	bx	lr
    a29e:	4b03      	ldr	r3, [pc, #12]	; (a2ac <__aeabi_f2iz+0x3c>)
    a2a0:	18d0      	adds	r0, r2, r3
    a2a2:	e7fb      	b.n	a29c <__aeabi_f2iz+0x2c>
    a2a4:	3b96      	subs	r3, #150	; 0x96
    a2a6:	4099      	lsls	r1, r3
    a2a8:	e7f4      	b.n	a294 <__aeabi_f2iz+0x24>
    a2aa:	46c0      	nop			; (mov r8, r8)
    a2ac:	7fffffff 	.word	0x7fffffff

0000a2b0 <__aeabi_ui2f>:
    a2b0:	b510      	push	{r4, lr}
    a2b2:	1e04      	subs	r4, r0, #0
    a2b4:	d027      	beq.n	a306 <__aeabi_ui2f+0x56>
    a2b6:	f7ff f801 	bl	92bc <__clzsi2>
    a2ba:	239e      	movs	r3, #158	; 0x9e
    a2bc:	1a1b      	subs	r3, r3, r0
    a2be:	2b96      	cmp	r3, #150	; 0x96
    a2c0:	dc0a      	bgt.n	a2d8 <__aeabi_ui2f+0x28>
    a2c2:	2296      	movs	r2, #150	; 0x96
    a2c4:	1ad2      	subs	r2, r2, r3
    a2c6:	4094      	lsls	r4, r2
    a2c8:	0264      	lsls	r4, r4, #9
    a2ca:	0a64      	lsrs	r4, r4, #9
    a2cc:	b2db      	uxtb	r3, r3
    a2ce:	0264      	lsls	r4, r4, #9
    a2d0:	05db      	lsls	r3, r3, #23
    a2d2:	0a60      	lsrs	r0, r4, #9
    a2d4:	4318      	orrs	r0, r3
    a2d6:	bd10      	pop	{r4, pc}
    a2d8:	2b99      	cmp	r3, #153	; 0x99
    a2da:	dc17      	bgt.n	a30c <__aeabi_ui2f+0x5c>
    a2dc:	2299      	movs	r2, #153	; 0x99
    a2de:	1ad2      	subs	r2, r2, r3
    a2e0:	2a00      	cmp	r2, #0
    a2e2:	dd27      	ble.n	a334 <__aeabi_ui2f+0x84>
    a2e4:	4094      	lsls	r4, r2
    a2e6:	0022      	movs	r2, r4
    a2e8:	4c13      	ldr	r4, [pc, #76]	; (a338 <__aeabi_ui2f+0x88>)
    a2ea:	4014      	ands	r4, r2
    a2ec:	0751      	lsls	r1, r2, #29
    a2ee:	d004      	beq.n	a2fa <__aeabi_ui2f+0x4a>
    a2f0:	210f      	movs	r1, #15
    a2f2:	400a      	ands	r2, r1
    a2f4:	2a04      	cmp	r2, #4
    a2f6:	d000      	beq.n	a2fa <__aeabi_ui2f+0x4a>
    a2f8:	3404      	adds	r4, #4
    a2fa:	0162      	lsls	r2, r4, #5
    a2fc:	d412      	bmi.n	a324 <__aeabi_ui2f+0x74>
    a2fe:	01a4      	lsls	r4, r4, #6
    a300:	0a64      	lsrs	r4, r4, #9
    a302:	b2db      	uxtb	r3, r3
    a304:	e7e3      	b.n	a2ce <__aeabi_ui2f+0x1e>
    a306:	2300      	movs	r3, #0
    a308:	2400      	movs	r4, #0
    a30a:	e7e0      	b.n	a2ce <__aeabi_ui2f+0x1e>
    a30c:	22b9      	movs	r2, #185	; 0xb9
    a30e:	0021      	movs	r1, r4
    a310:	1ad2      	subs	r2, r2, r3
    a312:	4091      	lsls	r1, r2
    a314:	000a      	movs	r2, r1
    a316:	1e51      	subs	r1, r2, #1
    a318:	418a      	sbcs	r2, r1
    a31a:	2105      	movs	r1, #5
    a31c:	1a09      	subs	r1, r1, r0
    a31e:	40cc      	lsrs	r4, r1
    a320:	4314      	orrs	r4, r2
    a322:	e7db      	b.n	a2dc <__aeabi_ui2f+0x2c>
    a324:	4b04      	ldr	r3, [pc, #16]	; (a338 <__aeabi_ui2f+0x88>)
    a326:	401c      	ands	r4, r3
    a328:	239f      	movs	r3, #159	; 0x9f
    a32a:	01a4      	lsls	r4, r4, #6
    a32c:	1a1b      	subs	r3, r3, r0
    a32e:	0a64      	lsrs	r4, r4, #9
    a330:	b2db      	uxtb	r3, r3
    a332:	e7cc      	b.n	a2ce <__aeabi_ui2f+0x1e>
    a334:	0022      	movs	r2, r4
    a336:	e7d7      	b.n	a2e8 <__aeabi_ui2f+0x38>
    a338:	fbffffff 	.word	0xfbffffff

0000a33c <__aeabi_dadd>:
    a33c:	b5f8      	push	{r3, r4, r5, r6, r7, lr}
    a33e:	4645      	mov	r5, r8
    a340:	46de      	mov	lr, fp
    a342:	4657      	mov	r7, sl
    a344:	464e      	mov	r6, r9
    a346:	030c      	lsls	r4, r1, #12
    a348:	b5e0      	push	{r5, r6, r7, lr}
    a34a:	004e      	lsls	r6, r1, #1
    a34c:	0fc9      	lsrs	r1, r1, #31
    a34e:	4688      	mov	r8, r1
    a350:	000d      	movs	r5, r1
    a352:	0a61      	lsrs	r1, r4, #9
    a354:	0f44      	lsrs	r4, r0, #29
    a356:	430c      	orrs	r4, r1
    a358:	00c7      	lsls	r7, r0, #3
    a35a:	0319      	lsls	r1, r3, #12
    a35c:	0058      	lsls	r0, r3, #1
    a35e:	0fdb      	lsrs	r3, r3, #31
    a360:	469b      	mov	fp, r3
    a362:	0a4b      	lsrs	r3, r1, #9
    a364:	0f51      	lsrs	r1, r2, #29
    a366:	430b      	orrs	r3, r1
    a368:	0d76      	lsrs	r6, r6, #21
    a36a:	0d40      	lsrs	r0, r0, #21
    a36c:	0019      	movs	r1, r3
    a36e:	00d2      	lsls	r2, r2, #3
    a370:	45d8      	cmp	r8, fp
    a372:	d100      	bne.n	a376 <__aeabi_dadd+0x3a>
    a374:	e0ae      	b.n	a4d4 <__aeabi_dadd+0x198>
    a376:	1a35      	subs	r5, r6, r0
    a378:	2d00      	cmp	r5, #0
    a37a:	dc00      	bgt.n	a37e <__aeabi_dadd+0x42>
    a37c:	e0f6      	b.n	a56c <__aeabi_dadd+0x230>
    a37e:	2800      	cmp	r0, #0
    a380:	d10f      	bne.n	a3a2 <__aeabi_dadd+0x66>
    a382:	4313      	orrs	r3, r2
    a384:	d100      	bne.n	a388 <__aeabi_dadd+0x4c>
    a386:	e0db      	b.n	a540 <__aeabi_dadd+0x204>
    a388:	1e6b      	subs	r3, r5, #1
    a38a:	2b00      	cmp	r3, #0
    a38c:	d000      	beq.n	a390 <__aeabi_dadd+0x54>
    a38e:	e137      	b.n	a600 <__aeabi_dadd+0x2c4>
    a390:	1aba      	subs	r2, r7, r2
    a392:	4297      	cmp	r7, r2
    a394:	41bf      	sbcs	r7, r7
    a396:	1a64      	subs	r4, r4, r1
    a398:	427f      	negs	r7, r7
    a39a:	1be4      	subs	r4, r4, r7
    a39c:	2601      	movs	r6, #1
    a39e:	0017      	movs	r7, r2
    a3a0:	e024      	b.n	a3ec <__aeabi_dadd+0xb0>
    a3a2:	4bc6      	ldr	r3, [pc, #792]	; (a6bc <__aeabi_dadd+0x380>)
    a3a4:	429e      	cmp	r6, r3
    a3a6:	d04d      	beq.n	a444 <__aeabi_dadd+0x108>
    a3a8:	2380      	movs	r3, #128	; 0x80
    a3aa:	041b      	lsls	r3, r3, #16
    a3ac:	4319      	orrs	r1, r3
    a3ae:	2d38      	cmp	r5, #56	; 0x38
    a3b0:	dd00      	ble.n	a3b4 <__aeabi_dadd+0x78>
    a3b2:	e107      	b.n	a5c4 <__aeabi_dadd+0x288>
    a3b4:	2d1f      	cmp	r5, #31
    a3b6:	dd00      	ble.n	a3ba <__aeabi_dadd+0x7e>
    a3b8:	e138      	b.n	a62c <__aeabi_dadd+0x2f0>
    a3ba:	2020      	movs	r0, #32
    a3bc:	1b43      	subs	r3, r0, r5
    a3be:	469a      	mov	sl, r3
    a3c0:	000b      	movs	r3, r1
    a3c2:	4650      	mov	r0, sl
    a3c4:	4083      	lsls	r3, r0
    a3c6:	4699      	mov	r9, r3
    a3c8:	0013      	movs	r3, r2
    a3ca:	4648      	mov	r0, r9
    a3cc:	40eb      	lsrs	r3, r5
    a3ce:	4318      	orrs	r0, r3
    a3d0:	0003      	movs	r3, r0
    a3d2:	4650      	mov	r0, sl
    a3d4:	4082      	lsls	r2, r0
    a3d6:	1e50      	subs	r0, r2, #1
    a3d8:	4182      	sbcs	r2, r0
    a3da:	40e9      	lsrs	r1, r5
    a3dc:	431a      	orrs	r2, r3
    a3de:	1aba      	subs	r2, r7, r2
    a3e0:	1a61      	subs	r1, r4, r1
    a3e2:	4297      	cmp	r7, r2
    a3e4:	41a4      	sbcs	r4, r4
    a3e6:	0017      	movs	r7, r2
    a3e8:	4264      	negs	r4, r4
    a3ea:	1b0c      	subs	r4, r1, r4
    a3ec:	0223      	lsls	r3, r4, #8
    a3ee:	d562      	bpl.n	a4b6 <__aeabi_dadd+0x17a>
    a3f0:	0264      	lsls	r4, r4, #9
    a3f2:	0a65      	lsrs	r5, r4, #9
    a3f4:	2d00      	cmp	r5, #0
    a3f6:	d100      	bne.n	a3fa <__aeabi_dadd+0xbe>
    a3f8:	e0df      	b.n	a5ba <__aeabi_dadd+0x27e>
    a3fa:	0028      	movs	r0, r5
    a3fc:	f7fe ff5e 	bl	92bc <__clzsi2>
    a400:	0003      	movs	r3, r0
    a402:	3b08      	subs	r3, #8
    a404:	2b1f      	cmp	r3, #31
    a406:	dd00      	ble.n	a40a <__aeabi_dadd+0xce>
    a408:	e0d2      	b.n	a5b0 <__aeabi_dadd+0x274>
    a40a:	2220      	movs	r2, #32
    a40c:	003c      	movs	r4, r7
    a40e:	1ad2      	subs	r2, r2, r3
    a410:	409d      	lsls	r5, r3
    a412:	40d4      	lsrs	r4, r2
    a414:	409f      	lsls	r7, r3
    a416:	4325      	orrs	r5, r4
    a418:	429e      	cmp	r6, r3
    a41a:	dd00      	ble.n	a41e <__aeabi_dadd+0xe2>
    a41c:	e0c4      	b.n	a5a8 <__aeabi_dadd+0x26c>
    a41e:	1b9e      	subs	r6, r3, r6
    a420:	1c73      	adds	r3, r6, #1
    a422:	2b1f      	cmp	r3, #31
    a424:	dd00      	ble.n	a428 <__aeabi_dadd+0xec>
    a426:	e0f1      	b.n	a60c <__aeabi_dadd+0x2d0>
    a428:	2220      	movs	r2, #32
    a42a:	0038      	movs	r0, r7
    a42c:	0029      	movs	r1, r5
    a42e:	1ad2      	subs	r2, r2, r3
    a430:	40d8      	lsrs	r0, r3
    a432:	4091      	lsls	r1, r2
    a434:	4097      	lsls	r7, r2
    a436:	002c      	movs	r4, r5
    a438:	4301      	orrs	r1, r0
    a43a:	1e78      	subs	r0, r7, #1
    a43c:	4187      	sbcs	r7, r0
    a43e:	40dc      	lsrs	r4, r3
    a440:	2600      	movs	r6, #0
    a442:	430f      	orrs	r7, r1
    a444:	077b      	lsls	r3, r7, #29
    a446:	d009      	beq.n	a45c <__aeabi_dadd+0x120>
    a448:	230f      	movs	r3, #15
    a44a:	403b      	ands	r3, r7
    a44c:	2b04      	cmp	r3, #4
    a44e:	d005      	beq.n	a45c <__aeabi_dadd+0x120>
    a450:	1d3b      	adds	r3, r7, #4
    a452:	42bb      	cmp	r3, r7
    a454:	41bf      	sbcs	r7, r7
    a456:	427f      	negs	r7, r7
    a458:	19e4      	adds	r4, r4, r7
    a45a:	001f      	movs	r7, r3
    a45c:	0223      	lsls	r3, r4, #8
    a45e:	d52c      	bpl.n	a4ba <__aeabi_dadd+0x17e>
    a460:	4b96      	ldr	r3, [pc, #600]	; (a6bc <__aeabi_dadd+0x380>)
    a462:	3601      	adds	r6, #1
    a464:	429e      	cmp	r6, r3
    a466:	d100      	bne.n	a46a <__aeabi_dadd+0x12e>
    a468:	e09a      	b.n	a5a0 <__aeabi_dadd+0x264>
    a46a:	4645      	mov	r5, r8
    a46c:	4b94      	ldr	r3, [pc, #592]	; (a6c0 <__aeabi_dadd+0x384>)
    a46e:	08ff      	lsrs	r7, r7, #3
    a470:	401c      	ands	r4, r3
    a472:	0760      	lsls	r0, r4, #29
    a474:	0576      	lsls	r6, r6, #21
    a476:	0264      	lsls	r4, r4, #9
    a478:	4307      	orrs	r7, r0
    a47a:	0b24      	lsrs	r4, r4, #12
    a47c:	0d76      	lsrs	r6, r6, #21
    a47e:	2100      	movs	r1, #0
    a480:	0324      	lsls	r4, r4, #12
    a482:	0b23      	lsrs	r3, r4, #12
    a484:	0d0c      	lsrs	r4, r1, #20
    a486:	4a8f      	ldr	r2, [pc, #572]	; (a6c4 <__aeabi_dadd+0x388>)
    a488:	0524      	lsls	r4, r4, #20
    a48a:	431c      	orrs	r4, r3
    a48c:	4014      	ands	r4, r2
    a48e:	0533      	lsls	r3, r6, #20
    a490:	4323      	orrs	r3, r4
    a492:	005b      	lsls	r3, r3, #1
    a494:	07ed      	lsls	r5, r5, #31
    a496:	085b      	lsrs	r3, r3, #1
    a498:	432b      	orrs	r3, r5
    a49a:	0038      	movs	r0, r7
    a49c:	0019      	movs	r1, r3
    a49e:	bc3c      	pop	{r2, r3, r4, r5}
    a4a0:	4690      	mov	r8, r2
    a4a2:	4699      	mov	r9, r3
    a4a4:	46a2      	mov	sl, r4
    a4a6:	46ab      	mov	fp, r5
    a4a8:	bdf8      	pop	{r3, r4, r5, r6, r7, pc}
    a4aa:	4664      	mov	r4, ip
    a4ac:	4304      	orrs	r4, r0
    a4ae:	d100      	bne.n	a4b2 <__aeabi_dadd+0x176>
    a4b0:	e211      	b.n	a8d6 <__aeabi_dadd+0x59a>
    a4b2:	0004      	movs	r4, r0
    a4b4:	4667      	mov	r7, ip
    a4b6:	077b      	lsls	r3, r7, #29
    a4b8:	d1c6      	bne.n	a448 <__aeabi_dadd+0x10c>
    a4ba:	4645      	mov	r5, r8
    a4bc:	0760      	lsls	r0, r4, #29
    a4be:	08ff      	lsrs	r7, r7, #3
    a4c0:	4307      	orrs	r7, r0
    a4c2:	08e4      	lsrs	r4, r4, #3
    a4c4:	4b7d      	ldr	r3, [pc, #500]	; (a6bc <__aeabi_dadd+0x380>)
    a4c6:	429e      	cmp	r6, r3
    a4c8:	d030      	beq.n	a52c <__aeabi_dadd+0x1f0>
    a4ca:	0324      	lsls	r4, r4, #12
    a4cc:	0576      	lsls	r6, r6, #21
    a4ce:	0b24      	lsrs	r4, r4, #12
    a4d0:	0d76      	lsrs	r6, r6, #21
    a4d2:	e7d4      	b.n	a47e <__aeabi_dadd+0x142>
    a4d4:	1a33      	subs	r3, r6, r0
    a4d6:	469a      	mov	sl, r3
    a4d8:	2b00      	cmp	r3, #0
    a4da:	dd78      	ble.n	a5ce <__aeabi_dadd+0x292>
    a4dc:	2800      	cmp	r0, #0
    a4de:	d031      	beq.n	a544 <__aeabi_dadd+0x208>
    a4e0:	4876      	ldr	r0, [pc, #472]	; (a6bc <__aeabi_dadd+0x380>)
    a4e2:	4286      	cmp	r6, r0
    a4e4:	d0ae      	beq.n	a444 <__aeabi_dadd+0x108>
    a4e6:	2080      	movs	r0, #128	; 0x80
    a4e8:	0400      	lsls	r0, r0, #16
    a4ea:	4301      	orrs	r1, r0
    a4ec:	4653      	mov	r3, sl
    a4ee:	2b38      	cmp	r3, #56	; 0x38
    a4f0:	dc00      	bgt.n	a4f4 <__aeabi_dadd+0x1b8>
    a4f2:	e0e9      	b.n	a6c8 <__aeabi_dadd+0x38c>
    a4f4:	430a      	orrs	r2, r1
    a4f6:	1e51      	subs	r1, r2, #1
    a4f8:	418a      	sbcs	r2, r1
    a4fa:	2100      	movs	r1, #0
    a4fc:	19d2      	adds	r2, r2, r7
    a4fe:	42ba      	cmp	r2, r7
    a500:	41bf      	sbcs	r7, r7
    a502:	1909      	adds	r1, r1, r4
    a504:	427c      	negs	r4, r7
    a506:	0017      	movs	r7, r2
    a508:	190c      	adds	r4, r1, r4
    a50a:	0223      	lsls	r3, r4, #8
    a50c:	d5d3      	bpl.n	a4b6 <__aeabi_dadd+0x17a>
    a50e:	4b6b      	ldr	r3, [pc, #428]	; (a6bc <__aeabi_dadd+0x380>)
    a510:	3601      	adds	r6, #1
    a512:	429e      	cmp	r6, r3
    a514:	d100      	bne.n	a518 <__aeabi_dadd+0x1dc>
    a516:	e13a      	b.n	a78e <__aeabi_dadd+0x452>
    a518:	2001      	movs	r0, #1
    a51a:	4b69      	ldr	r3, [pc, #420]	; (a6c0 <__aeabi_dadd+0x384>)
    a51c:	401c      	ands	r4, r3
    a51e:	087b      	lsrs	r3, r7, #1
    a520:	4007      	ands	r7, r0
    a522:	431f      	orrs	r7, r3
    a524:	07e0      	lsls	r0, r4, #31
    a526:	4307      	orrs	r7, r0
    a528:	0864      	lsrs	r4, r4, #1
    a52a:	e78b      	b.n	a444 <__aeabi_dadd+0x108>
    a52c:	0023      	movs	r3, r4
    a52e:	433b      	orrs	r3, r7
    a530:	d100      	bne.n	a534 <__aeabi_dadd+0x1f8>
    a532:	e1cb      	b.n	a8cc <__aeabi_dadd+0x590>
    a534:	2280      	movs	r2, #128	; 0x80
    a536:	0312      	lsls	r2, r2, #12
    a538:	4314      	orrs	r4, r2
    a53a:	0324      	lsls	r4, r4, #12
    a53c:	0b24      	lsrs	r4, r4, #12
    a53e:	e79e      	b.n	a47e <__aeabi_dadd+0x142>
    a540:	002e      	movs	r6, r5
    a542:	e77f      	b.n	a444 <__aeabi_dadd+0x108>
    a544:	0008      	movs	r0, r1
    a546:	4310      	orrs	r0, r2
    a548:	d100      	bne.n	a54c <__aeabi_dadd+0x210>
    a54a:	e0b4      	b.n	a6b6 <__aeabi_dadd+0x37a>
    a54c:	1e58      	subs	r0, r3, #1
    a54e:	2800      	cmp	r0, #0
    a550:	d000      	beq.n	a554 <__aeabi_dadd+0x218>
    a552:	e0de      	b.n	a712 <__aeabi_dadd+0x3d6>
    a554:	18ba      	adds	r2, r7, r2
    a556:	42ba      	cmp	r2, r7
    a558:	419b      	sbcs	r3, r3
    a55a:	1864      	adds	r4, r4, r1
    a55c:	425b      	negs	r3, r3
    a55e:	18e4      	adds	r4, r4, r3
    a560:	0017      	movs	r7, r2
    a562:	2601      	movs	r6, #1
    a564:	0223      	lsls	r3, r4, #8
    a566:	d5a6      	bpl.n	a4b6 <__aeabi_dadd+0x17a>
    a568:	2602      	movs	r6, #2
    a56a:	e7d5      	b.n	a518 <__aeabi_dadd+0x1dc>
    a56c:	2d00      	cmp	r5, #0
    a56e:	d16e      	bne.n	a64e <__aeabi_dadd+0x312>
    a570:	1c70      	adds	r0, r6, #1
    a572:	0540      	lsls	r0, r0, #21
    a574:	0d40      	lsrs	r0, r0, #21
    a576:	2801      	cmp	r0, #1
    a578:	dc00      	bgt.n	a57c <__aeabi_dadd+0x240>
    a57a:	e0f9      	b.n	a770 <__aeabi_dadd+0x434>
    a57c:	1ab8      	subs	r0, r7, r2
    a57e:	4684      	mov	ip, r0
    a580:	4287      	cmp	r7, r0
    a582:	4180      	sbcs	r0, r0
    a584:	1ae5      	subs	r5, r4, r3
    a586:	4240      	negs	r0, r0
    a588:	1a2d      	subs	r5, r5, r0
    a58a:	0228      	lsls	r0, r5, #8
    a58c:	d400      	bmi.n	a590 <__aeabi_dadd+0x254>
    a58e:	e089      	b.n	a6a4 <__aeabi_dadd+0x368>
    a590:	1bd7      	subs	r7, r2, r7
    a592:	42ba      	cmp	r2, r7
    a594:	4192      	sbcs	r2, r2
    a596:	1b1c      	subs	r4, r3, r4
    a598:	4252      	negs	r2, r2
    a59a:	1aa5      	subs	r5, r4, r2
    a59c:	46d8      	mov	r8, fp
    a59e:	e729      	b.n	a3f4 <__aeabi_dadd+0xb8>
    a5a0:	4645      	mov	r5, r8
    a5a2:	2400      	movs	r4, #0
    a5a4:	2700      	movs	r7, #0
    a5a6:	e76a      	b.n	a47e <__aeabi_dadd+0x142>
    a5a8:	4c45      	ldr	r4, [pc, #276]	; (a6c0 <__aeabi_dadd+0x384>)
    a5aa:	1af6      	subs	r6, r6, r3
    a5ac:	402c      	ands	r4, r5
    a5ae:	e749      	b.n	a444 <__aeabi_dadd+0x108>
    a5b0:	003d      	movs	r5, r7
    a5b2:	3828      	subs	r0, #40	; 0x28
    a5b4:	4085      	lsls	r5, r0
    a5b6:	2700      	movs	r7, #0
    a5b8:	e72e      	b.n	a418 <__aeabi_dadd+0xdc>
    a5ba:	0038      	movs	r0, r7
    a5bc:	f7fe fe7e 	bl	92bc <__clzsi2>
    a5c0:	3020      	adds	r0, #32
    a5c2:	e71d      	b.n	a400 <__aeabi_dadd+0xc4>
    a5c4:	430a      	orrs	r2, r1
    a5c6:	1e51      	subs	r1, r2, #1
    a5c8:	418a      	sbcs	r2, r1
    a5ca:	2100      	movs	r1, #0
    a5cc:	e707      	b.n	a3de <__aeabi_dadd+0xa2>
    a5ce:	2b00      	cmp	r3, #0
    a5d0:	d000      	beq.n	a5d4 <__aeabi_dadd+0x298>
    a5d2:	e0f3      	b.n	a7bc <__aeabi_dadd+0x480>
    a5d4:	1c70      	adds	r0, r6, #1
    a5d6:	0543      	lsls	r3, r0, #21
    a5d8:	0d5b      	lsrs	r3, r3, #21
    a5da:	2b01      	cmp	r3, #1
    a5dc:	dc00      	bgt.n	a5e0 <__aeabi_dadd+0x2a4>
    a5de:	e0ad      	b.n	a73c <__aeabi_dadd+0x400>
    a5e0:	4b36      	ldr	r3, [pc, #216]	; (a6bc <__aeabi_dadd+0x380>)
    a5e2:	4298      	cmp	r0, r3
    a5e4:	d100      	bne.n	a5e8 <__aeabi_dadd+0x2ac>
    a5e6:	e0d1      	b.n	a78c <__aeabi_dadd+0x450>
    a5e8:	18ba      	adds	r2, r7, r2
    a5ea:	42ba      	cmp	r2, r7
    a5ec:	41bf      	sbcs	r7, r7
    a5ee:	1864      	adds	r4, r4, r1
    a5f0:	427f      	negs	r7, r7
    a5f2:	19e4      	adds	r4, r4, r7
    a5f4:	07e7      	lsls	r7, r4, #31
    a5f6:	0852      	lsrs	r2, r2, #1
    a5f8:	4317      	orrs	r7, r2
    a5fa:	0864      	lsrs	r4, r4, #1
    a5fc:	0006      	movs	r6, r0
    a5fe:	e721      	b.n	a444 <__aeabi_dadd+0x108>
    a600:	482e      	ldr	r0, [pc, #184]	; (a6bc <__aeabi_dadd+0x380>)
    a602:	4285      	cmp	r5, r0
    a604:	d100      	bne.n	a608 <__aeabi_dadd+0x2cc>
    a606:	e093      	b.n	a730 <__aeabi_dadd+0x3f4>
    a608:	001d      	movs	r5, r3
    a60a:	e6d0      	b.n	a3ae <__aeabi_dadd+0x72>
    a60c:	0029      	movs	r1, r5
    a60e:	3e1f      	subs	r6, #31
    a610:	40f1      	lsrs	r1, r6
    a612:	2b20      	cmp	r3, #32
    a614:	d100      	bne.n	a618 <__aeabi_dadd+0x2dc>
    a616:	e08d      	b.n	a734 <__aeabi_dadd+0x3f8>
    a618:	2240      	movs	r2, #64	; 0x40
    a61a:	1ad3      	subs	r3, r2, r3
    a61c:	409d      	lsls	r5, r3
    a61e:	432f      	orrs	r7, r5
    a620:	1e7d      	subs	r5, r7, #1
    a622:	41af      	sbcs	r7, r5
    a624:	2400      	movs	r4, #0
    a626:	430f      	orrs	r7, r1
    a628:	2600      	movs	r6, #0
    a62a:	e744      	b.n	a4b6 <__aeabi_dadd+0x17a>
    a62c:	002b      	movs	r3, r5
    a62e:	0008      	movs	r0, r1
    a630:	3b20      	subs	r3, #32
    a632:	40d8      	lsrs	r0, r3
    a634:	0003      	movs	r3, r0
    a636:	2d20      	cmp	r5, #32
    a638:	d100      	bne.n	a63c <__aeabi_dadd+0x300>
    a63a:	e07d      	b.n	a738 <__aeabi_dadd+0x3fc>
    a63c:	2040      	movs	r0, #64	; 0x40
    a63e:	1b45      	subs	r5, r0, r5
    a640:	40a9      	lsls	r1, r5
    a642:	430a      	orrs	r2, r1
    a644:	1e51      	subs	r1, r2, #1
    a646:	418a      	sbcs	r2, r1
    a648:	2100      	movs	r1, #0
    a64a:	431a      	orrs	r2, r3
    a64c:	e6c7      	b.n	a3de <__aeabi_dadd+0xa2>
    a64e:	2e00      	cmp	r6, #0
    a650:	d050      	beq.n	a6f4 <__aeabi_dadd+0x3b8>
    a652:	4e1a      	ldr	r6, [pc, #104]	; (a6bc <__aeabi_dadd+0x380>)
    a654:	42b0      	cmp	r0, r6
    a656:	d057      	beq.n	a708 <__aeabi_dadd+0x3cc>
    a658:	2680      	movs	r6, #128	; 0x80
    a65a:	426b      	negs	r3, r5
    a65c:	4699      	mov	r9, r3
    a65e:	0436      	lsls	r6, r6, #16
    a660:	4334      	orrs	r4, r6
    a662:	464b      	mov	r3, r9
    a664:	2b38      	cmp	r3, #56	; 0x38
    a666:	dd00      	ble.n	a66a <__aeabi_dadd+0x32e>
    a668:	e0d6      	b.n	a818 <__aeabi_dadd+0x4dc>
    a66a:	2b1f      	cmp	r3, #31
    a66c:	dd00      	ble.n	a670 <__aeabi_dadd+0x334>
    a66e:	e135      	b.n	a8dc <__aeabi_dadd+0x5a0>
    a670:	2620      	movs	r6, #32
    a672:	1af5      	subs	r5, r6, r3
    a674:	0026      	movs	r6, r4
    a676:	40ae      	lsls	r6, r5
    a678:	46b2      	mov	sl, r6
    a67a:	003e      	movs	r6, r7
    a67c:	40de      	lsrs	r6, r3
    a67e:	46ac      	mov	ip, r5
    a680:	0035      	movs	r5, r6
    a682:	4656      	mov	r6, sl
    a684:	432e      	orrs	r6, r5
    a686:	4665      	mov	r5, ip
    a688:	40af      	lsls	r7, r5
    a68a:	1e7d      	subs	r5, r7, #1
    a68c:	41af      	sbcs	r7, r5
    a68e:	40dc      	lsrs	r4, r3
    a690:	4337      	orrs	r7, r6
    a692:	1bd7      	subs	r7, r2, r7
    a694:	42ba      	cmp	r2, r7
    a696:	4192      	sbcs	r2, r2
    a698:	1b0c      	subs	r4, r1, r4
    a69a:	4252      	negs	r2, r2
    a69c:	1aa4      	subs	r4, r4, r2
    a69e:	0006      	movs	r6, r0
    a6a0:	46d8      	mov	r8, fp
    a6a2:	e6a3      	b.n	a3ec <__aeabi_dadd+0xb0>
    a6a4:	4664      	mov	r4, ip
    a6a6:	4667      	mov	r7, ip
    a6a8:	432c      	orrs	r4, r5
    a6aa:	d000      	beq.n	a6ae <__aeabi_dadd+0x372>
    a6ac:	e6a2      	b.n	a3f4 <__aeabi_dadd+0xb8>
    a6ae:	2500      	movs	r5, #0
    a6b0:	2600      	movs	r6, #0
    a6b2:	2700      	movs	r7, #0
    a6b4:	e706      	b.n	a4c4 <__aeabi_dadd+0x188>
    a6b6:	001e      	movs	r6, r3
    a6b8:	e6c4      	b.n	a444 <__aeabi_dadd+0x108>
    a6ba:	46c0      	nop			; (mov r8, r8)
    a6bc:	000007ff 	.word	0x000007ff
    a6c0:	ff7fffff 	.word	0xff7fffff
    a6c4:	800fffff 	.word	0x800fffff
    a6c8:	2b1f      	cmp	r3, #31
    a6ca:	dc63      	bgt.n	a794 <__aeabi_dadd+0x458>
    a6cc:	2020      	movs	r0, #32
    a6ce:	1ac3      	subs	r3, r0, r3
    a6d0:	0008      	movs	r0, r1
    a6d2:	4098      	lsls	r0, r3
    a6d4:	469c      	mov	ip, r3
    a6d6:	4683      	mov	fp, r0
    a6d8:	4653      	mov	r3, sl
    a6da:	0010      	movs	r0, r2
    a6dc:	40d8      	lsrs	r0, r3
    a6de:	0003      	movs	r3, r0
    a6e0:	4658      	mov	r0, fp
    a6e2:	4318      	orrs	r0, r3
    a6e4:	4663      	mov	r3, ip
    a6e6:	409a      	lsls	r2, r3
    a6e8:	1e53      	subs	r3, r2, #1
    a6ea:	419a      	sbcs	r2, r3
    a6ec:	4653      	mov	r3, sl
    a6ee:	4302      	orrs	r2, r0
    a6f0:	40d9      	lsrs	r1, r3
    a6f2:	e703      	b.n	a4fc <__aeabi_dadd+0x1c0>
    a6f4:	0026      	movs	r6, r4
    a6f6:	433e      	orrs	r6, r7
    a6f8:	d006      	beq.n	a708 <__aeabi_dadd+0x3cc>
    a6fa:	43eb      	mvns	r3, r5
    a6fc:	4699      	mov	r9, r3
    a6fe:	2b00      	cmp	r3, #0
    a700:	d0c7      	beq.n	a692 <__aeabi_dadd+0x356>
    a702:	4e94      	ldr	r6, [pc, #592]	; (a954 <__aeabi_dadd+0x618>)
    a704:	42b0      	cmp	r0, r6
    a706:	d1ac      	bne.n	a662 <__aeabi_dadd+0x326>
    a708:	000c      	movs	r4, r1
    a70a:	0017      	movs	r7, r2
    a70c:	0006      	movs	r6, r0
    a70e:	46d8      	mov	r8, fp
    a710:	e698      	b.n	a444 <__aeabi_dadd+0x108>
    a712:	4b90      	ldr	r3, [pc, #576]	; (a954 <__aeabi_dadd+0x618>)
    a714:	459a      	cmp	sl, r3
    a716:	d00b      	beq.n	a730 <__aeabi_dadd+0x3f4>
    a718:	4682      	mov	sl, r0
    a71a:	e6e7      	b.n	a4ec <__aeabi_dadd+0x1b0>
    a71c:	2800      	cmp	r0, #0
    a71e:	d000      	beq.n	a722 <__aeabi_dadd+0x3e6>
    a720:	e09e      	b.n	a860 <__aeabi_dadd+0x524>
    a722:	0018      	movs	r0, r3
    a724:	4310      	orrs	r0, r2
    a726:	d100      	bne.n	a72a <__aeabi_dadd+0x3ee>
    a728:	e0e9      	b.n	a8fe <__aeabi_dadd+0x5c2>
    a72a:	001c      	movs	r4, r3
    a72c:	0017      	movs	r7, r2
    a72e:	46d8      	mov	r8, fp
    a730:	4e88      	ldr	r6, [pc, #544]	; (a954 <__aeabi_dadd+0x618>)
    a732:	e687      	b.n	a444 <__aeabi_dadd+0x108>
    a734:	2500      	movs	r5, #0
    a736:	e772      	b.n	a61e <__aeabi_dadd+0x2e2>
    a738:	2100      	movs	r1, #0
    a73a:	e782      	b.n	a642 <__aeabi_dadd+0x306>
    a73c:	0023      	movs	r3, r4
    a73e:	433b      	orrs	r3, r7
    a740:	2e00      	cmp	r6, #0
    a742:	d000      	beq.n	a746 <__aeabi_dadd+0x40a>
    a744:	e0ab      	b.n	a89e <__aeabi_dadd+0x562>
    a746:	2b00      	cmp	r3, #0
    a748:	d100      	bne.n	a74c <__aeabi_dadd+0x410>
    a74a:	e0e7      	b.n	a91c <__aeabi_dadd+0x5e0>
    a74c:	000b      	movs	r3, r1
    a74e:	4313      	orrs	r3, r2
    a750:	d100      	bne.n	a754 <__aeabi_dadd+0x418>
    a752:	e677      	b.n	a444 <__aeabi_dadd+0x108>
    a754:	18ba      	adds	r2, r7, r2
    a756:	42ba      	cmp	r2, r7
    a758:	41bf      	sbcs	r7, r7
    a75a:	1864      	adds	r4, r4, r1
    a75c:	427f      	negs	r7, r7
    a75e:	19e4      	adds	r4, r4, r7
    a760:	0223      	lsls	r3, r4, #8
    a762:	d400      	bmi.n	a766 <__aeabi_dadd+0x42a>
    a764:	e0f2      	b.n	a94c <__aeabi_dadd+0x610>
    a766:	4b7c      	ldr	r3, [pc, #496]	; (a958 <__aeabi_dadd+0x61c>)
    a768:	0017      	movs	r7, r2
    a76a:	401c      	ands	r4, r3
    a76c:	0006      	movs	r6, r0
    a76e:	e669      	b.n	a444 <__aeabi_dadd+0x108>
    a770:	0020      	movs	r0, r4
    a772:	4338      	orrs	r0, r7
    a774:	2e00      	cmp	r6, #0
    a776:	d1d1      	bne.n	a71c <__aeabi_dadd+0x3e0>
    a778:	2800      	cmp	r0, #0
    a77a:	d15b      	bne.n	a834 <__aeabi_dadd+0x4f8>
    a77c:	001c      	movs	r4, r3
    a77e:	4314      	orrs	r4, r2
    a780:	d100      	bne.n	a784 <__aeabi_dadd+0x448>
    a782:	e0a8      	b.n	a8d6 <__aeabi_dadd+0x59a>
    a784:	001c      	movs	r4, r3
    a786:	0017      	movs	r7, r2
    a788:	46d8      	mov	r8, fp
    a78a:	e65b      	b.n	a444 <__aeabi_dadd+0x108>
    a78c:	0006      	movs	r6, r0
    a78e:	2400      	movs	r4, #0
    a790:	2700      	movs	r7, #0
    a792:	e697      	b.n	a4c4 <__aeabi_dadd+0x188>
    a794:	4650      	mov	r0, sl
    a796:	000b      	movs	r3, r1
    a798:	3820      	subs	r0, #32
    a79a:	40c3      	lsrs	r3, r0
    a79c:	4699      	mov	r9, r3
    a79e:	4653      	mov	r3, sl
    a7a0:	2b20      	cmp	r3, #32
    a7a2:	d100      	bne.n	a7a6 <__aeabi_dadd+0x46a>
    a7a4:	e095      	b.n	a8d2 <__aeabi_dadd+0x596>
    a7a6:	2340      	movs	r3, #64	; 0x40
    a7a8:	4650      	mov	r0, sl
    a7aa:	1a1b      	subs	r3, r3, r0
    a7ac:	4099      	lsls	r1, r3
    a7ae:	430a      	orrs	r2, r1
    a7b0:	1e51      	subs	r1, r2, #1
    a7b2:	418a      	sbcs	r2, r1
    a7b4:	464b      	mov	r3, r9
    a7b6:	2100      	movs	r1, #0
    a7b8:	431a      	orrs	r2, r3
    a7ba:	e69f      	b.n	a4fc <__aeabi_dadd+0x1c0>
    a7bc:	2e00      	cmp	r6, #0
    a7be:	d130      	bne.n	a822 <__aeabi_dadd+0x4e6>
    a7c0:	0026      	movs	r6, r4
    a7c2:	433e      	orrs	r6, r7
    a7c4:	d067      	beq.n	a896 <__aeabi_dadd+0x55a>
    a7c6:	43db      	mvns	r3, r3
    a7c8:	469a      	mov	sl, r3
    a7ca:	2b00      	cmp	r3, #0
    a7cc:	d01c      	beq.n	a808 <__aeabi_dadd+0x4cc>
    a7ce:	4e61      	ldr	r6, [pc, #388]	; (a954 <__aeabi_dadd+0x618>)
    a7d0:	42b0      	cmp	r0, r6
    a7d2:	d060      	beq.n	a896 <__aeabi_dadd+0x55a>
    a7d4:	4653      	mov	r3, sl
    a7d6:	2b38      	cmp	r3, #56	; 0x38
    a7d8:	dd00      	ble.n	a7dc <__aeabi_dadd+0x4a0>
    a7da:	e096      	b.n	a90a <__aeabi_dadd+0x5ce>
    a7dc:	2b1f      	cmp	r3, #31
    a7de:	dd00      	ble.n	a7e2 <__aeabi_dadd+0x4a6>
    a7e0:	e09f      	b.n	a922 <__aeabi_dadd+0x5e6>
    a7e2:	2620      	movs	r6, #32
    a7e4:	1af3      	subs	r3, r6, r3
    a7e6:	0026      	movs	r6, r4
    a7e8:	409e      	lsls	r6, r3
    a7ea:	469c      	mov	ip, r3
    a7ec:	46b3      	mov	fp, r6
    a7ee:	4653      	mov	r3, sl
    a7f0:	003e      	movs	r6, r7
    a7f2:	40de      	lsrs	r6, r3
    a7f4:	0033      	movs	r3, r6
    a7f6:	465e      	mov	r6, fp
    a7f8:	431e      	orrs	r6, r3
    a7fa:	4663      	mov	r3, ip
    a7fc:	409f      	lsls	r7, r3
    a7fe:	1e7b      	subs	r3, r7, #1
    a800:	419f      	sbcs	r7, r3
    a802:	4653      	mov	r3, sl
    a804:	40dc      	lsrs	r4, r3
    a806:	4337      	orrs	r7, r6
    a808:	18bf      	adds	r7, r7, r2
    a80a:	4297      	cmp	r7, r2
    a80c:	4192      	sbcs	r2, r2
    a80e:	1864      	adds	r4, r4, r1
    a810:	4252      	negs	r2, r2
    a812:	18a4      	adds	r4, r4, r2
    a814:	0006      	movs	r6, r0
    a816:	e678      	b.n	a50a <__aeabi_dadd+0x1ce>
    a818:	4327      	orrs	r7, r4
    a81a:	1e7c      	subs	r4, r7, #1
    a81c:	41a7      	sbcs	r7, r4
    a81e:	2400      	movs	r4, #0
    a820:	e737      	b.n	a692 <__aeabi_dadd+0x356>
    a822:	4e4c      	ldr	r6, [pc, #304]	; (a954 <__aeabi_dadd+0x618>)
    a824:	42b0      	cmp	r0, r6
    a826:	d036      	beq.n	a896 <__aeabi_dadd+0x55a>
    a828:	2680      	movs	r6, #128	; 0x80
    a82a:	425b      	negs	r3, r3
    a82c:	0436      	lsls	r6, r6, #16
    a82e:	469a      	mov	sl, r3
    a830:	4334      	orrs	r4, r6
    a832:	e7cf      	b.n	a7d4 <__aeabi_dadd+0x498>
    a834:	0018      	movs	r0, r3
    a836:	4310      	orrs	r0, r2
    a838:	d100      	bne.n	a83c <__aeabi_dadd+0x500>
    a83a:	e603      	b.n	a444 <__aeabi_dadd+0x108>
    a83c:	1ab8      	subs	r0, r7, r2
    a83e:	4684      	mov	ip, r0
    a840:	4567      	cmp	r7, ip
    a842:	41ad      	sbcs	r5, r5
    a844:	1ae0      	subs	r0, r4, r3
    a846:	426d      	negs	r5, r5
    a848:	1b40      	subs	r0, r0, r5
    a84a:	0205      	lsls	r5, r0, #8
    a84c:	d400      	bmi.n	a850 <__aeabi_dadd+0x514>
    a84e:	e62c      	b.n	a4aa <__aeabi_dadd+0x16e>
    a850:	1bd7      	subs	r7, r2, r7
    a852:	42ba      	cmp	r2, r7
    a854:	4192      	sbcs	r2, r2
    a856:	1b1c      	subs	r4, r3, r4
    a858:	4252      	negs	r2, r2
    a85a:	1aa4      	subs	r4, r4, r2
    a85c:	46d8      	mov	r8, fp
    a85e:	e5f1      	b.n	a444 <__aeabi_dadd+0x108>
    a860:	0018      	movs	r0, r3
    a862:	4310      	orrs	r0, r2
    a864:	d100      	bne.n	a868 <__aeabi_dadd+0x52c>
    a866:	e763      	b.n	a730 <__aeabi_dadd+0x3f4>
    a868:	08f8      	lsrs	r0, r7, #3
    a86a:	0767      	lsls	r7, r4, #29
    a86c:	4307      	orrs	r7, r0
    a86e:	2080      	movs	r0, #128	; 0x80
    a870:	08e4      	lsrs	r4, r4, #3
    a872:	0300      	lsls	r0, r0, #12
    a874:	4204      	tst	r4, r0
    a876:	d008      	beq.n	a88a <__aeabi_dadd+0x54e>
    a878:	08dd      	lsrs	r5, r3, #3
    a87a:	4205      	tst	r5, r0
    a87c:	d105      	bne.n	a88a <__aeabi_dadd+0x54e>
    a87e:	08d2      	lsrs	r2, r2, #3
    a880:	0759      	lsls	r1, r3, #29
    a882:	4311      	orrs	r1, r2
    a884:	000f      	movs	r7, r1
    a886:	002c      	movs	r4, r5
    a888:	46d8      	mov	r8, fp
    a88a:	0f7b      	lsrs	r3, r7, #29
    a88c:	00e4      	lsls	r4, r4, #3
    a88e:	431c      	orrs	r4, r3
    a890:	00ff      	lsls	r7, r7, #3
    a892:	4e30      	ldr	r6, [pc, #192]	; (a954 <__aeabi_dadd+0x618>)
    a894:	e5d6      	b.n	a444 <__aeabi_dadd+0x108>
    a896:	000c      	movs	r4, r1
    a898:	0017      	movs	r7, r2
    a89a:	0006      	movs	r6, r0
    a89c:	e5d2      	b.n	a444 <__aeabi_dadd+0x108>
    a89e:	2b00      	cmp	r3, #0
    a8a0:	d038      	beq.n	a914 <__aeabi_dadd+0x5d8>
    a8a2:	000b      	movs	r3, r1
    a8a4:	4313      	orrs	r3, r2
    a8a6:	d100      	bne.n	a8aa <__aeabi_dadd+0x56e>
    a8a8:	e742      	b.n	a730 <__aeabi_dadd+0x3f4>
    a8aa:	08f8      	lsrs	r0, r7, #3
    a8ac:	0767      	lsls	r7, r4, #29
    a8ae:	4307      	orrs	r7, r0
    a8b0:	2080      	movs	r0, #128	; 0x80
    a8b2:	08e4      	lsrs	r4, r4, #3
    a8b4:	0300      	lsls	r0, r0, #12
    a8b6:	4204      	tst	r4, r0
    a8b8:	d0e7      	beq.n	a88a <__aeabi_dadd+0x54e>
    a8ba:	08cb      	lsrs	r3, r1, #3
    a8bc:	4203      	tst	r3, r0
    a8be:	d1e4      	bne.n	a88a <__aeabi_dadd+0x54e>
    a8c0:	08d2      	lsrs	r2, r2, #3
    a8c2:	0749      	lsls	r1, r1, #29
    a8c4:	4311      	orrs	r1, r2
    a8c6:	000f      	movs	r7, r1
    a8c8:	001c      	movs	r4, r3
    a8ca:	e7de      	b.n	a88a <__aeabi_dadd+0x54e>
    a8cc:	2700      	movs	r7, #0
    a8ce:	2400      	movs	r4, #0
    a8d0:	e5d5      	b.n	a47e <__aeabi_dadd+0x142>
    a8d2:	2100      	movs	r1, #0
    a8d4:	e76b      	b.n	a7ae <__aeabi_dadd+0x472>
    a8d6:	2500      	movs	r5, #0
    a8d8:	2700      	movs	r7, #0
    a8da:	e5f3      	b.n	a4c4 <__aeabi_dadd+0x188>
    a8dc:	464e      	mov	r6, r9
    a8de:	0025      	movs	r5, r4
    a8e0:	3e20      	subs	r6, #32
    a8e2:	40f5      	lsrs	r5, r6
    a8e4:	464b      	mov	r3, r9
    a8e6:	002e      	movs	r6, r5
    a8e8:	2b20      	cmp	r3, #32
    a8ea:	d02d      	beq.n	a948 <__aeabi_dadd+0x60c>
    a8ec:	2540      	movs	r5, #64	; 0x40
    a8ee:	1aed      	subs	r5, r5, r3
    a8f0:	40ac      	lsls	r4, r5
    a8f2:	4327      	orrs	r7, r4
    a8f4:	1e7c      	subs	r4, r7, #1
    a8f6:	41a7      	sbcs	r7, r4
    a8f8:	2400      	movs	r4, #0
    a8fa:	4337      	orrs	r7, r6
    a8fc:	e6c9      	b.n	a692 <__aeabi_dadd+0x356>
    a8fe:	2480      	movs	r4, #128	; 0x80
    a900:	2500      	movs	r5, #0
    a902:	0324      	lsls	r4, r4, #12
    a904:	4e13      	ldr	r6, [pc, #76]	; (a954 <__aeabi_dadd+0x618>)
    a906:	2700      	movs	r7, #0
    a908:	e5dc      	b.n	a4c4 <__aeabi_dadd+0x188>
    a90a:	4327      	orrs	r7, r4
    a90c:	1e7c      	subs	r4, r7, #1
    a90e:	41a7      	sbcs	r7, r4
    a910:	2400      	movs	r4, #0
    a912:	e779      	b.n	a808 <__aeabi_dadd+0x4cc>
    a914:	000c      	movs	r4, r1
    a916:	0017      	movs	r7, r2
    a918:	4e0e      	ldr	r6, [pc, #56]	; (a954 <__aeabi_dadd+0x618>)
    a91a:	e593      	b.n	a444 <__aeabi_dadd+0x108>
    a91c:	000c      	movs	r4, r1
    a91e:	0017      	movs	r7, r2
    a920:	e590      	b.n	a444 <__aeabi_dadd+0x108>
    a922:	4656      	mov	r6, sl
    a924:	0023      	movs	r3, r4
    a926:	3e20      	subs	r6, #32
    a928:	40f3      	lsrs	r3, r6
    a92a:	4699      	mov	r9, r3
    a92c:	4653      	mov	r3, sl
    a92e:	2b20      	cmp	r3, #32
    a930:	d00e      	beq.n	a950 <__aeabi_dadd+0x614>
    a932:	2340      	movs	r3, #64	; 0x40
    a934:	4656      	mov	r6, sl
    a936:	1b9b      	subs	r3, r3, r6
    a938:	409c      	lsls	r4, r3
    a93a:	4327      	orrs	r7, r4
    a93c:	1e7c      	subs	r4, r7, #1
    a93e:	41a7      	sbcs	r7, r4
    a940:	464b      	mov	r3, r9
    a942:	2400      	movs	r4, #0
    a944:	431f      	orrs	r7, r3
    a946:	e75f      	b.n	a808 <__aeabi_dadd+0x4cc>
    a948:	2400      	movs	r4, #0
    a94a:	e7d2      	b.n	a8f2 <__aeabi_dadd+0x5b6>
    a94c:	0017      	movs	r7, r2
    a94e:	e5b2      	b.n	a4b6 <__aeabi_dadd+0x17a>
    a950:	2400      	movs	r4, #0
    a952:	e7f2      	b.n	a93a <__aeabi_dadd+0x5fe>
    a954:	000007ff 	.word	0x000007ff
    a958:	ff7fffff 	.word	0xff7fffff

0000a95c <__aeabi_ddiv>:
    a95c:	b5f0      	push	{r4, r5, r6, r7, lr}
    a95e:	4657      	mov	r7, sl
    a960:	4645      	mov	r5, r8
    a962:	46de      	mov	lr, fp
    a964:	464e      	mov	r6, r9
    a966:	b5e0      	push	{r5, r6, r7, lr}
    a968:	004c      	lsls	r4, r1, #1
    a96a:	030e      	lsls	r6, r1, #12
    a96c:	b087      	sub	sp, #28
    a96e:	4683      	mov	fp, r0
    a970:	4692      	mov	sl, r2
    a972:	001d      	movs	r5, r3
    a974:	4680      	mov	r8, r0
    a976:	0b36      	lsrs	r6, r6, #12
    a978:	0d64      	lsrs	r4, r4, #21
    a97a:	0fcf      	lsrs	r7, r1, #31
    a97c:	2c00      	cmp	r4, #0
    a97e:	d04f      	beq.n	aa20 <__aeabi_ddiv+0xc4>
    a980:	4b6f      	ldr	r3, [pc, #444]	; (ab40 <__aeabi_ddiv+0x1e4>)
    a982:	429c      	cmp	r4, r3
    a984:	d035      	beq.n	a9f2 <__aeabi_ddiv+0x96>
    a986:	2380      	movs	r3, #128	; 0x80
    a988:	0f42      	lsrs	r2, r0, #29
    a98a:	041b      	lsls	r3, r3, #16
    a98c:	00f6      	lsls	r6, r6, #3
    a98e:	4313      	orrs	r3, r2
    a990:	4333      	orrs	r3, r6
    a992:	4699      	mov	r9, r3
    a994:	00c3      	lsls	r3, r0, #3
    a996:	4698      	mov	r8, r3
    a998:	4b6a      	ldr	r3, [pc, #424]	; (ab44 <__aeabi_ddiv+0x1e8>)
    a99a:	2600      	movs	r6, #0
    a99c:	469c      	mov	ip, r3
    a99e:	2300      	movs	r3, #0
    a9a0:	4464      	add	r4, ip
    a9a2:	9303      	str	r3, [sp, #12]
    a9a4:	032b      	lsls	r3, r5, #12
    a9a6:	0b1b      	lsrs	r3, r3, #12
    a9a8:	469b      	mov	fp, r3
    a9aa:	006b      	lsls	r3, r5, #1
    a9ac:	0fed      	lsrs	r5, r5, #31
    a9ae:	4650      	mov	r0, sl
    a9b0:	0d5b      	lsrs	r3, r3, #21
    a9b2:	9501      	str	r5, [sp, #4]
    a9b4:	d05e      	beq.n	aa74 <__aeabi_ddiv+0x118>
    a9b6:	4a62      	ldr	r2, [pc, #392]	; (ab40 <__aeabi_ddiv+0x1e4>)
    a9b8:	4293      	cmp	r3, r2
    a9ba:	d053      	beq.n	aa64 <__aeabi_ddiv+0x108>
    a9bc:	465a      	mov	r2, fp
    a9be:	00d1      	lsls	r1, r2, #3
    a9c0:	2280      	movs	r2, #128	; 0x80
    a9c2:	0f40      	lsrs	r0, r0, #29
    a9c4:	0412      	lsls	r2, r2, #16
    a9c6:	4302      	orrs	r2, r0
    a9c8:	430a      	orrs	r2, r1
    a9ca:	4693      	mov	fp, r2
    a9cc:	4652      	mov	r2, sl
    a9ce:	00d1      	lsls	r1, r2, #3
    a9d0:	4a5c      	ldr	r2, [pc, #368]	; (ab44 <__aeabi_ddiv+0x1e8>)
    a9d2:	4694      	mov	ip, r2
    a9d4:	2200      	movs	r2, #0
    a9d6:	4463      	add	r3, ip
    a9d8:	0038      	movs	r0, r7
    a9da:	4068      	eors	r0, r5
    a9dc:	4684      	mov	ip, r0
    a9de:	9002      	str	r0, [sp, #8]
    a9e0:	1ae4      	subs	r4, r4, r3
    a9e2:	4316      	orrs	r6, r2
    a9e4:	2e0f      	cmp	r6, #15
    a9e6:	d900      	bls.n	a9ea <__aeabi_ddiv+0x8e>
    a9e8:	e0b4      	b.n	ab54 <__aeabi_ddiv+0x1f8>
    a9ea:	4b57      	ldr	r3, [pc, #348]	; (ab48 <__aeabi_ddiv+0x1ec>)
    a9ec:	00b6      	lsls	r6, r6, #2
    a9ee:	599b      	ldr	r3, [r3, r6]
    a9f0:	469f      	mov	pc, r3
    a9f2:	0003      	movs	r3, r0
    a9f4:	4333      	orrs	r3, r6
    a9f6:	4699      	mov	r9, r3
    a9f8:	d16c      	bne.n	aad4 <__aeabi_ddiv+0x178>
    a9fa:	2300      	movs	r3, #0
    a9fc:	4698      	mov	r8, r3
    a9fe:	3302      	adds	r3, #2
    aa00:	2608      	movs	r6, #8
    aa02:	9303      	str	r3, [sp, #12]
    aa04:	e7ce      	b.n	a9a4 <__aeabi_ddiv+0x48>
    aa06:	46cb      	mov	fp, r9
    aa08:	4641      	mov	r1, r8
    aa0a:	9a03      	ldr	r2, [sp, #12]
    aa0c:	9701      	str	r7, [sp, #4]
    aa0e:	2a02      	cmp	r2, #2
    aa10:	d165      	bne.n	aade <__aeabi_ddiv+0x182>
    aa12:	9b01      	ldr	r3, [sp, #4]
    aa14:	4c4a      	ldr	r4, [pc, #296]	; (ab40 <__aeabi_ddiv+0x1e4>)
    aa16:	469c      	mov	ip, r3
    aa18:	2300      	movs	r3, #0
    aa1a:	2200      	movs	r2, #0
    aa1c:	4698      	mov	r8, r3
    aa1e:	e06b      	b.n	aaf8 <__aeabi_ddiv+0x19c>
    aa20:	0003      	movs	r3, r0
    aa22:	4333      	orrs	r3, r6
    aa24:	4699      	mov	r9, r3
    aa26:	d04e      	beq.n	aac6 <__aeabi_ddiv+0x16a>
    aa28:	2e00      	cmp	r6, #0
    aa2a:	d100      	bne.n	aa2e <__aeabi_ddiv+0xd2>
    aa2c:	e1bc      	b.n	ada8 <__aeabi_ddiv+0x44c>
    aa2e:	0030      	movs	r0, r6
    aa30:	f7fe fc44 	bl	92bc <__clzsi2>
    aa34:	0003      	movs	r3, r0
    aa36:	3b0b      	subs	r3, #11
    aa38:	2b1c      	cmp	r3, #28
    aa3a:	dd00      	ble.n	aa3e <__aeabi_ddiv+0xe2>
    aa3c:	e1ac      	b.n	ad98 <__aeabi_ddiv+0x43c>
    aa3e:	221d      	movs	r2, #29
    aa40:	1ad3      	subs	r3, r2, r3
    aa42:	465a      	mov	r2, fp
    aa44:	0001      	movs	r1, r0
    aa46:	40da      	lsrs	r2, r3
    aa48:	3908      	subs	r1, #8
    aa4a:	408e      	lsls	r6, r1
    aa4c:	0013      	movs	r3, r2
    aa4e:	4333      	orrs	r3, r6
    aa50:	4699      	mov	r9, r3
    aa52:	465b      	mov	r3, fp
    aa54:	408b      	lsls	r3, r1
    aa56:	4698      	mov	r8, r3
    aa58:	2300      	movs	r3, #0
    aa5a:	4c3c      	ldr	r4, [pc, #240]	; (ab4c <__aeabi_ddiv+0x1f0>)
    aa5c:	2600      	movs	r6, #0
    aa5e:	1a24      	subs	r4, r4, r0
    aa60:	9303      	str	r3, [sp, #12]
    aa62:	e79f      	b.n	a9a4 <__aeabi_ddiv+0x48>
    aa64:	4651      	mov	r1, sl
    aa66:	465a      	mov	r2, fp
    aa68:	4311      	orrs	r1, r2
    aa6a:	d129      	bne.n	aac0 <__aeabi_ddiv+0x164>
    aa6c:	2200      	movs	r2, #0
    aa6e:	4693      	mov	fp, r2
    aa70:	3202      	adds	r2, #2
    aa72:	e7b1      	b.n	a9d8 <__aeabi_ddiv+0x7c>
    aa74:	4659      	mov	r1, fp
    aa76:	4301      	orrs	r1, r0
    aa78:	d01e      	beq.n	aab8 <__aeabi_ddiv+0x15c>
    aa7a:	465b      	mov	r3, fp
    aa7c:	2b00      	cmp	r3, #0
    aa7e:	d100      	bne.n	aa82 <__aeabi_ddiv+0x126>
    aa80:	e19e      	b.n	adc0 <__aeabi_ddiv+0x464>
    aa82:	4658      	mov	r0, fp
    aa84:	f7fe fc1a 	bl	92bc <__clzsi2>
    aa88:	0003      	movs	r3, r0
    aa8a:	3b0b      	subs	r3, #11
    aa8c:	2b1c      	cmp	r3, #28
    aa8e:	dd00      	ble.n	aa92 <__aeabi_ddiv+0x136>
    aa90:	e18f      	b.n	adb2 <__aeabi_ddiv+0x456>
    aa92:	0002      	movs	r2, r0
    aa94:	4659      	mov	r1, fp
    aa96:	3a08      	subs	r2, #8
    aa98:	4091      	lsls	r1, r2
    aa9a:	468b      	mov	fp, r1
    aa9c:	211d      	movs	r1, #29
    aa9e:	1acb      	subs	r3, r1, r3
    aaa0:	4651      	mov	r1, sl
    aaa2:	40d9      	lsrs	r1, r3
    aaa4:	000b      	movs	r3, r1
    aaa6:	4659      	mov	r1, fp
    aaa8:	430b      	orrs	r3, r1
    aaaa:	4651      	mov	r1, sl
    aaac:	469b      	mov	fp, r3
    aaae:	4091      	lsls	r1, r2
    aab0:	4b26      	ldr	r3, [pc, #152]	; (ab4c <__aeabi_ddiv+0x1f0>)
    aab2:	2200      	movs	r2, #0
    aab4:	1a1b      	subs	r3, r3, r0
    aab6:	e78f      	b.n	a9d8 <__aeabi_ddiv+0x7c>
    aab8:	2300      	movs	r3, #0
    aaba:	2201      	movs	r2, #1
    aabc:	469b      	mov	fp, r3
    aabe:	e78b      	b.n	a9d8 <__aeabi_ddiv+0x7c>
    aac0:	4651      	mov	r1, sl
    aac2:	2203      	movs	r2, #3
    aac4:	e788      	b.n	a9d8 <__aeabi_ddiv+0x7c>
    aac6:	2300      	movs	r3, #0
    aac8:	4698      	mov	r8, r3
    aaca:	3301      	adds	r3, #1
    aacc:	2604      	movs	r6, #4
    aace:	2400      	movs	r4, #0
    aad0:	9303      	str	r3, [sp, #12]
    aad2:	e767      	b.n	a9a4 <__aeabi_ddiv+0x48>
    aad4:	2303      	movs	r3, #3
    aad6:	46b1      	mov	r9, r6
    aad8:	9303      	str	r3, [sp, #12]
    aada:	260c      	movs	r6, #12
    aadc:	e762      	b.n	a9a4 <__aeabi_ddiv+0x48>
    aade:	2a03      	cmp	r2, #3
    aae0:	d100      	bne.n	aae4 <__aeabi_ddiv+0x188>
    aae2:	e25c      	b.n	af9e <__aeabi_ddiv+0x642>
    aae4:	9b01      	ldr	r3, [sp, #4]
    aae6:	2a01      	cmp	r2, #1
    aae8:	d000      	beq.n	aaec <__aeabi_ddiv+0x190>
    aaea:	e1e4      	b.n	aeb6 <__aeabi_ddiv+0x55a>
    aaec:	4013      	ands	r3, r2
    aaee:	469c      	mov	ip, r3
    aaf0:	2300      	movs	r3, #0
    aaf2:	2400      	movs	r4, #0
    aaf4:	2200      	movs	r2, #0
    aaf6:	4698      	mov	r8, r3
    aaf8:	2100      	movs	r1, #0
    aafa:	0312      	lsls	r2, r2, #12
    aafc:	0b13      	lsrs	r3, r2, #12
    aafe:	0d0a      	lsrs	r2, r1, #20
    ab00:	0512      	lsls	r2, r2, #20
    ab02:	431a      	orrs	r2, r3
    ab04:	0523      	lsls	r3, r4, #20
    ab06:	4c12      	ldr	r4, [pc, #72]	; (ab50 <__aeabi_ddiv+0x1f4>)
    ab08:	4640      	mov	r0, r8
    ab0a:	4022      	ands	r2, r4
    ab0c:	4313      	orrs	r3, r2
    ab0e:	4662      	mov	r2, ip
    ab10:	005b      	lsls	r3, r3, #1
    ab12:	07d2      	lsls	r2, r2, #31
    ab14:	085b      	lsrs	r3, r3, #1
    ab16:	4313      	orrs	r3, r2
    ab18:	0019      	movs	r1, r3
    ab1a:	b007      	add	sp, #28
    ab1c:	bc3c      	pop	{r2, r3, r4, r5}
    ab1e:	4690      	mov	r8, r2
    ab20:	4699      	mov	r9, r3
    ab22:	46a2      	mov	sl, r4
    ab24:	46ab      	mov	fp, r5
    ab26:	bdf0      	pop	{r4, r5, r6, r7, pc}
    ab28:	2300      	movs	r3, #0
    ab2a:	2280      	movs	r2, #128	; 0x80
    ab2c:	469c      	mov	ip, r3
    ab2e:	0312      	lsls	r2, r2, #12
    ab30:	4698      	mov	r8, r3
    ab32:	4c03      	ldr	r4, [pc, #12]	; (ab40 <__aeabi_ddiv+0x1e4>)
    ab34:	e7e0      	b.n	aaf8 <__aeabi_ddiv+0x19c>
    ab36:	2300      	movs	r3, #0
    ab38:	4c01      	ldr	r4, [pc, #4]	; (ab40 <__aeabi_ddiv+0x1e4>)
    ab3a:	2200      	movs	r2, #0
    ab3c:	4698      	mov	r8, r3
    ab3e:	e7db      	b.n	aaf8 <__aeabi_ddiv+0x19c>
    ab40:	000007ff 	.word	0x000007ff
    ab44:	fffffc01 	.word	0xfffffc01
    ab48:	0000c5fc 	.word	0x0000c5fc
    ab4c:	fffffc0d 	.word	0xfffffc0d
    ab50:	800fffff 	.word	0x800fffff
    ab54:	45d9      	cmp	r9, fp
    ab56:	d900      	bls.n	ab5a <__aeabi_ddiv+0x1fe>
    ab58:	e139      	b.n	adce <__aeabi_ddiv+0x472>
    ab5a:	d100      	bne.n	ab5e <__aeabi_ddiv+0x202>
    ab5c:	e134      	b.n	adc8 <__aeabi_ddiv+0x46c>
    ab5e:	2300      	movs	r3, #0
    ab60:	4646      	mov	r6, r8
    ab62:	464d      	mov	r5, r9
    ab64:	469a      	mov	sl, r3
    ab66:	3c01      	subs	r4, #1
    ab68:	465b      	mov	r3, fp
    ab6a:	0e0a      	lsrs	r2, r1, #24
    ab6c:	021b      	lsls	r3, r3, #8
    ab6e:	431a      	orrs	r2, r3
    ab70:	020b      	lsls	r3, r1, #8
    ab72:	0c17      	lsrs	r7, r2, #16
    ab74:	9303      	str	r3, [sp, #12]
    ab76:	0413      	lsls	r3, r2, #16
    ab78:	0c1b      	lsrs	r3, r3, #16
    ab7a:	0039      	movs	r1, r7
    ab7c:	0028      	movs	r0, r5
    ab7e:	4690      	mov	r8, r2
    ab80:	9301      	str	r3, [sp, #4]
    ab82:	f7fe f9eb 	bl	8f5c <__udivsi3>
    ab86:	0002      	movs	r2, r0
    ab88:	9b01      	ldr	r3, [sp, #4]
    ab8a:	4683      	mov	fp, r0
    ab8c:	435a      	muls	r2, r3
    ab8e:	0028      	movs	r0, r5
    ab90:	0039      	movs	r1, r7
    ab92:	4691      	mov	r9, r2
    ab94:	f7fe fa68 	bl	9068 <__aeabi_uidivmod>
    ab98:	0c35      	lsrs	r5, r6, #16
    ab9a:	0409      	lsls	r1, r1, #16
    ab9c:	430d      	orrs	r5, r1
    ab9e:	45a9      	cmp	r9, r5
    aba0:	d90d      	bls.n	abbe <__aeabi_ddiv+0x262>
    aba2:	465b      	mov	r3, fp
    aba4:	4445      	add	r5, r8
    aba6:	3b01      	subs	r3, #1
    aba8:	45a8      	cmp	r8, r5
    abaa:	d900      	bls.n	abae <__aeabi_ddiv+0x252>
    abac:	e13a      	b.n	ae24 <__aeabi_ddiv+0x4c8>
    abae:	45a9      	cmp	r9, r5
    abb0:	d800      	bhi.n	abb4 <__aeabi_ddiv+0x258>
    abb2:	e137      	b.n	ae24 <__aeabi_ddiv+0x4c8>
    abb4:	2302      	movs	r3, #2
    abb6:	425b      	negs	r3, r3
    abb8:	469c      	mov	ip, r3
    abba:	4445      	add	r5, r8
    abbc:	44e3      	add	fp, ip
    abbe:	464b      	mov	r3, r9
    abc0:	1aeb      	subs	r3, r5, r3
    abc2:	0039      	movs	r1, r7
    abc4:	0018      	movs	r0, r3
    abc6:	9304      	str	r3, [sp, #16]
    abc8:	f7fe f9c8 	bl	8f5c <__udivsi3>
    abcc:	9b01      	ldr	r3, [sp, #4]
    abce:	0005      	movs	r5, r0
    abd0:	4343      	muls	r3, r0
    abd2:	0039      	movs	r1, r7
    abd4:	9804      	ldr	r0, [sp, #16]
    abd6:	4699      	mov	r9, r3
    abd8:	f7fe fa46 	bl	9068 <__aeabi_uidivmod>
    abdc:	0433      	lsls	r3, r6, #16
    abde:	0409      	lsls	r1, r1, #16
    abe0:	0c1b      	lsrs	r3, r3, #16
    abe2:	430b      	orrs	r3, r1
    abe4:	4599      	cmp	r9, r3
    abe6:	d909      	bls.n	abfc <__aeabi_ddiv+0x2a0>
    abe8:	4443      	add	r3, r8
    abea:	1e6a      	subs	r2, r5, #1
    abec:	4598      	cmp	r8, r3
    abee:	d900      	bls.n	abf2 <__aeabi_ddiv+0x296>
    abf0:	e11a      	b.n	ae28 <__aeabi_ddiv+0x4cc>
    abf2:	4599      	cmp	r9, r3
    abf4:	d800      	bhi.n	abf8 <__aeabi_ddiv+0x29c>
    abf6:	e117      	b.n	ae28 <__aeabi_ddiv+0x4cc>
    abf8:	3d02      	subs	r5, #2
    abfa:	4443      	add	r3, r8
    abfc:	464a      	mov	r2, r9
    abfe:	1a9b      	subs	r3, r3, r2
    ac00:	465a      	mov	r2, fp
    ac02:	0412      	lsls	r2, r2, #16
    ac04:	432a      	orrs	r2, r5
    ac06:	9903      	ldr	r1, [sp, #12]
    ac08:	4693      	mov	fp, r2
    ac0a:	0c10      	lsrs	r0, r2, #16
    ac0c:	0c0a      	lsrs	r2, r1, #16
    ac0e:	4691      	mov	r9, r2
    ac10:	0409      	lsls	r1, r1, #16
    ac12:	465a      	mov	r2, fp
    ac14:	0c09      	lsrs	r1, r1, #16
    ac16:	464e      	mov	r6, r9
    ac18:	000d      	movs	r5, r1
    ac1a:	0412      	lsls	r2, r2, #16
    ac1c:	0c12      	lsrs	r2, r2, #16
    ac1e:	4345      	muls	r5, r0
    ac20:	9105      	str	r1, [sp, #20]
    ac22:	4351      	muls	r1, r2
    ac24:	4372      	muls	r2, r6
    ac26:	4370      	muls	r0, r6
    ac28:	1952      	adds	r2, r2, r5
    ac2a:	0c0e      	lsrs	r6, r1, #16
    ac2c:	18b2      	adds	r2, r6, r2
    ac2e:	4295      	cmp	r5, r2
    ac30:	d903      	bls.n	ac3a <__aeabi_ddiv+0x2de>
    ac32:	2580      	movs	r5, #128	; 0x80
    ac34:	026d      	lsls	r5, r5, #9
    ac36:	46ac      	mov	ip, r5
    ac38:	4460      	add	r0, ip
    ac3a:	0c15      	lsrs	r5, r2, #16
    ac3c:	0409      	lsls	r1, r1, #16
    ac3e:	0412      	lsls	r2, r2, #16
    ac40:	0c09      	lsrs	r1, r1, #16
    ac42:	1828      	adds	r0, r5, r0
    ac44:	1852      	adds	r2, r2, r1
    ac46:	4283      	cmp	r3, r0
    ac48:	d200      	bcs.n	ac4c <__aeabi_ddiv+0x2f0>
    ac4a:	e0ce      	b.n	adea <__aeabi_ddiv+0x48e>
    ac4c:	d100      	bne.n	ac50 <__aeabi_ddiv+0x2f4>
    ac4e:	e0c8      	b.n	ade2 <__aeabi_ddiv+0x486>
    ac50:	1a1d      	subs	r5, r3, r0
    ac52:	4653      	mov	r3, sl
    ac54:	1a9e      	subs	r6, r3, r2
    ac56:	45b2      	cmp	sl, r6
    ac58:	4192      	sbcs	r2, r2
    ac5a:	4252      	negs	r2, r2
    ac5c:	1aab      	subs	r3, r5, r2
    ac5e:	469a      	mov	sl, r3
    ac60:	4598      	cmp	r8, r3
    ac62:	d100      	bne.n	ac66 <__aeabi_ddiv+0x30a>
    ac64:	e117      	b.n	ae96 <__aeabi_ddiv+0x53a>
    ac66:	0039      	movs	r1, r7
    ac68:	0018      	movs	r0, r3
    ac6a:	f7fe f977 	bl	8f5c <__udivsi3>
    ac6e:	9b01      	ldr	r3, [sp, #4]
    ac70:	0005      	movs	r5, r0
    ac72:	4343      	muls	r3, r0
    ac74:	0039      	movs	r1, r7
    ac76:	4650      	mov	r0, sl
    ac78:	9304      	str	r3, [sp, #16]
    ac7a:	f7fe f9f5 	bl	9068 <__aeabi_uidivmod>
    ac7e:	9804      	ldr	r0, [sp, #16]
    ac80:	040b      	lsls	r3, r1, #16
    ac82:	0c31      	lsrs	r1, r6, #16
    ac84:	4319      	orrs	r1, r3
    ac86:	4288      	cmp	r0, r1
    ac88:	d909      	bls.n	ac9e <__aeabi_ddiv+0x342>
    ac8a:	4441      	add	r1, r8
    ac8c:	1e6b      	subs	r3, r5, #1
    ac8e:	4588      	cmp	r8, r1
    ac90:	d900      	bls.n	ac94 <__aeabi_ddiv+0x338>
    ac92:	e107      	b.n	aea4 <__aeabi_ddiv+0x548>
    ac94:	4288      	cmp	r0, r1
    ac96:	d800      	bhi.n	ac9a <__aeabi_ddiv+0x33e>
    ac98:	e104      	b.n	aea4 <__aeabi_ddiv+0x548>
    ac9a:	3d02      	subs	r5, #2
    ac9c:	4441      	add	r1, r8
    ac9e:	9b04      	ldr	r3, [sp, #16]
    aca0:	1acb      	subs	r3, r1, r3
    aca2:	0018      	movs	r0, r3
    aca4:	0039      	movs	r1, r7
    aca6:	9304      	str	r3, [sp, #16]
    aca8:	f7fe f958 	bl	8f5c <__udivsi3>
    acac:	9b01      	ldr	r3, [sp, #4]
    acae:	4682      	mov	sl, r0
    acb0:	4343      	muls	r3, r0
    acb2:	0039      	movs	r1, r7
    acb4:	9804      	ldr	r0, [sp, #16]
    acb6:	9301      	str	r3, [sp, #4]
    acb8:	f7fe f9d6 	bl	9068 <__aeabi_uidivmod>
    acbc:	9801      	ldr	r0, [sp, #4]
    acbe:	040b      	lsls	r3, r1, #16
    acc0:	0431      	lsls	r1, r6, #16
    acc2:	0c09      	lsrs	r1, r1, #16
    acc4:	4319      	orrs	r1, r3
    acc6:	4288      	cmp	r0, r1
    acc8:	d90d      	bls.n	ace6 <__aeabi_ddiv+0x38a>
    acca:	4653      	mov	r3, sl
    accc:	4441      	add	r1, r8
    acce:	3b01      	subs	r3, #1
    acd0:	4588      	cmp	r8, r1
    acd2:	d900      	bls.n	acd6 <__aeabi_ddiv+0x37a>
    acd4:	e0e8      	b.n	aea8 <__aeabi_ddiv+0x54c>
    acd6:	4288      	cmp	r0, r1
    acd8:	d800      	bhi.n	acdc <__aeabi_ddiv+0x380>
    acda:	e0e5      	b.n	aea8 <__aeabi_ddiv+0x54c>
    acdc:	2302      	movs	r3, #2
    acde:	425b      	negs	r3, r3
    ace0:	469c      	mov	ip, r3
    ace2:	4441      	add	r1, r8
    ace4:	44e2      	add	sl, ip
    ace6:	9b01      	ldr	r3, [sp, #4]
    ace8:	042d      	lsls	r5, r5, #16
    acea:	1ace      	subs	r6, r1, r3
    acec:	4651      	mov	r1, sl
    acee:	4329      	orrs	r1, r5
    acf0:	9d05      	ldr	r5, [sp, #20]
    acf2:	464f      	mov	r7, r9
    acf4:	002a      	movs	r2, r5
    acf6:	040b      	lsls	r3, r1, #16
    acf8:	0c08      	lsrs	r0, r1, #16
    acfa:	0c1b      	lsrs	r3, r3, #16
    acfc:	435a      	muls	r2, r3
    acfe:	4345      	muls	r5, r0
    ad00:	437b      	muls	r3, r7
    ad02:	4378      	muls	r0, r7
    ad04:	195b      	adds	r3, r3, r5
    ad06:	0c17      	lsrs	r7, r2, #16
    ad08:	18fb      	adds	r3, r7, r3
    ad0a:	429d      	cmp	r5, r3
    ad0c:	d903      	bls.n	ad16 <__aeabi_ddiv+0x3ba>
    ad0e:	2580      	movs	r5, #128	; 0x80
    ad10:	026d      	lsls	r5, r5, #9
    ad12:	46ac      	mov	ip, r5
    ad14:	4460      	add	r0, ip
    ad16:	0c1d      	lsrs	r5, r3, #16
    ad18:	0412      	lsls	r2, r2, #16
    ad1a:	041b      	lsls	r3, r3, #16
    ad1c:	0c12      	lsrs	r2, r2, #16
    ad1e:	1828      	adds	r0, r5, r0
    ad20:	189b      	adds	r3, r3, r2
    ad22:	4286      	cmp	r6, r0
    ad24:	d200      	bcs.n	ad28 <__aeabi_ddiv+0x3cc>
    ad26:	e093      	b.n	ae50 <__aeabi_ddiv+0x4f4>
    ad28:	d100      	bne.n	ad2c <__aeabi_ddiv+0x3d0>
    ad2a:	e08e      	b.n	ae4a <__aeabi_ddiv+0x4ee>
    ad2c:	2301      	movs	r3, #1
    ad2e:	4319      	orrs	r1, r3
    ad30:	4ba0      	ldr	r3, [pc, #640]	; (afb4 <__aeabi_ddiv+0x658>)
    ad32:	18e3      	adds	r3, r4, r3
    ad34:	2b00      	cmp	r3, #0
    ad36:	dc00      	bgt.n	ad3a <__aeabi_ddiv+0x3de>
    ad38:	e099      	b.n	ae6e <__aeabi_ddiv+0x512>
    ad3a:	074a      	lsls	r2, r1, #29
    ad3c:	d000      	beq.n	ad40 <__aeabi_ddiv+0x3e4>
    ad3e:	e09e      	b.n	ae7e <__aeabi_ddiv+0x522>
    ad40:	465a      	mov	r2, fp
    ad42:	01d2      	lsls	r2, r2, #7
    ad44:	d506      	bpl.n	ad54 <__aeabi_ddiv+0x3f8>
    ad46:	465a      	mov	r2, fp
    ad48:	4b9b      	ldr	r3, [pc, #620]	; (afb8 <__aeabi_ddiv+0x65c>)
    ad4a:	401a      	ands	r2, r3
    ad4c:	2380      	movs	r3, #128	; 0x80
    ad4e:	4693      	mov	fp, r2
    ad50:	00db      	lsls	r3, r3, #3
    ad52:	18e3      	adds	r3, r4, r3
    ad54:	4a99      	ldr	r2, [pc, #612]	; (afbc <__aeabi_ddiv+0x660>)
    ad56:	4293      	cmp	r3, r2
    ad58:	dd68      	ble.n	ae2c <__aeabi_ddiv+0x4d0>
    ad5a:	2301      	movs	r3, #1
    ad5c:	9a02      	ldr	r2, [sp, #8]
    ad5e:	4c98      	ldr	r4, [pc, #608]	; (afc0 <__aeabi_ddiv+0x664>)
    ad60:	401a      	ands	r2, r3
    ad62:	2300      	movs	r3, #0
    ad64:	4694      	mov	ip, r2
    ad66:	4698      	mov	r8, r3
    ad68:	2200      	movs	r2, #0
    ad6a:	e6c5      	b.n	aaf8 <__aeabi_ddiv+0x19c>
    ad6c:	2280      	movs	r2, #128	; 0x80
    ad6e:	464b      	mov	r3, r9
    ad70:	0312      	lsls	r2, r2, #12
    ad72:	4213      	tst	r3, r2
    ad74:	d00a      	beq.n	ad8c <__aeabi_ddiv+0x430>
    ad76:	465b      	mov	r3, fp
    ad78:	4213      	tst	r3, r2
    ad7a:	d106      	bne.n	ad8a <__aeabi_ddiv+0x42e>
    ad7c:	431a      	orrs	r2, r3
    ad7e:	0312      	lsls	r2, r2, #12
    ad80:	0b12      	lsrs	r2, r2, #12
    ad82:	46ac      	mov	ip, r5
    ad84:	4688      	mov	r8, r1
    ad86:	4c8e      	ldr	r4, [pc, #568]	; (afc0 <__aeabi_ddiv+0x664>)
    ad88:	e6b6      	b.n	aaf8 <__aeabi_ddiv+0x19c>
    ad8a:	464b      	mov	r3, r9
    ad8c:	431a      	orrs	r2, r3
    ad8e:	0312      	lsls	r2, r2, #12
    ad90:	0b12      	lsrs	r2, r2, #12
    ad92:	46bc      	mov	ip, r7
    ad94:	4c8a      	ldr	r4, [pc, #552]	; (afc0 <__aeabi_ddiv+0x664>)
    ad96:	e6af      	b.n	aaf8 <__aeabi_ddiv+0x19c>
    ad98:	0003      	movs	r3, r0
    ad9a:	465a      	mov	r2, fp
    ad9c:	3b28      	subs	r3, #40	; 0x28
    ad9e:	409a      	lsls	r2, r3
    ada0:	2300      	movs	r3, #0
    ada2:	4691      	mov	r9, r2
    ada4:	4698      	mov	r8, r3
    ada6:	e657      	b.n	aa58 <__aeabi_ddiv+0xfc>
    ada8:	4658      	mov	r0, fp
    adaa:	f7fe fa87 	bl	92bc <__clzsi2>
    adae:	3020      	adds	r0, #32
    adb0:	e640      	b.n	aa34 <__aeabi_ddiv+0xd8>
    adb2:	0003      	movs	r3, r0
    adb4:	4652      	mov	r2, sl
    adb6:	3b28      	subs	r3, #40	; 0x28
    adb8:	409a      	lsls	r2, r3
    adba:	2100      	movs	r1, #0
    adbc:	4693      	mov	fp, r2
    adbe:	e677      	b.n	aab0 <__aeabi_ddiv+0x154>
    adc0:	f7fe fa7c 	bl	92bc <__clzsi2>
    adc4:	3020      	adds	r0, #32
    adc6:	e65f      	b.n	aa88 <__aeabi_ddiv+0x12c>
    adc8:	4588      	cmp	r8, r1
    adca:	d200      	bcs.n	adce <__aeabi_ddiv+0x472>
    adcc:	e6c7      	b.n	ab5e <__aeabi_ddiv+0x202>
    adce:	464b      	mov	r3, r9
    add0:	07de      	lsls	r6, r3, #31
    add2:	085d      	lsrs	r5, r3, #1
    add4:	4643      	mov	r3, r8
    add6:	085b      	lsrs	r3, r3, #1
    add8:	431e      	orrs	r6, r3
    adda:	4643      	mov	r3, r8
    addc:	07db      	lsls	r3, r3, #31
    adde:	469a      	mov	sl, r3
    ade0:	e6c2      	b.n	ab68 <__aeabi_ddiv+0x20c>
    ade2:	2500      	movs	r5, #0
    ade4:	4592      	cmp	sl, r2
    ade6:	d300      	bcc.n	adea <__aeabi_ddiv+0x48e>
    ade8:	e733      	b.n	ac52 <__aeabi_ddiv+0x2f6>
    adea:	9e03      	ldr	r6, [sp, #12]
    adec:	4659      	mov	r1, fp
    adee:	46b4      	mov	ip, r6
    adf0:	44e2      	add	sl, ip
    adf2:	45b2      	cmp	sl, r6
    adf4:	41ad      	sbcs	r5, r5
    adf6:	426d      	negs	r5, r5
    adf8:	4445      	add	r5, r8
    adfa:	18eb      	adds	r3, r5, r3
    adfc:	3901      	subs	r1, #1
    adfe:	4598      	cmp	r8, r3
    ae00:	d207      	bcs.n	ae12 <__aeabi_ddiv+0x4b6>
    ae02:	4298      	cmp	r0, r3
    ae04:	d900      	bls.n	ae08 <__aeabi_ddiv+0x4ac>
    ae06:	e07f      	b.n	af08 <__aeabi_ddiv+0x5ac>
    ae08:	d100      	bne.n	ae0c <__aeabi_ddiv+0x4b0>
    ae0a:	e0bc      	b.n	af86 <__aeabi_ddiv+0x62a>
    ae0c:	1a1d      	subs	r5, r3, r0
    ae0e:	468b      	mov	fp, r1
    ae10:	e71f      	b.n	ac52 <__aeabi_ddiv+0x2f6>
    ae12:	4598      	cmp	r8, r3
    ae14:	d1fa      	bne.n	ae0c <__aeabi_ddiv+0x4b0>
    ae16:	9d03      	ldr	r5, [sp, #12]
    ae18:	4555      	cmp	r5, sl
    ae1a:	d9f2      	bls.n	ae02 <__aeabi_ddiv+0x4a6>
    ae1c:	4643      	mov	r3, r8
    ae1e:	468b      	mov	fp, r1
    ae20:	1a1d      	subs	r5, r3, r0
    ae22:	e716      	b.n	ac52 <__aeabi_ddiv+0x2f6>
    ae24:	469b      	mov	fp, r3
    ae26:	e6ca      	b.n	abbe <__aeabi_ddiv+0x262>
    ae28:	0015      	movs	r5, r2
    ae2a:	e6e7      	b.n	abfc <__aeabi_ddiv+0x2a0>
    ae2c:	465a      	mov	r2, fp
    ae2e:	08c9      	lsrs	r1, r1, #3
    ae30:	0752      	lsls	r2, r2, #29
    ae32:	430a      	orrs	r2, r1
    ae34:	055b      	lsls	r3, r3, #21
    ae36:	4690      	mov	r8, r2
    ae38:	0d5c      	lsrs	r4, r3, #21
    ae3a:	465a      	mov	r2, fp
    ae3c:	2301      	movs	r3, #1
    ae3e:	9902      	ldr	r1, [sp, #8]
    ae40:	0252      	lsls	r2, r2, #9
    ae42:	4019      	ands	r1, r3
    ae44:	0b12      	lsrs	r2, r2, #12
    ae46:	468c      	mov	ip, r1
    ae48:	e656      	b.n	aaf8 <__aeabi_ddiv+0x19c>
    ae4a:	2b00      	cmp	r3, #0
    ae4c:	d100      	bne.n	ae50 <__aeabi_ddiv+0x4f4>
    ae4e:	e76f      	b.n	ad30 <__aeabi_ddiv+0x3d4>
    ae50:	4446      	add	r6, r8
    ae52:	1e4a      	subs	r2, r1, #1
    ae54:	45b0      	cmp	r8, r6
    ae56:	d929      	bls.n	aeac <__aeabi_ddiv+0x550>
    ae58:	0011      	movs	r1, r2
    ae5a:	4286      	cmp	r6, r0
    ae5c:	d000      	beq.n	ae60 <__aeabi_ddiv+0x504>
    ae5e:	e765      	b.n	ad2c <__aeabi_ddiv+0x3d0>
    ae60:	9a03      	ldr	r2, [sp, #12]
    ae62:	4293      	cmp	r3, r2
    ae64:	d000      	beq.n	ae68 <__aeabi_ddiv+0x50c>
    ae66:	e761      	b.n	ad2c <__aeabi_ddiv+0x3d0>
    ae68:	e762      	b.n	ad30 <__aeabi_ddiv+0x3d4>
    ae6a:	2101      	movs	r1, #1
    ae6c:	4249      	negs	r1, r1
    ae6e:	2001      	movs	r0, #1
    ae70:	1ac2      	subs	r2, r0, r3
    ae72:	2a38      	cmp	r2, #56	; 0x38
    ae74:	dd21      	ble.n	aeba <__aeabi_ddiv+0x55e>
    ae76:	9b02      	ldr	r3, [sp, #8]
    ae78:	4003      	ands	r3, r0
    ae7a:	469c      	mov	ip, r3
    ae7c:	e638      	b.n	aaf0 <__aeabi_ddiv+0x194>
    ae7e:	220f      	movs	r2, #15
    ae80:	400a      	ands	r2, r1
    ae82:	2a04      	cmp	r2, #4
    ae84:	d100      	bne.n	ae88 <__aeabi_ddiv+0x52c>
    ae86:	e75b      	b.n	ad40 <__aeabi_ddiv+0x3e4>
    ae88:	000a      	movs	r2, r1
    ae8a:	1d11      	adds	r1, r2, #4
    ae8c:	4291      	cmp	r1, r2
    ae8e:	4192      	sbcs	r2, r2
    ae90:	4252      	negs	r2, r2
    ae92:	4493      	add	fp, r2
    ae94:	e754      	b.n	ad40 <__aeabi_ddiv+0x3e4>
    ae96:	4b47      	ldr	r3, [pc, #284]	; (afb4 <__aeabi_ddiv+0x658>)
    ae98:	18e3      	adds	r3, r4, r3
    ae9a:	2b00      	cmp	r3, #0
    ae9c:	dde5      	ble.n	ae6a <__aeabi_ddiv+0x50e>
    ae9e:	2201      	movs	r2, #1
    aea0:	4252      	negs	r2, r2
    aea2:	e7f2      	b.n	ae8a <__aeabi_ddiv+0x52e>
    aea4:	001d      	movs	r5, r3
    aea6:	e6fa      	b.n	ac9e <__aeabi_ddiv+0x342>
    aea8:	469a      	mov	sl, r3
    aeaa:	e71c      	b.n	ace6 <__aeabi_ddiv+0x38a>
    aeac:	42b0      	cmp	r0, r6
    aeae:	d839      	bhi.n	af24 <__aeabi_ddiv+0x5c8>
    aeb0:	d06e      	beq.n	af90 <__aeabi_ddiv+0x634>
    aeb2:	0011      	movs	r1, r2
    aeb4:	e73a      	b.n	ad2c <__aeabi_ddiv+0x3d0>
    aeb6:	9302      	str	r3, [sp, #8]
    aeb8:	e73a      	b.n	ad30 <__aeabi_ddiv+0x3d4>
    aeba:	2a1f      	cmp	r2, #31
    aebc:	dc3c      	bgt.n	af38 <__aeabi_ddiv+0x5dc>
    aebe:	2320      	movs	r3, #32
    aec0:	1a9b      	subs	r3, r3, r2
    aec2:	000c      	movs	r4, r1
    aec4:	4658      	mov	r0, fp
    aec6:	4099      	lsls	r1, r3
    aec8:	4098      	lsls	r0, r3
    aeca:	1e4b      	subs	r3, r1, #1
    aecc:	4199      	sbcs	r1, r3
    aece:	465b      	mov	r3, fp
    aed0:	40d4      	lsrs	r4, r2
    aed2:	40d3      	lsrs	r3, r2
    aed4:	4320      	orrs	r0, r4
    aed6:	4308      	orrs	r0, r1
    aed8:	001a      	movs	r2, r3
    aeda:	0743      	lsls	r3, r0, #29
    aedc:	d009      	beq.n	aef2 <__aeabi_ddiv+0x596>
    aede:	230f      	movs	r3, #15
    aee0:	4003      	ands	r3, r0
    aee2:	2b04      	cmp	r3, #4
    aee4:	d005      	beq.n	aef2 <__aeabi_ddiv+0x596>
    aee6:	0001      	movs	r1, r0
    aee8:	1d08      	adds	r0, r1, #4
    aeea:	4288      	cmp	r0, r1
    aeec:	419b      	sbcs	r3, r3
    aeee:	425b      	negs	r3, r3
    aef0:	18d2      	adds	r2, r2, r3
    aef2:	0213      	lsls	r3, r2, #8
    aef4:	d53a      	bpl.n	af6c <__aeabi_ddiv+0x610>
    aef6:	2301      	movs	r3, #1
    aef8:	9a02      	ldr	r2, [sp, #8]
    aefa:	2401      	movs	r4, #1
    aefc:	401a      	ands	r2, r3
    aefe:	2300      	movs	r3, #0
    af00:	4694      	mov	ip, r2
    af02:	4698      	mov	r8, r3
    af04:	2200      	movs	r2, #0
    af06:	e5f7      	b.n	aaf8 <__aeabi_ddiv+0x19c>
    af08:	2102      	movs	r1, #2
    af0a:	4249      	negs	r1, r1
    af0c:	468c      	mov	ip, r1
    af0e:	9d03      	ldr	r5, [sp, #12]
    af10:	44e3      	add	fp, ip
    af12:	46ac      	mov	ip, r5
    af14:	44e2      	add	sl, ip
    af16:	45aa      	cmp	sl, r5
    af18:	41ad      	sbcs	r5, r5
    af1a:	426d      	negs	r5, r5
    af1c:	4445      	add	r5, r8
    af1e:	18ed      	adds	r5, r5, r3
    af20:	1a2d      	subs	r5, r5, r0
    af22:	e696      	b.n	ac52 <__aeabi_ddiv+0x2f6>
    af24:	1e8a      	subs	r2, r1, #2
    af26:	9903      	ldr	r1, [sp, #12]
    af28:	004d      	lsls	r5, r1, #1
    af2a:	428d      	cmp	r5, r1
    af2c:	4189      	sbcs	r1, r1
    af2e:	4249      	negs	r1, r1
    af30:	4441      	add	r1, r8
    af32:	1876      	adds	r6, r6, r1
    af34:	9503      	str	r5, [sp, #12]
    af36:	e78f      	b.n	ae58 <__aeabi_ddiv+0x4fc>
    af38:	201f      	movs	r0, #31
    af3a:	4240      	negs	r0, r0
    af3c:	1ac3      	subs	r3, r0, r3
    af3e:	4658      	mov	r0, fp
    af40:	40d8      	lsrs	r0, r3
    af42:	0003      	movs	r3, r0
    af44:	2a20      	cmp	r2, #32
    af46:	d028      	beq.n	af9a <__aeabi_ddiv+0x63e>
    af48:	2040      	movs	r0, #64	; 0x40
    af4a:	465d      	mov	r5, fp
    af4c:	1a82      	subs	r2, r0, r2
    af4e:	4095      	lsls	r5, r2
    af50:	4329      	orrs	r1, r5
    af52:	1e4a      	subs	r2, r1, #1
    af54:	4191      	sbcs	r1, r2
    af56:	4319      	orrs	r1, r3
    af58:	2307      	movs	r3, #7
    af5a:	2200      	movs	r2, #0
    af5c:	400b      	ands	r3, r1
    af5e:	d009      	beq.n	af74 <__aeabi_ddiv+0x618>
    af60:	230f      	movs	r3, #15
    af62:	2200      	movs	r2, #0
    af64:	400b      	ands	r3, r1
    af66:	0008      	movs	r0, r1
    af68:	2b04      	cmp	r3, #4
    af6a:	d1bd      	bne.n	aee8 <__aeabi_ddiv+0x58c>
    af6c:	0001      	movs	r1, r0
    af6e:	0753      	lsls	r3, r2, #29
    af70:	0252      	lsls	r2, r2, #9
    af72:	0b12      	lsrs	r2, r2, #12
    af74:	08c9      	lsrs	r1, r1, #3
    af76:	4319      	orrs	r1, r3
    af78:	2301      	movs	r3, #1
    af7a:	4688      	mov	r8, r1
    af7c:	9902      	ldr	r1, [sp, #8]
    af7e:	2400      	movs	r4, #0
    af80:	4019      	ands	r1, r3
    af82:	468c      	mov	ip, r1
    af84:	e5b8      	b.n	aaf8 <__aeabi_ddiv+0x19c>
    af86:	4552      	cmp	r2, sl
    af88:	d8be      	bhi.n	af08 <__aeabi_ddiv+0x5ac>
    af8a:	468b      	mov	fp, r1
    af8c:	2500      	movs	r5, #0
    af8e:	e660      	b.n	ac52 <__aeabi_ddiv+0x2f6>
    af90:	9d03      	ldr	r5, [sp, #12]
    af92:	429d      	cmp	r5, r3
    af94:	d3c6      	bcc.n	af24 <__aeabi_ddiv+0x5c8>
    af96:	0011      	movs	r1, r2
    af98:	e762      	b.n	ae60 <__aeabi_ddiv+0x504>
    af9a:	2500      	movs	r5, #0
    af9c:	e7d8      	b.n	af50 <__aeabi_ddiv+0x5f4>
    af9e:	2280      	movs	r2, #128	; 0x80
    afa0:	465b      	mov	r3, fp
    afa2:	0312      	lsls	r2, r2, #12
    afa4:	431a      	orrs	r2, r3
    afa6:	9b01      	ldr	r3, [sp, #4]
    afa8:	0312      	lsls	r2, r2, #12
    afaa:	0b12      	lsrs	r2, r2, #12
    afac:	469c      	mov	ip, r3
    afae:	4688      	mov	r8, r1
    afb0:	4c03      	ldr	r4, [pc, #12]	; (afc0 <__aeabi_ddiv+0x664>)
    afb2:	e5a1      	b.n	aaf8 <__aeabi_ddiv+0x19c>
    afb4:	000003ff 	.word	0x000003ff
    afb8:	feffffff 	.word	0xfeffffff
    afbc:	000007fe 	.word	0x000007fe
    afc0:	000007ff 	.word	0x000007ff

0000afc4 <__aeabi_dmul>:
    afc4:	b5f0      	push	{r4, r5, r6, r7, lr}
    afc6:	4657      	mov	r7, sl
    afc8:	4645      	mov	r5, r8
    afca:	46de      	mov	lr, fp
    afcc:	464e      	mov	r6, r9
    afce:	b5e0      	push	{r5, r6, r7, lr}
    afd0:	030c      	lsls	r4, r1, #12
    afd2:	4698      	mov	r8, r3
    afd4:	004e      	lsls	r6, r1, #1
    afd6:	0b23      	lsrs	r3, r4, #12
    afd8:	b087      	sub	sp, #28
    afda:	0007      	movs	r7, r0
    afdc:	4692      	mov	sl, r2
    afde:	469b      	mov	fp, r3
    afe0:	0d76      	lsrs	r6, r6, #21
    afe2:	0fcd      	lsrs	r5, r1, #31
    afe4:	2e00      	cmp	r6, #0
    afe6:	d06b      	beq.n	b0c0 <__aeabi_dmul+0xfc>
    afe8:	4b6d      	ldr	r3, [pc, #436]	; (b1a0 <__aeabi_dmul+0x1dc>)
    afea:	429e      	cmp	r6, r3
    afec:	d035      	beq.n	b05a <__aeabi_dmul+0x96>
    afee:	2480      	movs	r4, #128	; 0x80
    aff0:	465b      	mov	r3, fp
    aff2:	0f42      	lsrs	r2, r0, #29
    aff4:	0424      	lsls	r4, r4, #16
    aff6:	00db      	lsls	r3, r3, #3
    aff8:	4314      	orrs	r4, r2
    affa:	431c      	orrs	r4, r3
    affc:	00c3      	lsls	r3, r0, #3
    affe:	4699      	mov	r9, r3
    b000:	4b68      	ldr	r3, [pc, #416]	; (b1a4 <__aeabi_dmul+0x1e0>)
    b002:	46a3      	mov	fp, r4
    b004:	469c      	mov	ip, r3
    b006:	2300      	movs	r3, #0
    b008:	2700      	movs	r7, #0
    b00a:	4466      	add	r6, ip
    b00c:	9302      	str	r3, [sp, #8]
    b00e:	4643      	mov	r3, r8
    b010:	031c      	lsls	r4, r3, #12
    b012:	005a      	lsls	r2, r3, #1
    b014:	0fdb      	lsrs	r3, r3, #31
    b016:	4650      	mov	r0, sl
    b018:	0b24      	lsrs	r4, r4, #12
    b01a:	0d52      	lsrs	r2, r2, #21
    b01c:	4698      	mov	r8, r3
    b01e:	d100      	bne.n	b022 <__aeabi_dmul+0x5e>
    b020:	e076      	b.n	b110 <__aeabi_dmul+0x14c>
    b022:	4b5f      	ldr	r3, [pc, #380]	; (b1a0 <__aeabi_dmul+0x1dc>)
    b024:	429a      	cmp	r2, r3
    b026:	d06d      	beq.n	b104 <__aeabi_dmul+0x140>
    b028:	2380      	movs	r3, #128	; 0x80
    b02a:	0f41      	lsrs	r1, r0, #29
    b02c:	041b      	lsls	r3, r3, #16
    b02e:	430b      	orrs	r3, r1
    b030:	495c      	ldr	r1, [pc, #368]	; (b1a4 <__aeabi_dmul+0x1e0>)
    b032:	00e4      	lsls	r4, r4, #3
    b034:	468c      	mov	ip, r1
    b036:	431c      	orrs	r4, r3
    b038:	00c3      	lsls	r3, r0, #3
    b03a:	2000      	movs	r0, #0
    b03c:	4462      	add	r2, ip
    b03e:	4641      	mov	r1, r8
    b040:	18b6      	adds	r6, r6, r2
    b042:	4069      	eors	r1, r5
    b044:	1c72      	adds	r2, r6, #1
    b046:	9101      	str	r1, [sp, #4]
    b048:	4694      	mov	ip, r2
    b04a:	4307      	orrs	r7, r0
    b04c:	2f0f      	cmp	r7, #15
    b04e:	d900      	bls.n	b052 <__aeabi_dmul+0x8e>
    b050:	e0b0      	b.n	b1b4 <__aeabi_dmul+0x1f0>
    b052:	4a55      	ldr	r2, [pc, #340]	; (b1a8 <__aeabi_dmul+0x1e4>)
    b054:	00bf      	lsls	r7, r7, #2
    b056:	59d2      	ldr	r2, [r2, r7]
    b058:	4697      	mov	pc, r2
    b05a:	465b      	mov	r3, fp
    b05c:	4303      	orrs	r3, r0
    b05e:	4699      	mov	r9, r3
    b060:	d000      	beq.n	b064 <__aeabi_dmul+0xa0>
    b062:	e087      	b.n	b174 <__aeabi_dmul+0x1b0>
    b064:	2300      	movs	r3, #0
    b066:	469b      	mov	fp, r3
    b068:	3302      	adds	r3, #2
    b06a:	2708      	movs	r7, #8
    b06c:	9302      	str	r3, [sp, #8]
    b06e:	e7ce      	b.n	b00e <__aeabi_dmul+0x4a>
    b070:	4642      	mov	r2, r8
    b072:	9201      	str	r2, [sp, #4]
    b074:	2802      	cmp	r0, #2
    b076:	d067      	beq.n	b148 <__aeabi_dmul+0x184>
    b078:	2803      	cmp	r0, #3
    b07a:	d100      	bne.n	b07e <__aeabi_dmul+0xba>
    b07c:	e20e      	b.n	b49c <__aeabi_dmul+0x4d8>
    b07e:	2801      	cmp	r0, #1
    b080:	d000      	beq.n	b084 <__aeabi_dmul+0xc0>
    b082:	e162      	b.n	b34a <__aeabi_dmul+0x386>
    b084:	2300      	movs	r3, #0
    b086:	2400      	movs	r4, #0
    b088:	2200      	movs	r2, #0
    b08a:	4699      	mov	r9, r3
    b08c:	9901      	ldr	r1, [sp, #4]
    b08e:	4001      	ands	r1, r0
    b090:	b2cd      	uxtb	r5, r1
    b092:	2100      	movs	r1, #0
    b094:	0312      	lsls	r2, r2, #12
    b096:	0d0b      	lsrs	r3, r1, #20
    b098:	0b12      	lsrs	r2, r2, #12
    b09a:	051b      	lsls	r3, r3, #20
    b09c:	4313      	orrs	r3, r2
    b09e:	4a43      	ldr	r2, [pc, #268]	; (b1ac <__aeabi_dmul+0x1e8>)
    b0a0:	0524      	lsls	r4, r4, #20
    b0a2:	4013      	ands	r3, r2
    b0a4:	431c      	orrs	r4, r3
    b0a6:	0064      	lsls	r4, r4, #1
    b0a8:	07ed      	lsls	r5, r5, #31
    b0aa:	0864      	lsrs	r4, r4, #1
    b0ac:	432c      	orrs	r4, r5
    b0ae:	4648      	mov	r0, r9
    b0b0:	0021      	movs	r1, r4
    b0b2:	b007      	add	sp, #28
    b0b4:	bc3c      	pop	{r2, r3, r4, r5}
    b0b6:	4690      	mov	r8, r2
    b0b8:	4699      	mov	r9, r3
    b0ba:	46a2      	mov	sl, r4
    b0bc:	46ab      	mov	fp, r5
    b0be:	bdf0      	pop	{r4, r5, r6, r7, pc}
    b0c0:	4303      	orrs	r3, r0
    b0c2:	4699      	mov	r9, r3
    b0c4:	d04f      	beq.n	b166 <__aeabi_dmul+0x1a2>
    b0c6:	465b      	mov	r3, fp
    b0c8:	2b00      	cmp	r3, #0
    b0ca:	d100      	bne.n	b0ce <__aeabi_dmul+0x10a>
    b0cc:	e189      	b.n	b3e2 <__aeabi_dmul+0x41e>
    b0ce:	4658      	mov	r0, fp
    b0d0:	f7fe f8f4 	bl	92bc <__clzsi2>
    b0d4:	0003      	movs	r3, r0
    b0d6:	3b0b      	subs	r3, #11
    b0d8:	2b1c      	cmp	r3, #28
    b0da:	dd00      	ble.n	b0de <__aeabi_dmul+0x11a>
    b0dc:	e17a      	b.n	b3d4 <__aeabi_dmul+0x410>
    b0de:	221d      	movs	r2, #29
    b0e0:	1ad3      	subs	r3, r2, r3
    b0e2:	003a      	movs	r2, r7
    b0e4:	0001      	movs	r1, r0
    b0e6:	465c      	mov	r4, fp
    b0e8:	40da      	lsrs	r2, r3
    b0ea:	3908      	subs	r1, #8
    b0ec:	408c      	lsls	r4, r1
    b0ee:	0013      	movs	r3, r2
    b0f0:	408f      	lsls	r7, r1
    b0f2:	4323      	orrs	r3, r4
    b0f4:	469b      	mov	fp, r3
    b0f6:	46b9      	mov	r9, r7
    b0f8:	2300      	movs	r3, #0
    b0fa:	4e2d      	ldr	r6, [pc, #180]	; (b1b0 <__aeabi_dmul+0x1ec>)
    b0fc:	2700      	movs	r7, #0
    b0fe:	1a36      	subs	r6, r6, r0
    b100:	9302      	str	r3, [sp, #8]
    b102:	e784      	b.n	b00e <__aeabi_dmul+0x4a>
    b104:	4653      	mov	r3, sl
    b106:	4323      	orrs	r3, r4
    b108:	d12a      	bne.n	b160 <__aeabi_dmul+0x19c>
    b10a:	2400      	movs	r4, #0
    b10c:	2002      	movs	r0, #2
    b10e:	e796      	b.n	b03e <__aeabi_dmul+0x7a>
    b110:	4653      	mov	r3, sl
    b112:	4323      	orrs	r3, r4
    b114:	d020      	beq.n	b158 <__aeabi_dmul+0x194>
    b116:	2c00      	cmp	r4, #0
    b118:	d100      	bne.n	b11c <__aeabi_dmul+0x158>
    b11a:	e157      	b.n	b3cc <__aeabi_dmul+0x408>
    b11c:	0020      	movs	r0, r4
    b11e:	f7fe f8cd 	bl	92bc <__clzsi2>
    b122:	0003      	movs	r3, r0
    b124:	3b0b      	subs	r3, #11
    b126:	2b1c      	cmp	r3, #28
    b128:	dd00      	ble.n	b12c <__aeabi_dmul+0x168>
    b12a:	e149      	b.n	b3c0 <__aeabi_dmul+0x3fc>
    b12c:	211d      	movs	r1, #29
    b12e:	1acb      	subs	r3, r1, r3
    b130:	4651      	mov	r1, sl
    b132:	0002      	movs	r2, r0
    b134:	40d9      	lsrs	r1, r3
    b136:	4653      	mov	r3, sl
    b138:	3a08      	subs	r2, #8
    b13a:	4094      	lsls	r4, r2
    b13c:	4093      	lsls	r3, r2
    b13e:	430c      	orrs	r4, r1
    b140:	4a1b      	ldr	r2, [pc, #108]	; (b1b0 <__aeabi_dmul+0x1ec>)
    b142:	1a12      	subs	r2, r2, r0
    b144:	2000      	movs	r0, #0
    b146:	e77a      	b.n	b03e <__aeabi_dmul+0x7a>
    b148:	2501      	movs	r5, #1
    b14a:	9b01      	ldr	r3, [sp, #4]
    b14c:	4c14      	ldr	r4, [pc, #80]	; (b1a0 <__aeabi_dmul+0x1dc>)
    b14e:	401d      	ands	r5, r3
    b150:	2300      	movs	r3, #0
    b152:	2200      	movs	r2, #0
    b154:	4699      	mov	r9, r3
    b156:	e79c      	b.n	b092 <__aeabi_dmul+0xce>
    b158:	2400      	movs	r4, #0
    b15a:	2200      	movs	r2, #0
    b15c:	2001      	movs	r0, #1
    b15e:	e76e      	b.n	b03e <__aeabi_dmul+0x7a>
    b160:	4653      	mov	r3, sl
    b162:	2003      	movs	r0, #3
    b164:	e76b      	b.n	b03e <__aeabi_dmul+0x7a>
    b166:	2300      	movs	r3, #0
    b168:	469b      	mov	fp, r3
    b16a:	3301      	adds	r3, #1
    b16c:	2704      	movs	r7, #4
    b16e:	2600      	movs	r6, #0
    b170:	9302      	str	r3, [sp, #8]
    b172:	e74c      	b.n	b00e <__aeabi_dmul+0x4a>
    b174:	2303      	movs	r3, #3
    b176:	4681      	mov	r9, r0
    b178:	270c      	movs	r7, #12
    b17a:	9302      	str	r3, [sp, #8]
    b17c:	e747      	b.n	b00e <__aeabi_dmul+0x4a>
    b17e:	2280      	movs	r2, #128	; 0x80
    b180:	2300      	movs	r3, #0
    b182:	2500      	movs	r5, #0
    b184:	0312      	lsls	r2, r2, #12
    b186:	4699      	mov	r9, r3
    b188:	4c05      	ldr	r4, [pc, #20]	; (b1a0 <__aeabi_dmul+0x1dc>)
    b18a:	e782      	b.n	b092 <__aeabi_dmul+0xce>
    b18c:	465c      	mov	r4, fp
    b18e:	464b      	mov	r3, r9
    b190:	9802      	ldr	r0, [sp, #8]
    b192:	e76f      	b.n	b074 <__aeabi_dmul+0xb0>
    b194:	465c      	mov	r4, fp
    b196:	464b      	mov	r3, r9
    b198:	9501      	str	r5, [sp, #4]
    b19a:	9802      	ldr	r0, [sp, #8]
    b19c:	e76a      	b.n	b074 <__aeabi_dmul+0xb0>
    b19e:	46c0      	nop			; (mov r8, r8)
    b1a0:	000007ff 	.word	0x000007ff
    b1a4:	fffffc01 	.word	0xfffffc01
    b1a8:	0000c63c 	.word	0x0000c63c
    b1ac:	800fffff 	.word	0x800fffff
    b1b0:	fffffc0d 	.word	0xfffffc0d
    b1b4:	464a      	mov	r2, r9
    b1b6:	4649      	mov	r1, r9
    b1b8:	0c17      	lsrs	r7, r2, #16
    b1ba:	0c1a      	lsrs	r2, r3, #16
    b1bc:	041b      	lsls	r3, r3, #16
    b1be:	0c1b      	lsrs	r3, r3, #16
    b1c0:	0408      	lsls	r0, r1, #16
    b1c2:	0019      	movs	r1, r3
    b1c4:	0c00      	lsrs	r0, r0, #16
    b1c6:	4341      	muls	r1, r0
    b1c8:	0015      	movs	r5, r2
    b1ca:	4688      	mov	r8, r1
    b1cc:	0019      	movs	r1, r3
    b1ce:	437d      	muls	r5, r7
    b1d0:	4379      	muls	r1, r7
    b1d2:	9503      	str	r5, [sp, #12]
    b1d4:	4689      	mov	r9, r1
    b1d6:	0029      	movs	r1, r5
    b1d8:	0015      	movs	r5, r2
    b1da:	4345      	muls	r5, r0
    b1dc:	444d      	add	r5, r9
    b1de:	9502      	str	r5, [sp, #8]
    b1e0:	4645      	mov	r5, r8
    b1e2:	0c2d      	lsrs	r5, r5, #16
    b1e4:	46aa      	mov	sl, r5
    b1e6:	9d02      	ldr	r5, [sp, #8]
    b1e8:	4455      	add	r5, sl
    b1ea:	45a9      	cmp	r9, r5
    b1ec:	d906      	bls.n	b1fc <__aeabi_dmul+0x238>
    b1ee:	468a      	mov	sl, r1
    b1f0:	2180      	movs	r1, #128	; 0x80
    b1f2:	0249      	lsls	r1, r1, #9
    b1f4:	4689      	mov	r9, r1
    b1f6:	44ca      	add	sl, r9
    b1f8:	4651      	mov	r1, sl
    b1fa:	9103      	str	r1, [sp, #12]
    b1fc:	0c29      	lsrs	r1, r5, #16
    b1fe:	9104      	str	r1, [sp, #16]
    b200:	4641      	mov	r1, r8
    b202:	0409      	lsls	r1, r1, #16
    b204:	042d      	lsls	r5, r5, #16
    b206:	0c09      	lsrs	r1, r1, #16
    b208:	4688      	mov	r8, r1
    b20a:	0029      	movs	r1, r5
    b20c:	0c25      	lsrs	r5, r4, #16
    b20e:	0424      	lsls	r4, r4, #16
    b210:	4441      	add	r1, r8
    b212:	0c24      	lsrs	r4, r4, #16
    b214:	9105      	str	r1, [sp, #20]
    b216:	0021      	movs	r1, r4
    b218:	4341      	muls	r1, r0
    b21a:	4688      	mov	r8, r1
    b21c:	0021      	movs	r1, r4
    b21e:	4379      	muls	r1, r7
    b220:	468a      	mov	sl, r1
    b222:	4368      	muls	r0, r5
    b224:	4641      	mov	r1, r8
    b226:	4450      	add	r0, sl
    b228:	4681      	mov	r9, r0
    b22a:	0c08      	lsrs	r0, r1, #16
    b22c:	4448      	add	r0, r9
    b22e:	436f      	muls	r7, r5
    b230:	4582      	cmp	sl, r0
    b232:	d903      	bls.n	b23c <__aeabi_dmul+0x278>
    b234:	2180      	movs	r1, #128	; 0x80
    b236:	0249      	lsls	r1, r1, #9
    b238:	4689      	mov	r9, r1
    b23a:	444f      	add	r7, r9
    b23c:	0c01      	lsrs	r1, r0, #16
    b23e:	4689      	mov	r9, r1
    b240:	0039      	movs	r1, r7
    b242:	4449      	add	r1, r9
    b244:	9102      	str	r1, [sp, #8]
    b246:	4641      	mov	r1, r8
    b248:	040f      	lsls	r7, r1, #16
    b24a:	9904      	ldr	r1, [sp, #16]
    b24c:	0c3f      	lsrs	r7, r7, #16
    b24e:	4688      	mov	r8, r1
    b250:	0400      	lsls	r0, r0, #16
    b252:	19c0      	adds	r0, r0, r7
    b254:	4480      	add	r8, r0
    b256:	4641      	mov	r1, r8
    b258:	9104      	str	r1, [sp, #16]
    b25a:	4659      	mov	r1, fp
    b25c:	0c0f      	lsrs	r7, r1, #16
    b25e:	0409      	lsls	r1, r1, #16
    b260:	0c09      	lsrs	r1, r1, #16
    b262:	4688      	mov	r8, r1
    b264:	4359      	muls	r1, r3
    b266:	468a      	mov	sl, r1
    b268:	0039      	movs	r1, r7
    b26a:	4351      	muls	r1, r2
    b26c:	4689      	mov	r9, r1
    b26e:	4641      	mov	r1, r8
    b270:	434a      	muls	r2, r1
    b272:	4651      	mov	r1, sl
    b274:	0c09      	lsrs	r1, r1, #16
    b276:	468b      	mov	fp, r1
    b278:	437b      	muls	r3, r7
    b27a:	18d2      	adds	r2, r2, r3
    b27c:	445a      	add	r2, fp
    b27e:	4293      	cmp	r3, r2
    b280:	d903      	bls.n	b28a <__aeabi_dmul+0x2c6>
    b282:	2380      	movs	r3, #128	; 0x80
    b284:	025b      	lsls	r3, r3, #9
    b286:	469b      	mov	fp, r3
    b288:	44d9      	add	r9, fp
    b28a:	4651      	mov	r1, sl
    b28c:	0409      	lsls	r1, r1, #16
    b28e:	0c09      	lsrs	r1, r1, #16
    b290:	468a      	mov	sl, r1
    b292:	4641      	mov	r1, r8
    b294:	4361      	muls	r1, r4
    b296:	437c      	muls	r4, r7
    b298:	0c13      	lsrs	r3, r2, #16
    b29a:	0412      	lsls	r2, r2, #16
    b29c:	444b      	add	r3, r9
    b29e:	4452      	add	r2, sl
    b2a0:	46a1      	mov	r9, r4
    b2a2:	468a      	mov	sl, r1
    b2a4:	003c      	movs	r4, r7
    b2a6:	4641      	mov	r1, r8
    b2a8:	436c      	muls	r4, r5
    b2aa:	434d      	muls	r5, r1
    b2ac:	4651      	mov	r1, sl
    b2ae:	444d      	add	r5, r9
    b2b0:	0c0f      	lsrs	r7, r1, #16
    b2b2:	197d      	adds	r5, r7, r5
    b2b4:	45a9      	cmp	r9, r5
    b2b6:	d903      	bls.n	b2c0 <__aeabi_dmul+0x2fc>
    b2b8:	2180      	movs	r1, #128	; 0x80
    b2ba:	0249      	lsls	r1, r1, #9
    b2bc:	4688      	mov	r8, r1
    b2be:	4444      	add	r4, r8
    b2c0:	9f04      	ldr	r7, [sp, #16]
    b2c2:	9903      	ldr	r1, [sp, #12]
    b2c4:	46b8      	mov	r8, r7
    b2c6:	4441      	add	r1, r8
    b2c8:	468b      	mov	fp, r1
    b2ca:	4583      	cmp	fp, r0
    b2cc:	4180      	sbcs	r0, r0
    b2ce:	4241      	negs	r1, r0
    b2d0:	4688      	mov	r8, r1
    b2d2:	4651      	mov	r1, sl
    b2d4:	0408      	lsls	r0, r1, #16
    b2d6:	042f      	lsls	r7, r5, #16
    b2d8:	0c00      	lsrs	r0, r0, #16
    b2da:	183f      	adds	r7, r7, r0
    b2dc:	4658      	mov	r0, fp
    b2de:	9902      	ldr	r1, [sp, #8]
    b2e0:	1810      	adds	r0, r2, r0
    b2e2:	4689      	mov	r9, r1
    b2e4:	4290      	cmp	r0, r2
    b2e6:	4192      	sbcs	r2, r2
    b2e8:	444f      	add	r7, r9
    b2ea:	46ba      	mov	sl, r7
    b2ec:	4252      	negs	r2, r2
    b2ee:	4699      	mov	r9, r3
    b2f0:	4693      	mov	fp, r2
    b2f2:	44c2      	add	sl, r8
    b2f4:	44d1      	add	r9, sl
    b2f6:	44cb      	add	fp, r9
    b2f8:	428f      	cmp	r7, r1
    b2fa:	41bf      	sbcs	r7, r7
    b2fc:	45c2      	cmp	sl, r8
    b2fe:	4189      	sbcs	r1, r1
    b300:	4599      	cmp	r9, r3
    b302:	419b      	sbcs	r3, r3
    b304:	4593      	cmp	fp, r2
    b306:	4192      	sbcs	r2, r2
    b308:	427f      	negs	r7, r7
    b30a:	4249      	negs	r1, r1
    b30c:	0c2d      	lsrs	r5, r5, #16
    b30e:	4252      	negs	r2, r2
    b310:	430f      	orrs	r7, r1
    b312:	425b      	negs	r3, r3
    b314:	4313      	orrs	r3, r2
    b316:	197f      	adds	r7, r7, r5
    b318:	18ff      	adds	r7, r7, r3
    b31a:	465b      	mov	r3, fp
    b31c:	193c      	adds	r4, r7, r4
    b31e:	0ddb      	lsrs	r3, r3, #23
    b320:	9a05      	ldr	r2, [sp, #20]
    b322:	0264      	lsls	r4, r4, #9
    b324:	431c      	orrs	r4, r3
    b326:	0243      	lsls	r3, r0, #9
    b328:	4313      	orrs	r3, r2
    b32a:	1e5d      	subs	r5, r3, #1
    b32c:	41ab      	sbcs	r3, r5
    b32e:	465a      	mov	r2, fp
    b330:	0dc0      	lsrs	r0, r0, #23
    b332:	4303      	orrs	r3, r0
    b334:	0252      	lsls	r2, r2, #9
    b336:	4313      	orrs	r3, r2
    b338:	01e2      	lsls	r2, r4, #7
    b33a:	d556      	bpl.n	b3ea <__aeabi_dmul+0x426>
    b33c:	2001      	movs	r0, #1
    b33e:	085a      	lsrs	r2, r3, #1
    b340:	4003      	ands	r3, r0
    b342:	4313      	orrs	r3, r2
    b344:	07e2      	lsls	r2, r4, #31
    b346:	4313      	orrs	r3, r2
    b348:	0864      	lsrs	r4, r4, #1
    b34a:	485a      	ldr	r0, [pc, #360]	; (b4b4 <__aeabi_dmul+0x4f0>)
    b34c:	4460      	add	r0, ip
    b34e:	2800      	cmp	r0, #0
    b350:	dd4d      	ble.n	b3ee <__aeabi_dmul+0x42a>
    b352:	075a      	lsls	r2, r3, #29
    b354:	d009      	beq.n	b36a <__aeabi_dmul+0x3a6>
    b356:	220f      	movs	r2, #15
    b358:	401a      	ands	r2, r3
    b35a:	2a04      	cmp	r2, #4
    b35c:	d005      	beq.n	b36a <__aeabi_dmul+0x3a6>
    b35e:	1d1a      	adds	r2, r3, #4
    b360:	429a      	cmp	r2, r3
    b362:	419b      	sbcs	r3, r3
    b364:	425b      	negs	r3, r3
    b366:	18e4      	adds	r4, r4, r3
    b368:	0013      	movs	r3, r2
    b36a:	01e2      	lsls	r2, r4, #7
    b36c:	d504      	bpl.n	b378 <__aeabi_dmul+0x3b4>
    b36e:	2080      	movs	r0, #128	; 0x80
    b370:	4a51      	ldr	r2, [pc, #324]	; (b4b8 <__aeabi_dmul+0x4f4>)
    b372:	00c0      	lsls	r0, r0, #3
    b374:	4014      	ands	r4, r2
    b376:	4460      	add	r0, ip
    b378:	4a50      	ldr	r2, [pc, #320]	; (b4bc <__aeabi_dmul+0x4f8>)
    b37a:	4290      	cmp	r0, r2
    b37c:	dd00      	ble.n	b380 <__aeabi_dmul+0x3bc>
    b37e:	e6e3      	b.n	b148 <__aeabi_dmul+0x184>
    b380:	2501      	movs	r5, #1
    b382:	08db      	lsrs	r3, r3, #3
    b384:	0762      	lsls	r2, r4, #29
    b386:	431a      	orrs	r2, r3
    b388:	0264      	lsls	r4, r4, #9
    b38a:	9b01      	ldr	r3, [sp, #4]
    b38c:	4691      	mov	r9, r2
    b38e:	0b22      	lsrs	r2, r4, #12
    b390:	0544      	lsls	r4, r0, #21
    b392:	0d64      	lsrs	r4, r4, #21
    b394:	401d      	ands	r5, r3
    b396:	e67c      	b.n	b092 <__aeabi_dmul+0xce>
    b398:	2280      	movs	r2, #128	; 0x80
    b39a:	4659      	mov	r1, fp
    b39c:	0312      	lsls	r2, r2, #12
    b39e:	4211      	tst	r1, r2
    b3a0:	d008      	beq.n	b3b4 <__aeabi_dmul+0x3f0>
    b3a2:	4214      	tst	r4, r2
    b3a4:	d106      	bne.n	b3b4 <__aeabi_dmul+0x3f0>
    b3a6:	4322      	orrs	r2, r4
    b3a8:	0312      	lsls	r2, r2, #12
    b3aa:	0b12      	lsrs	r2, r2, #12
    b3ac:	4645      	mov	r5, r8
    b3ae:	4699      	mov	r9, r3
    b3b0:	4c43      	ldr	r4, [pc, #268]	; (b4c0 <__aeabi_dmul+0x4fc>)
    b3b2:	e66e      	b.n	b092 <__aeabi_dmul+0xce>
    b3b4:	465b      	mov	r3, fp
    b3b6:	431a      	orrs	r2, r3
    b3b8:	0312      	lsls	r2, r2, #12
    b3ba:	0b12      	lsrs	r2, r2, #12
    b3bc:	4c40      	ldr	r4, [pc, #256]	; (b4c0 <__aeabi_dmul+0x4fc>)
    b3be:	e668      	b.n	b092 <__aeabi_dmul+0xce>
    b3c0:	0003      	movs	r3, r0
    b3c2:	4654      	mov	r4, sl
    b3c4:	3b28      	subs	r3, #40	; 0x28
    b3c6:	409c      	lsls	r4, r3
    b3c8:	2300      	movs	r3, #0
    b3ca:	e6b9      	b.n	b140 <__aeabi_dmul+0x17c>
    b3cc:	f7fd ff76 	bl	92bc <__clzsi2>
    b3d0:	3020      	adds	r0, #32
    b3d2:	e6a6      	b.n	b122 <__aeabi_dmul+0x15e>
    b3d4:	0003      	movs	r3, r0
    b3d6:	3b28      	subs	r3, #40	; 0x28
    b3d8:	409f      	lsls	r7, r3
    b3da:	2300      	movs	r3, #0
    b3dc:	46bb      	mov	fp, r7
    b3de:	4699      	mov	r9, r3
    b3e0:	e68a      	b.n	b0f8 <__aeabi_dmul+0x134>
    b3e2:	f7fd ff6b 	bl	92bc <__clzsi2>
    b3e6:	3020      	adds	r0, #32
    b3e8:	e674      	b.n	b0d4 <__aeabi_dmul+0x110>
    b3ea:	46b4      	mov	ip, r6
    b3ec:	e7ad      	b.n	b34a <__aeabi_dmul+0x386>
    b3ee:	2501      	movs	r5, #1
    b3f0:	1a2a      	subs	r2, r5, r0
    b3f2:	2a38      	cmp	r2, #56	; 0x38
    b3f4:	dd06      	ble.n	b404 <__aeabi_dmul+0x440>
    b3f6:	9b01      	ldr	r3, [sp, #4]
    b3f8:	2400      	movs	r4, #0
    b3fa:	401d      	ands	r5, r3
    b3fc:	2300      	movs	r3, #0
    b3fe:	2200      	movs	r2, #0
    b400:	4699      	mov	r9, r3
    b402:	e646      	b.n	b092 <__aeabi_dmul+0xce>
    b404:	2a1f      	cmp	r2, #31
    b406:	dc21      	bgt.n	b44c <__aeabi_dmul+0x488>
    b408:	2520      	movs	r5, #32
    b40a:	0020      	movs	r0, r4
    b40c:	1aad      	subs	r5, r5, r2
    b40e:	001e      	movs	r6, r3
    b410:	40ab      	lsls	r3, r5
    b412:	40a8      	lsls	r0, r5
    b414:	40d6      	lsrs	r6, r2
    b416:	1e5d      	subs	r5, r3, #1
    b418:	41ab      	sbcs	r3, r5
    b41a:	4330      	orrs	r0, r6
    b41c:	4318      	orrs	r0, r3
    b41e:	40d4      	lsrs	r4, r2
    b420:	0743      	lsls	r3, r0, #29
    b422:	d009      	beq.n	b438 <__aeabi_dmul+0x474>
    b424:	230f      	movs	r3, #15
    b426:	4003      	ands	r3, r0
    b428:	2b04      	cmp	r3, #4
    b42a:	d005      	beq.n	b438 <__aeabi_dmul+0x474>
    b42c:	0003      	movs	r3, r0
    b42e:	1d18      	adds	r0, r3, #4
    b430:	4298      	cmp	r0, r3
    b432:	419b      	sbcs	r3, r3
    b434:	425b      	negs	r3, r3
    b436:	18e4      	adds	r4, r4, r3
    b438:	0223      	lsls	r3, r4, #8
    b43a:	d521      	bpl.n	b480 <__aeabi_dmul+0x4bc>
    b43c:	2501      	movs	r5, #1
    b43e:	9b01      	ldr	r3, [sp, #4]
    b440:	2401      	movs	r4, #1
    b442:	401d      	ands	r5, r3
    b444:	2300      	movs	r3, #0
    b446:	2200      	movs	r2, #0
    b448:	4699      	mov	r9, r3
    b44a:	e622      	b.n	b092 <__aeabi_dmul+0xce>
    b44c:	251f      	movs	r5, #31
    b44e:	0021      	movs	r1, r4
    b450:	426d      	negs	r5, r5
    b452:	1a28      	subs	r0, r5, r0
    b454:	40c1      	lsrs	r1, r0
    b456:	0008      	movs	r0, r1
    b458:	2a20      	cmp	r2, #32
    b45a:	d01d      	beq.n	b498 <__aeabi_dmul+0x4d4>
    b45c:	355f      	adds	r5, #95	; 0x5f
    b45e:	1aaa      	subs	r2, r5, r2
    b460:	4094      	lsls	r4, r2
    b462:	4323      	orrs	r3, r4
    b464:	1e5c      	subs	r4, r3, #1
    b466:	41a3      	sbcs	r3, r4
    b468:	2507      	movs	r5, #7
    b46a:	4303      	orrs	r3, r0
    b46c:	401d      	ands	r5, r3
    b46e:	2200      	movs	r2, #0
    b470:	2d00      	cmp	r5, #0
    b472:	d009      	beq.n	b488 <__aeabi_dmul+0x4c4>
    b474:	220f      	movs	r2, #15
    b476:	2400      	movs	r4, #0
    b478:	401a      	ands	r2, r3
    b47a:	0018      	movs	r0, r3
    b47c:	2a04      	cmp	r2, #4
    b47e:	d1d6      	bne.n	b42e <__aeabi_dmul+0x46a>
    b480:	0003      	movs	r3, r0
    b482:	0765      	lsls	r5, r4, #29
    b484:	0264      	lsls	r4, r4, #9
    b486:	0b22      	lsrs	r2, r4, #12
    b488:	08db      	lsrs	r3, r3, #3
    b48a:	432b      	orrs	r3, r5
    b48c:	2501      	movs	r5, #1
    b48e:	4699      	mov	r9, r3
    b490:	9b01      	ldr	r3, [sp, #4]
    b492:	2400      	movs	r4, #0
    b494:	401d      	ands	r5, r3
    b496:	e5fc      	b.n	b092 <__aeabi_dmul+0xce>
    b498:	2400      	movs	r4, #0
    b49a:	e7e2      	b.n	b462 <__aeabi_dmul+0x49e>
    b49c:	2280      	movs	r2, #128	; 0x80
    b49e:	2501      	movs	r5, #1
    b4a0:	0312      	lsls	r2, r2, #12
    b4a2:	4322      	orrs	r2, r4
    b4a4:	9901      	ldr	r1, [sp, #4]
    b4a6:	0312      	lsls	r2, r2, #12
    b4a8:	0b12      	lsrs	r2, r2, #12
    b4aa:	400d      	ands	r5, r1
    b4ac:	4699      	mov	r9, r3
    b4ae:	4c04      	ldr	r4, [pc, #16]	; (b4c0 <__aeabi_dmul+0x4fc>)
    b4b0:	e5ef      	b.n	b092 <__aeabi_dmul+0xce>
    b4b2:	46c0      	nop			; (mov r8, r8)
    b4b4:	000003ff 	.word	0x000003ff
    b4b8:	feffffff 	.word	0xfeffffff
    b4bc:	000007fe 	.word	0x000007fe
    b4c0:	000007ff 	.word	0x000007ff

0000b4c4 <__aeabi_dsub>:
    b4c4:	b5f0      	push	{r4, r5, r6, r7, lr}
    b4c6:	4646      	mov	r6, r8
    b4c8:	46d6      	mov	lr, sl
    b4ca:	464f      	mov	r7, r9
    b4cc:	030c      	lsls	r4, r1, #12
    b4ce:	b5c0      	push	{r6, r7, lr}
    b4d0:	0fcd      	lsrs	r5, r1, #31
    b4d2:	004e      	lsls	r6, r1, #1
    b4d4:	0a61      	lsrs	r1, r4, #9
    b4d6:	0f44      	lsrs	r4, r0, #29
    b4d8:	430c      	orrs	r4, r1
    b4da:	00c1      	lsls	r1, r0, #3
    b4dc:	0058      	lsls	r0, r3, #1
    b4de:	0d40      	lsrs	r0, r0, #21
    b4e0:	4684      	mov	ip, r0
    b4e2:	468a      	mov	sl, r1
    b4e4:	000f      	movs	r7, r1
    b4e6:	0319      	lsls	r1, r3, #12
    b4e8:	0f50      	lsrs	r0, r2, #29
    b4ea:	0a49      	lsrs	r1, r1, #9
    b4ec:	4301      	orrs	r1, r0
    b4ee:	48c6      	ldr	r0, [pc, #792]	; (b808 <__aeabi_dsub+0x344>)
    b4f0:	0d76      	lsrs	r6, r6, #21
    b4f2:	46a8      	mov	r8, r5
    b4f4:	0fdb      	lsrs	r3, r3, #31
    b4f6:	00d2      	lsls	r2, r2, #3
    b4f8:	4584      	cmp	ip, r0
    b4fa:	d100      	bne.n	b4fe <__aeabi_dsub+0x3a>
    b4fc:	e0d8      	b.n	b6b0 <__aeabi_dsub+0x1ec>
    b4fe:	2001      	movs	r0, #1
    b500:	4043      	eors	r3, r0
    b502:	42ab      	cmp	r3, r5
    b504:	d100      	bne.n	b508 <__aeabi_dsub+0x44>
    b506:	e0a6      	b.n	b656 <__aeabi_dsub+0x192>
    b508:	4660      	mov	r0, ip
    b50a:	1a35      	subs	r5, r6, r0
    b50c:	2d00      	cmp	r5, #0
    b50e:	dc00      	bgt.n	b512 <__aeabi_dsub+0x4e>
    b510:	e105      	b.n	b71e <__aeabi_dsub+0x25a>
    b512:	2800      	cmp	r0, #0
    b514:	d110      	bne.n	b538 <__aeabi_dsub+0x74>
    b516:	000b      	movs	r3, r1
    b518:	4313      	orrs	r3, r2
    b51a:	d100      	bne.n	b51e <__aeabi_dsub+0x5a>
    b51c:	e0d7      	b.n	b6ce <__aeabi_dsub+0x20a>
    b51e:	1e6b      	subs	r3, r5, #1
    b520:	2b00      	cmp	r3, #0
    b522:	d000      	beq.n	b526 <__aeabi_dsub+0x62>
    b524:	e14b      	b.n	b7be <__aeabi_dsub+0x2fa>
    b526:	4653      	mov	r3, sl
    b528:	1a9f      	subs	r7, r3, r2
    b52a:	45ba      	cmp	sl, r7
    b52c:	4180      	sbcs	r0, r0
    b52e:	1a64      	subs	r4, r4, r1
    b530:	4240      	negs	r0, r0
    b532:	1a24      	subs	r4, r4, r0
    b534:	2601      	movs	r6, #1
    b536:	e01e      	b.n	b576 <__aeabi_dsub+0xb2>
    b538:	4bb3      	ldr	r3, [pc, #716]	; (b808 <__aeabi_dsub+0x344>)
    b53a:	429e      	cmp	r6, r3
    b53c:	d048      	beq.n	b5d0 <__aeabi_dsub+0x10c>
    b53e:	2380      	movs	r3, #128	; 0x80
    b540:	041b      	lsls	r3, r3, #16
    b542:	4319      	orrs	r1, r3
    b544:	2d38      	cmp	r5, #56	; 0x38
    b546:	dd00      	ble.n	b54a <__aeabi_dsub+0x86>
    b548:	e119      	b.n	b77e <__aeabi_dsub+0x2ba>
    b54a:	2d1f      	cmp	r5, #31
    b54c:	dd00      	ble.n	b550 <__aeabi_dsub+0x8c>
    b54e:	e14c      	b.n	b7ea <__aeabi_dsub+0x326>
    b550:	2320      	movs	r3, #32
    b552:	000f      	movs	r7, r1
    b554:	1b5b      	subs	r3, r3, r5
    b556:	0010      	movs	r0, r2
    b558:	409a      	lsls	r2, r3
    b55a:	409f      	lsls	r7, r3
    b55c:	40e8      	lsrs	r0, r5
    b55e:	1e53      	subs	r3, r2, #1
    b560:	419a      	sbcs	r2, r3
    b562:	40e9      	lsrs	r1, r5
    b564:	4307      	orrs	r7, r0
    b566:	4317      	orrs	r7, r2
    b568:	4653      	mov	r3, sl
    b56a:	1bdf      	subs	r7, r3, r7
    b56c:	1a61      	subs	r1, r4, r1
    b56e:	45ba      	cmp	sl, r7
    b570:	41a4      	sbcs	r4, r4
    b572:	4264      	negs	r4, r4
    b574:	1b0c      	subs	r4, r1, r4
    b576:	0223      	lsls	r3, r4, #8
    b578:	d400      	bmi.n	b57c <__aeabi_dsub+0xb8>
    b57a:	e0c5      	b.n	b708 <__aeabi_dsub+0x244>
    b57c:	0264      	lsls	r4, r4, #9
    b57e:	0a65      	lsrs	r5, r4, #9
    b580:	2d00      	cmp	r5, #0
    b582:	d100      	bne.n	b586 <__aeabi_dsub+0xc2>
    b584:	e0f6      	b.n	b774 <__aeabi_dsub+0x2b0>
    b586:	0028      	movs	r0, r5
    b588:	f7fd fe98 	bl	92bc <__clzsi2>
    b58c:	0003      	movs	r3, r0
    b58e:	3b08      	subs	r3, #8
    b590:	2b1f      	cmp	r3, #31
    b592:	dd00      	ble.n	b596 <__aeabi_dsub+0xd2>
    b594:	e0e9      	b.n	b76a <__aeabi_dsub+0x2a6>
    b596:	2220      	movs	r2, #32
    b598:	003c      	movs	r4, r7
    b59a:	1ad2      	subs	r2, r2, r3
    b59c:	409d      	lsls	r5, r3
    b59e:	40d4      	lsrs	r4, r2
    b5a0:	409f      	lsls	r7, r3
    b5a2:	4325      	orrs	r5, r4
    b5a4:	429e      	cmp	r6, r3
    b5a6:	dd00      	ble.n	b5aa <__aeabi_dsub+0xe6>
    b5a8:	e0db      	b.n	b762 <__aeabi_dsub+0x29e>
    b5aa:	1b9e      	subs	r6, r3, r6
    b5ac:	1c73      	adds	r3, r6, #1
    b5ae:	2b1f      	cmp	r3, #31
    b5b0:	dd00      	ble.n	b5b4 <__aeabi_dsub+0xf0>
    b5b2:	e10a      	b.n	b7ca <__aeabi_dsub+0x306>
    b5b4:	2220      	movs	r2, #32
    b5b6:	0038      	movs	r0, r7
    b5b8:	1ad2      	subs	r2, r2, r3
    b5ba:	0029      	movs	r1, r5
    b5bc:	4097      	lsls	r7, r2
    b5be:	002c      	movs	r4, r5
    b5c0:	4091      	lsls	r1, r2
    b5c2:	40d8      	lsrs	r0, r3
    b5c4:	1e7a      	subs	r2, r7, #1
    b5c6:	4197      	sbcs	r7, r2
    b5c8:	40dc      	lsrs	r4, r3
    b5ca:	2600      	movs	r6, #0
    b5cc:	4301      	orrs	r1, r0
    b5ce:	430f      	orrs	r7, r1
    b5d0:	077b      	lsls	r3, r7, #29
    b5d2:	d009      	beq.n	b5e8 <__aeabi_dsub+0x124>
    b5d4:	230f      	movs	r3, #15
    b5d6:	403b      	ands	r3, r7
    b5d8:	2b04      	cmp	r3, #4
    b5da:	d005      	beq.n	b5e8 <__aeabi_dsub+0x124>
    b5dc:	1d3b      	adds	r3, r7, #4
    b5de:	42bb      	cmp	r3, r7
    b5e0:	41bf      	sbcs	r7, r7
    b5e2:	427f      	negs	r7, r7
    b5e4:	19e4      	adds	r4, r4, r7
    b5e6:	001f      	movs	r7, r3
    b5e8:	0223      	lsls	r3, r4, #8
    b5ea:	d525      	bpl.n	b638 <__aeabi_dsub+0x174>
    b5ec:	4b86      	ldr	r3, [pc, #536]	; (b808 <__aeabi_dsub+0x344>)
    b5ee:	3601      	adds	r6, #1
    b5f0:	429e      	cmp	r6, r3
    b5f2:	d100      	bne.n	b5f6 <__aeabi_dsub+0x132>
    b5f4:	e0af      	b.n	b756 <__aeabi_dsub+0x292>
    b5f6:	4b85      	ldr	r3, [pc, #532]	; (b80c <__aeabi_dsub+0x348>)
    b5f8:	2501      	movs	r5, #1
    b5fa:	401c      	ands	r4, r3
    b5fc:	4643      	mov	r3, r8
    b5fe:	0762      	lsls	r2, r4, #29
    b600:	08ff      	lsrs	r7, r7, #3
    b602:	0264      	lsls	r4, r4, #9
    b604:	0576      	lsls	r6, r6, #21
    b606:	4317      	orrs	r7, r2
    b608:	0b24      	lsrs	r4, r4, #12
    b60a:	0d76      	lsrs	r6, r6, #21
    b60c:	401d      	ands	r5, r3
    b60e:	2100      	movs	r1, #0
    b610:	0324      	lsls	r4, r4, #12
    b612:	0b23      	lsrs	r3, r4, #12
    b614:	0d0c      	lsrs	r4, r1, #20
    b616:	4a7e      	ldr	r2, [pc, #504]	; (b810 <__aeabi_dsub+0x34c>)
    b618:	0524      	lsls	r4, r4, #20
    b61a:	431c      	orrs	r4, r3
    b61c:	4014      	ands	r4, r2
    b61e:	0533      	lsls	r3, r6, #20
    b620:	4323      	orrs	r3, r4
    b622:	005b      	lsls	r3, r3, #1
    b624:	07ed      	lsls	r5, r5, #31
    b626:	085b      	lsrs	r3, r3, #1
    b628:	432b      	orrs	r3, r5
    b62a:	0038      	movs	r0, r7
    b62c:	0019      	movs	r1, r3
    b62e:	bc1c      	pop	{r2, r3, r4}
    b630:	4690      	mov	r8, r2
    b632:	4699      	mov	r9, r3
    b634:	46a2      	mov	sl, r4
    b636:	bdf0      	pop	{r4, r5, r6, r7, pc}
    b638:	2501      	movs	r5, #1
    b63a:	4643      	mov	r3, r8
    b63c:	0762      	lsls	r2, r4, #29
    b63e:	08ff      	lsrs	r7, r7, #3
    b640:	4317      	orrs	r7, r2
    b642:	08e4      	lsrs	r4, r4, #3
    b644:	401d      	ands	r5, r3
    b646:	4b70      	ldr	r3, [pc, #448]	; (b808 <__aeabi_dsub+0x344>)
    b648:	429e      	cmp	r6, r3
    b64a:	d036      	beq.n	b6ba <__aeabi_dsub+0x1f6>
    b64c:	0324      	lsls	r4, r4, #12
    b64e:	0576      	lsls	r6, r6, #21
    b650:	0b24      	lsrs	r4, r4, #12
    b652:	0d76      	lsrs	r6, r6, #21
    b654:	e7db      	b.n	b60e <__aeabi_dsub+0x14a>
    b656:	4663      	mov	r3, ip
    b658:	1af3      	subs	r3, r6, r3
    b65a:	2b00      	cmp	r3, #0
    b65c:	dc00      	bgt.n	b660 <__aeabi_dsub+0x19c>
    b65e:	e094      	b.n	b78a <__aeabi_dsub+0x2c6>
    b660:	4660      	mov	r0, ip
    b662:	2800      	cmp	r0, #0
    b664:	d035      	beq.n	b6d2 <__aeabi_dsub+0x20e>
    b666:	4868      	ldr	r0, [pc, #416]	; (b808 <__aeabi_dsub+0x344>)
    b668:	4286      	cmp	r6, r0
    b66a:	d0b1      	beq.n	b5d0 <__aeabi_dsub+0x10c>
    b66c:	2780      	movs	r7, #128	; 0x80
    b66e:	043f      	lsls	r7, r7, #16
    b670:	4339      	orrs	r1, r7
    b672:	2b38      	cmp	r3, #56	; 0x38
    b674:	dc00      	bgt.n	b678 <__aeabi_dsub+0x1b4>
    b676:	e0fd      	b.n	b874 <__aeabi_dsub+0x3b0>
    b678:	430a      	orrs	r2, r1
    b67a:	0017      	movs	r7, r2
    b67c:	2100      	movs	r1, #0
    b67e:	1e7a      	subs	r2, r7, #1
    b680:	4197      	sbcs	r7, r2
    b682:	4457      	add	r7, sl
    b684:	4557      	cmp	r7, sl
    b686:	4180      	sbcs	r0, r0
    b688:	1909      	adds	r1, r1, r4
    b68a:	4244      	negs	r4, r0
    b68c:	190c      	adds	r4, r1, r4
    b68e:	0223      	lsls	r3, r4, #8
    b690:	d53a      	bpl.n	b708 <__aeabi_dsub+0x244>
    b692:	4b5d      	ldr	r3, [pc, #372]	; (b808 <__aeabi_dsub+0x344>)
    b694:	3601      	adds	r6, #1
    b696:	429e      	cmp	r6, r3
    b698:	d100      	bne.n	b69c <__aeabi_dsub+0x1d8>
    b69a:	e14b      	b.n	b934 <__aeabi_dsub+0x470>
    b69c:	2201      	movs	r2, #1
    b69e:	4b5b      	ldr	r3, [pc, #364]	; (b80c <__aeabi_dsub+0x348>)
    b6a0:	401c      	ands	r4, r3
    b6a2:	087b      	lsrs	r3, r7, #1
    b6a4:	4017      	ands	r7, r2
    b6a6:	431f      	orrs	r7, r3
    b6a8:	07e2      	lsls	r2, r4, #31
    b6aa:	4317      	orrs	r7, r2
    b6ac:	0864      	lsrs	r4, r4, #1
    b6ae:	e78f      	b.n	b5d0 <__aeabi_dsub+0x10c>
    b6b0:	0008      	movs	r0, r1
    b6b2:	4310      	orrs	r0, r2
    b6b4:	d000      	beq.n	b6b8 <__aeabi_dsub+0x1f4>
    b6b6:	e724      	b.n	b502 <__aeabi_dsub+0x3e>
    b6b8:	e721      	b.n	b4fe <__aeabi_dsub+0x3a>
    b6ba:	0023      	movs	r3, r4
    b6bc:	433b      	orrs	r3, r7
    b6be:	d100      	bne.n	b6c2 <__aeabi_dsub+0x1fe>
    b6c0:	e1b9      	b.n	ba36 <__aeabi_dsub+0x572>
    b6c2:	2280      	movs	r2, #128	; 0x80
    b6c4:	0312      	lsls	r2, r2, #12
    b6c6:	4314      	orrs	r4, r2
    b6c8:	0324      	lsls	r4, r4, #12
    b6ca:	0b24      	lsrs	r4, r4, #12
    b6cc:	e79f      	b.n	b60e <__aeabi_dsub+0x14a>
    b6ce:	002e      	movs	r6, r5
    b6d0:	e77e      	b.n	b5d0 <__aeabi_dsub+0x10c>
    b6d2:	0008      	movs	r0, r1
    b6d4:	4310      	orrs	r0, r2
    b6d6:	d100      	bne.n	b6da <__aeabi_dsub+0x216>
    b6d8:	e0ca      	b.n	b870 <__aeabi_dsub+0x3ac>
    b6da:	1e58      	subs	r0, r3, #1
    b6dc:	4684      	mov	ip, r0
    b6de:	2800      	cmp	r0, #0
    b6e0:	d000      	beq.n	b6e4 <__aeabi_dsub+0x220>
    b6e2:	e0e7      	b.n	b8b4 <__aeabi_dsub+0x3f0>
    b6e4:	4452      	add	r2, sl
    b6e6:	4552      	cmp	r2, sl
    b6e8:	4180      	sbcs	r0, r0
    b6ea:	1864      	adds	r4, r4, r1
    b6ec:	4240      	negs	r0, r0
    b6ee:	1824      	adds	r4, r4, r0
    b6f0:	0017      	movs	r7, r2
    b6f2:	2601      	movs	r6, #1
    b6f4:	0223      	lsls	r3, r4, #8
    b6f6:	d507      	bpl.n	b708 <__aeabi_dsub+0x244>
    b6f8:	2602      	movs	r6, #2
    b6fa:	e7cf      	b.n	b69c <__aeabi_dsub+0x1d8>
    b6fc:	4664      	mov	r4, ip
    b6fe:	432c      	orrs	r4, r5
    b700:	d100      	bne.n	b704 <__aeabi_dsub+0x240>
    b702:	e1b3      	b.n	ba6c <__aeabi_dsub+0x5a8>
    b704:	002c      	movs	r4, r5
    b706:	4667      	mov	r7, ip
    b708:	077b      	lsls	r3, r7, #29
    b70a:	d000      	beq.n	b70e <__aeabi_dsub+0x24a>
    b70c:	e762      	b.n	b5d4 <__aeabi_dsub+0x110>
    b70e:	0763      	lsls	r3, r4, #29
    b710:	08ff      	lsrs	r7, r7, #3
    b712:	431f      	orrs	r7, r3
    b714:	2501      	movs	r5, #1
    b716:	4643      	mov	r3, r8
    b718:	08e4      	lsrs	r4, r4, #3
    b71a:	401d      	ands	r5, r3
    b71c:	e793      	b.n	b646 <__aeabi_dsub+0x182>
    b71e:	2d00      	cmp	r5, #0
    b720:	d178      	bne.n	b814 <__aeabi_dsub+0x350>
    b722:	1c75      	adds	r5, r6, #1
    b724:	056d      	lsls	r5, r5, #21
    b726:	0d6d      	lsrs	r5, r5, #21
    b728:	2d01      	cmp	r5, #1
    b72a:	dc00      	bgt.n	b72e <__aeabi_dsub+0x26a>
    b72c:	e0f2      	b.n	b914 <__aeabi_dsub+0x450>
    b72e:	4650      	mov	r0, sl
    b730:	1a80      	subs	r0, r0, r2
    b732:	4582      	cmp	sl, r0
    b734:	41bf      	sbcs	r7, r7
    b736:	1a65      	subs	r5, r4, r1
    b738:	427f      	negs	r7, r7
    b73a:	1bed      	subs	r5, r5, r7
    b73c:	4684      	mov	ip, r0
    b73e:	0228      	lsls	r0, r5, #8
    b740:	d400      	bmi.n	b744 <__aeabi_dsub+0x280>
    b742:	e08c      	b.n	b85e <__aeabi_dsub+0x39a>
    b744:	4650      	mov	r0, sl
    b746:	1a17      	subs	r7, r2, r0
    b748:	42ba      	cmp	r2, r7
    b74a:	4192      	sbcs	r2, r2
    b74c:	1b0c      	subs	r4, r1, r4
    b74e:	4255      	negs	r5, r2
    b750:	1b65      	subs	r5, r4, r5
    b752:	4698      	mov	r8, r3
    b754:	e714      	b.n	b580 <__aeabi_dsub+0xbc>
    b756:	2501      	movs	r5, #1
    b758:	4643      	mov	r3, r8
    b75a:	2400      	movs	r4, #0
    b75c:	401d      	ands	r5, r3
    b75e:	2700      	movs	r7, #0
    b760:	e755      	b.n	b60e <__aeabi_dsub+0x14a>
    b762:	4c2a      	ldr	r4, [pc, #168]	; (b80c <__aeabi_dsub+0x348>)
    b764:	1af6      	subs	r6, r6, r3
    b766:	402c      	ands	r4, r5
    b768:	e732      	b.n	b5d0 <__aeabi_dsub+0x10c>
    b76a:	003d      	movs	r5, r7
    b76c:	3828      	subs	r0, #40	; 0x28
    b76e:	4085      	lsls	r5, r0
    b770:	2700      	movs	r7, #0
    b772:	e717      	b.n	b5a4 <__aeabi_dsub+0xe0>
    b774:	0038      	movs	r0, r7
    b776:	f7fd fda1 	bl	92bc <__clzsi2>
    b77a:	3020      	adds	r0, #32
    b77c:	e706      	b.n	b58c <__aeabi_dsub+0xc8>
    b77e:	430a      	orrs	r2, r1
    b780:	0017      	movs	r7, r2
    b782:	2100      	movs	r1, #0
    b784:	1e7a      	subs	r2, r7, #1
    b786:	4197      	sbcs	r7, r2
    b788:	e6ee      	b.n	b568 <__aeabi_dsub+0xa4>
    b78a:	2b00      	cmp	r3, #0
    b78c:	d000      	beq.n	b790 <__aeabi_dsub+0x2cc>
    b78e:	e0e5      	b.n	b95c <__aeabi_dsub+0x498>
    b790:	1c73      	adds	r3, r6, #1
    b792:	469c      	mov	ip, r3
    b794:	055b      	lsls	r3, r3, #21
    b796:	0d5b      	lsrs	r3, r3, #21
    b798:	2b01      	cmp	r3, #1
    b79a:	dc00      	bgt.n	b79e <__aeabi_dsub+0x2da>
    b79c:	e09f      	b.n	b8de <__aeabi_dsub+0x41a>
    b79e:	4b1a      	ldr	r3, [pc, #104]	; (b808 <__aeabi_dsub+0x344>)
    b7a0:	459c      	cmp	ip, r3
    b7a2:	d100      	bne.n	b7a6 <__aeabi_dsub+0x2e2>
    b7a4:	e0c5      	b.n	b932 <__aeabi_dsub+0x46e>
    b7a6:	4452      	add	r2, sl
    b7a8:	4552      	cmp	r2, sl
    b7aa:	4180      	sbcs	r0, r0
    b7ac:	1864      	adds	r4, r4, r1
    b7ae:	4240      	negs	r0, r0
    b7b0:	1824      	adds	r4, r4, r0
    b7b2:	07e7      	lsls	r7, r4, #31
    b7b4:	0852      	lsrs	r2, r2, #1
    b7b6:	4317      	orrs	r7, r2
    b7b8:	0864      	lsrs	r4, r4, #1
    b7ba:	4666      	mov	r6, ip
    b7bc:	e708      	b.n	b5d0 <__aeabi_dsub+0x10c>
    b7be:	4812      	ldr	r0, [pc, #72]	; (b808 <__aeabi_dsub+0x344>)
    b7c0:	4285      	cmp	r5, r0
    b7c2:	d100      	bne.n	b7c6 <__aeabi_dsub+0x302>
    b7c4:	e085      	b.n	b8d2 <__aeabi_dsub+0x40e>
    b7c6:	001d      	movs	r5, r3
    b7c8:	e6bc      	b.n	b544 <__aeabi_dsub+0x80>
    b7ca:	0029      	movs	r1, r5
    b7cc:	3e1f      	subs	r6, #31
    b7ce:	40f1      	lsrs	r1, r6
    b7d0:	2b20      	cmp	r3, #32
    b7d2:	d100      	bne.n	b7d6 <__aeabi_dsub+0x312>
    b7d4:	e07f      	b.n	b8d6 <__aeabi_dsub+0x412>
    b7d6:	2240      	movs	r2, #64	; 0x40
    b7d8:	1ad3      	subs	r3, r2, r3
    b7da:	409d      	lsls	r5, r3
    b7dc:	432f      	orrs	r7, r5
    b7de:	1e7d      	subs	r5, r7, #1
    b7e0:	41af      	sbcs	r7, r5
    b7e2:	2400      	movs	r4, #0
    b7e4:	430f      	orrs	r7, r1
    b7e6:	2600      	movs	r6, #0
    b7e8:	e78e      	b.n	b708 <__aeabi_dsub+0x244>
    b7ea:	002b      	movs	r3, r5
    b7ec:	000f      	movs	r7, r1
    b7ee:	3b20      	subs	r3, #32
    b7f0:	40df      	lsrs	r7, r3
    b7f2:	2d20      	cmp	r5, #32
    b7f4:	d071      	beq.n	b8da <__aeabi_dsub+0x416>
    b7f6:	2340      	movs	r3, #64	; 0x40
    b7f8:	1b5d      	subs	r5, r3, r5
    b7fa:	40a9      	lsls	r1, r5
    b7fc:	430a      	orrs	r2, r1
    b7fe:	1e51      	subs	r1, r2, #1
    b800:	418a      	sbcs	r2, r1
    b802:	2100      	movs	r1, #0
    b804:	4317      	orrs	r7, r2
    b806:	e6af      	b.n	b568 <__aeabi_dsub+0xa4>
    b808:	000007ff 	.word	0x000007ff
    b80c:	ff7fffff 	.word	0xff7fffff
    b810:	800fffff 	.word	0x800fffff
    b814:	2e00      	cmp	r6, #0
    b816:	d03e      	beq.n	b896 <__aeabi_dsub+0x3d2>
    b818:	4eb3      	ldr	r6, [pc, #716]	; (bae8 <__aeabi_dsub+0x624>)
    b81a:	45b4      	cmp	ip, r6
    b81c:	d045      	beq.n	b8aa <__aeabi_dsub+0x3e6>
    b81e:	2680      	movs	r6, #128	; 0x80
    b820:	0436      	lsls	r6, r6, #16
    b822:	426d      	negs	r5, r5
    b824:	4334      	orrs	r4, r6
    b826:	2d38      	cmp	r5, #56	; 0x38
    b828:	dd00      	ble.n	b82c <__aeabi_dsub+0x368>
    b82a:	e0a8      	b.n	b97e <__aeabi_dsub+0x4ba>
    b82c:	2d1f      	cmp	r5, #31
    b82e:	dd00      	ble.n	b832 <__aeabi_dsub+0x36e>
    b830:	e11f      	b.n	ba72 <__aeabi_dsub+0x5ae>
    b832:	2620      	movs	r6, #32
    b834:	0027      	movs	r7, r4
    b836:	4650      	mov	r0, sl
    b838:	1b76      	subs	r6, r6, r5
    b83a:	40b7      	lsls	r7, r6
    b83c:	40e8      	lsrs	r0, r5
    b83e:	4307      	orrs	r7, r0
    b840:	4650      	mov	r0, sl
    b842:	40b0      	lsls	r0, r6
    b844:	1e46      	subs	r6, r0, #1
    b846:	41b0      	sbcs	r0, r6
    b848:	40ec      	lsrs	r4, r5
    b84a:	4338      	orrs	r0, r7
    b84c:	1a17      	subs	r7, r2, r0
    b84e:	42ba      	cmp	r2, r7
    b850:	4192      	sbcs	r2, r2
    b852:	1b0c      	subs	r4, r1, r4
    b854:	4252      	negs	r2, r2
    b856:	1aa4      	subs	r4, r4, r2
    b858:	4666      	mov	r6, ip
    b85a:	4698      	mov	r8, r3
    b85c:	e68b      	b.n	b576 <__aeabi_dsub+0xb2>
    b85e:	4664      	mov	r4, ip
    b860:	4667      	mov	r7, ip
    b862:	432c      	orrs	r4, r5
    b864:	d000      	beq.n	b868 <__aeabi_dsub+0x3a4>
    b866:	e68b      	b.n	b580 <__aeabi_dsub+0xbc>
    b868:	2500      	movs	r5, #0
    b86a:	2600      	movs	r6, #0
    b86c:	2700      	movs	r7, #0
    b86e:	e6ea      	b.n	b646 <__aeabi_dsub+0x182>
    b870:	001e      	movs	r6, r3
    b872:	e6ad      	b.n	b5d0 <__aeabi_dsub+0x10c>
    b874:	2b1f      	cmp	r3, #31
    b876:	dc60      	bgt.n	b93a <__aeabi_dsub+0x476>
    b878:	2720      	movs	r7, #32
    b87a:	1af8      	subs	r0, r7, r3
    b87c:	000f      	movs	r7, r1
    b87e:	4684      	mov	ip, r0
    b880:	4087      	lsls	r7, r0
    b882:	0010      	movs	r0, r2
    b884:	40d8      	lsrs	r0, r3
    b886:	4307      	orrs	r7, r0
    b888:	4660      	mov	r0, ip
    b88a:	4082      	lsls	r2, r0
    b88c:	1e50      	subs	r0, r2, #1
    b88e:	4182      	sbcs	r2, r0
    b890:	40d9      	lsrs	r1, r3
    b892:	4317      	orrs	r7, r2
    b894:	e6f5      	b.n	b682 <__aeabi_dsub+0x1be>
    b896:	0026      	movs	r6, r4
    b898:	4650      	mov	r0, sl
    b89a:	4306      	orrs	r6, r0
    b89c:	d005      	beq.n	b8aa <__aeabi_dsub+0x3e6>
    b89e:	43ed      	mvns	r5, r5
    b8a0:	2d00      	cmp	r5, #0
    b8a2:	d0d3      	beq.n	b84c <__aeabi_dsub+0x388>
    b8a4:	4e90      	ldr	r6, [pc, #576]	; (bae8 <__aeabi_dsub+0x624>)
    b8a6:	45b4      	cmp	ip, r6
    b8a8:	d1bd      	bne.n	b826 <__aeabi_dsub+0x362>
    b8aa:	000c      	movs	r4, r1
    b8ac:	0017      	movs	r7, r2
    b8ae:	4666      	mov	r6, ip
    b8b0:	4698      	mov	r8, r3
    b8b2:	e68d      	b.n	b5d0 <__aeabi_dsub+0x10c>
    b8b4:	488c      	ldr	r0, [pc, #560]	; (bae8 <__aeabi_dsub+0x624>)
    b8b6:	4283      	cmp	r3, r0
    b8b8:	d00b      	beq.n	b8d2 <__aeabi_dsub+0x40e>
    b8ba:	4663      	mov	r3, ip
    b8bc:	e6d9      	b.n	b672 <__aeabi_dsub+0x1ae>
    b8be:	2d00      	cmp	r5, #0
    b8c0:	d000      	beq.n	b8c4 <__aeabi_dsub+0x400>
    b8c2:	e096      	b.n	b9f2 <__aeabi_dsub+0x52e>
    b8c4:	0008      	movs	r0, r1
    b8c6:	4310      	orrs	r0, r2
    b8c8:	d100      	bne.n	b8cc <__aeabi_dsub+0x408>
    b8ca:	e0e2      	b.n	ba92 <__aeabi_dsub+0x5ce>
    b8cc:	000c      	movs	r4, r1
    b8ce:	0017      	movs	r7, r2
    b8d0:	4698      	mov	r8, r3
    b8d2:	4e85      	ldr	r6, [pc, #532]	; (bae8 <__aeabi_dsub+0x624>)
    b8d4:	e67c      	b.n	b5d0 <__aeabi_dsub+0x10c>
    b8d6:	2500      	movs	r5, #0
    b8d8:	e780      	b.n	b7dc <__aeabi_dsub+0x318>
    b8da:	2100      	movs	r1, #0
    b8dc:	e78e      	b.n	b7fc <__aeabi_dsub+0x338>
    b8de:	0023      	movs	r3, r4
    b8e0:	4650      	mov	r0, sl
    b8e2:	4303      	orrs	r3, r0
    b8e4:	2e00      	cmp	r6, #0
    b8e6:	d000      	beq.n	b8ea <__aeabi_dsub+0x426>
    b8e8:	e0a8      	b.n	ba3c <__aeabi_dsub+0x578>
    b8ea:	2b00      	cmp	r3, #0
    b8ec:	d100      	bne.n	b8f0 <__aeabi_dsub+0x42c>
    b8ee:	e0de      	b.n	baae <__aeabi_dsub+0x5ea>
    b8f0:	000b      	movs	r3, r1
    b8f2:	4313      	orrs	r3, r2
    b8f4:	d100      	bne.n	b8f8 <__aeabi_dsub+0x434>
    b8f6:	e66b      	b.n	b5d0 <__aeabi_dsub+0x10c>
    b8f8:	4452      	add	r2, sl
    b8fa:	4552      	cmp	r2, sl
    b8fc:	4180      	sbcs	r0, r0
    b8fe:	1864      	adds	r4, r4, r1
    b900:	4240      	negs	r0, r0
    b902:	1824      	adds	r4, r4, r0
    b904:	0017      	movs	r7, r2
    b906:	0223      	lsls	r3, r4, #8
    b908:	d400      	bmi.n	b90c <__aeabi_dsub+0x448>
    b90a:	e6fd      	b.n	b708 <__aeabi_dsub+0x244>
    b90c:	4b77      	ldr	r3, [pc, #476]	; (baec <__aeabi_dsub+0x628>)
    b90e:	4666      	mov	r6, ip
    b910:	401c      	ands	r4, r3
    b912:	e65d      	b.n	b5d0 <__aeabi_dsub+0x10c>
    b914:	0025      	movs	r5, r4
    b916:	4650      	mov	r0, sl
    b918:	4305      	orrs	r5, r0
    b91a:	2e00      	cmp	r6, #0
    b91c:	d1cf      	bne.n	b8be <__aeabi_dsub+0x3fa>
    b91e:	2d00      	cmp	r5, #0
    b920:	d14f      	bne.n	b9c2 <__aeabi_dsub+0x4fe>
    b922:	000c      	movs	r4, r1
    b924:	4314      	orrs	r4, r2
    b926:	d100      	bne.n	b92a <__aeabi_dsub+0x466>
    b928:	e0a0      	b.n	ba6c <__aeabi_dsub+0x5a8>
    b92a:	000c      	movs	r4, r1
    b92c:	0017      	movs	r7, r2
    b92e:	4698      	mov	r8, r3
    b930:	e64e      	b.n	b5d0 <__aeabi_dsub+0x10c>
    b932:	4666      	mov	r6, ip
    b934:	2400      	movs	r4, #0
    b936:	2700      	movs	r7, #0
    b938:	e685      	b.n	b646 <__aeabi_dsub+0x182>
    b93a:	001f      	movs	r7, r3
    b93c:	0008      	movs	r0, r1
    b93e:	3f20      	subs	r7, #32
    b940:	40f8      	lsrs	r0, r7
    b942:	0007      	movs	r7, r0
    b944:	2b20      	cmp	r3, #32
    b946:	d100      	bne.n	b94a <__aeabi_dsub+0x486>
    b948:	e08e      	b.n	ba68 <__aeabi_dsub+0x5a4>
    b94a:	2040      	movs	r0, #64	; 0x40
    b94c:	1ac3      	subs	r3, r0, r3
    b94e:	4099      	lsls	r1, r3
    b950:	430a      	orrs	r2, r1
    b952:	1e51      	subs	r1, r2, #1
    b954:	418a      	sbcs	r2, r1
    b956:	2100      	movs	r1, #0
    b958:	4317      	orrs	r7, r2
    b95a:	e692      	b.n	b682 <__aeabi_dsub+0x1be>
    b95c:	2e00      	cmp	r6, #0
    b95e:	d114      	bne.n	b98a <__aeabi_dsub+0x4c6>
    b960:	0026      	movs	r6, r4
    b962:	4650      	mov	r0, sl
    b964:	4306      	orrs	r6, r0
    b966:	d062      	beq.n	ba2e <__aeabi_dsub+0x56a>
    b968:	43db      	mvns	r3, r3
    b96a:	2b00      	cmp	r3, #0
    b96c:	d15c      	bne.n	ba28 <__aeabi_dsub+0x564>
    b96e:	1887      	adds	r7, r0, r2
    b970:	4297      	cmp	r7, r2
    b972:	4192      	sbcs	r2, r2
    b974:	1864      	adds	r4, r4, r1
    b976:	4252      	negs	r2, r2
    b978:	18a4      	adds	r4, r4, r2
    b97a:	4666      	mov	r6, ip
    b97c:	e687      	b.n	b68e <__aeabi_dsub+0x1ca>
    b97e:	4650      	mov	r0, sl
    b980:	4320      	orrs	r0, r4
    b982:	1e44      	subs	r4, r0, #1
    b984:	41a0      	sbcs	r0, r4
    b986:	2400      	movs	r4, #0
    b988:	e760      	b.n	b84c <__aeabi_dsub+0x388>
    b98a:	4e57      	ldr	r6, [pc, #348]	; (bae8 <__aeabi_dsub+0x624>)
    b98c:	45b4      	cmp	ip, r6
    b98e:	d04e      	beq.n	ba2e <__aeabi_dsub+0x56a>
    b990:	2680      	movs	r6, #128	; 0x80
    b992:	0436      	lsls	r6, r6, #16
    b994:	425b      	negs	r3, r3
    b996:	4334      	orrs	r4, r6
    b998:	2b38      	cmp	r3, #56	; 0x38
    b99a:	dd00      	ble.n	b99e <__aeabi_dsub+0x4da>
    b99c:	e07f      	b.n	ba9e <__aeabi_dsub+0x5da>
    b99e:	2b1f      	cmp	r3, #31
    b9a0:	dd00      	ble.n	b9a4 <__aeabi_dsub+0x4e0>
    b9a2:	e08b      	b.n	babc <__aeabi_dsub+0x5f8>
    b9a4:	2620      	movs	r6, #32
    b9a6:	0027      	movs	r7, r4
    b9a8:	4650      	mov	r0, sl
    b9aa:	1af6      	subs	r6, r6, r3
    b9ac:	40b7      	lsls	r7, r6
    b9ae:	40d8      	lsrs	r0, r3
    b9b0:	4307      	orrs	r7, r0
    b9b2:	4650      	mov	r0, sl
    b9b4:	40b0      	lsls	r0, r6
    b9b6:	1e46      	subs	r6, r0, #1
    b9b8:	41b0      	sbcs	r0, r6
    b9ba:	4307      	orrs	r7, r0
    b9bc:	40dc      	lsrs	r4, r3
    b9be:	18bf      	adds	r7, r7, r2
    b9c0:	e7d6      	b.n	b970 <__aeabi_dsub+0x4ac>
    b9c2:	000d      	movs	r5, r1
    b9c4:	4315      	orrs	r5, r2
    b9c6:	d100      	bne.n	b9ca <__aeabi_dsub+0x506>
    b9c8:	e602      	b.n	b5d0 <__aeabi_dsub+0x10c>
    b9ca:	4650      	mov	r0, sl
    b9cc:	1a80      	subs	r0, r0, r2
    b9ce:	4582      	cmp	sl, r0
    b9d0:	41bf      	sbcs	r7, r7
    b9d2:	1a65      	subs	r5, r4, r1
    b9d4:	427f      	negs	r7, r7
    b9d6:	1bed      	subs	r5, r5, r7
    b9d8:	4684      	mov	ip, r0
    b9da:	0228      	lsls	r0, r5, #8
    b9dc:	d400      	bmi.n	b9e0 <__aeabi_dsub+0x51c>
    b9de:	e68d      	b.n	b6fc <__aeabi_dsub+0x238>
    b9e0:	4650      	mov	r0, sl
    b9e2:	1a17      	subs	r7, r2, r0
    b9e4:	42ba      	cmp	r2, r7
    b9e6:	4192      	sbcs	r2, r2
    b9e8:	1b0c      	subs	r4, r1, r4
    b9ea:	4252      	negs	r2, r2
    b9ec:	1aa4      	subs	r4, r4, r2
    b9ee:	4698      	mov	r8, r3
    b9f0:	e5ee      	b.n	b5d0 <__aeabi_dsub+0x10c>
    b9f2:	000d      	movs	r5, r1
    b9f4:	4315      	orrs	r5, r2
    b9f6:	d100      	bne.n	b9fa <__aeabi_dsub+0x536>
    b9f8:	e76b      	b.n	b8d2 <__aeabi_dsub+0x40e>
    b9fa:	4650      	mov	r0, sl
    b9fc:	0767      	lsls	r7, r4, #29
    b9fe:	08c0      	lsrs	r0, r0, #3
    ba00:	4307      	orrs	r7, r0
    ba02:	2080      	movs	r0, #128	; 0x80
    ba04:	08e4      	lsrs	r4, r4, #3
    ba06:	0300      	lsls	r0, r0, #12
    ba08:	4204      	tst	r4, r0
    ba0a:	d007      	beq.n	ba1c <__aeabi_dsub+0x558>
    ba0c:	08cd      	lsrs	r5, r1, #3
    ba0e:	4205      	tst	r5, r0
    ba10:	d104      	bne.n	ba1c <__aeabi_dsub+0x558>
    ba12:	002c      	movs	r4, r5
    ba14:	4698      	mov	r8, r3
    ba16:	08d7      	lsrs	r7, r2, #3
    ba18:	0749      	lsls	r1, r1, #29
    ba1a:	430f      	orrs	r7, r1
    ba1c:	0f7b      	lsrs	r3, r7, #29
    ba1e:	00e4      	lsls	r4, r4, #3
    ba20:	431c      	orrs	r4, r3
    ba22:	00ff      	lsls	r7, r7, #3
    ba24:	4e30      	ldr	r6, [pc, #192]	; (bae8 <__aeabi_dsub+0x624>)
    ba26:	e5d3      	b.n	b5d0 <__aeabi_dsub+0x10c>
    ba28:	4e2f      	ldr	r6, [pc, #188]	; (bae8 <__aeabi_dsub+0x624>)
    ba2a:	45b4      	cmp	ip, r6
    ba2c:	d1b4      	bne.n	b998 <__aeabi_dsub+0x4d4>
    ba2e:	000c      	movs	r4, r1
    ba30:	0017      	movs	r7, r2
    ba32:	4666      	mov	r6, ip
    ba34:	e5cc      	b.n	b5d0 <__aeabi_dsub+0x10c>
    ba36:	2700      	movs	r7, #0
    ba38:	2400      	movs	r4, #0
    ba3a:	e5e8      	b.n	b60e <__aeabi_dsub+0x14a>
    ba3c:	2b00      	cmp	r3, #0
    ba3e:	d039      	beq.n	bab4 <__aeabi_dsub+0x5f0>
    ba40:	000b      	movs	r3, r1
    ba42:	4313      	orrs	r3, r2
    ba44:	d100      	bne.n	ba48 <__aeabi_dsub+0x584>
    ba46:	e744      	b.n	b8d2 <__aeabi_dsub+0x40e>
    ba48:	08c0      	lsrs	r0, r0, #3
    ba4a:	0767      	lsls	r7, r4, #29
    ba4c:	4307      	orrs	r7, r0
    ba4e:	2080      	movs	r0, #128	; 0x80
    ba50:	08e4      	lsrs	r4, r4, #3
    ba52:	0300      	lsls	r0, r0, #12
    ba54:	4204      	tst	r4, r0
    ba56:	d0e1      	beq.n	ba1c <__aeabi_dsub+0x558>
    ba58:	08cb      	lsrs	r3, r1, #3
    ba5a:	4203      	tst	r3, r0
    ba5c:	d1de      	bne.n	ba1c <__aeabi_dsub+0x558>
    ba5e:	08d7      	lsrs	r7, r2, #3
    ba60:	0749      	lsls	r1, r1, #29
    ba62:	430f      	orrs	r7, r1
    ba64:	001c      	movs	r4, r3
    ba66:	e7d9      	b.n	ba1c <__aeabi_dsub+0x558>
    ba68:	2100      	movs	r1, #0
    ba6a:	e771      	b.n	b950 <__aeabi_dsub+0x48c>
    ba6c:	2500      	movs	r5, #0
    ba6e:	2700      	movs	r7, #0
    ba70:	e5e9      	b.n	b646 <__aeabi_dsub+0x182>
    ba72:	002e      	movs	r6, r5
    ba74:	0027      	movs	r7, r4
    ba76:	3e20      	subs	r6, #32
    ba78:	40f7      	lsrs	r7, r6
    ba7a:	2d20      	cmp	r5, #32
    ba7c:	d02f      	beq.n	bade <__aeabi_dsub+0x61a>
    ba7e:	2640      	movs	r6, #64	; 0x40
    ba80:	1b75      	subs	r5, r6, r5
    ba82:	40ac      	lsls	r4, r5
    ba84:	4650      	mov	r0, sl
    ba86:	4320      	orrs	r0, r4
    ba88:	1e44      	subs	r4, r0, #1
    ba8a:	41a0      	sbcs	r0, r4
    ba8c:	2400      	movs	r4, #0
    ba8e:	4338      	orrs	r0, r7
    ba90:	e6dc      	b.n	b84c <__aeabi_dsub+0x388>
    ba92:	2480      	movs	r4, #128	; 0x80
    ba94:	2500      	movs	r5, #0
    ba96:	0324      	lsls	r4, r4, #12
    ba98:	4e13      	ldr	r6, [pc, #76]	; (bae8 <__aeabi_dsub+0x624>)
    ba9a:	2700      	movs	r7, #0
    ba9c:	e5d3      	b.n	b646 <__aeabi_dsub+0x182>
    ba9e:	4650      	mov	r0, sl
    baa0:	4320      	orrs	r0, r4
    baa2:	0007      	movs	r7, r0
    baa4:	1e78      	subs	r0, r7, #1
    baa6:	4187      	sbcs	r7, r0
    baa8:	2400      	movs	r4, #0
    baaa:	18bf      	adds	r7, r7, r2
    baac:	e760      	b.n	b970 <__aeabi_dsub+0x4ac>
    baae:	000c      	movs	r4, r1
    bab0:	0017      	movs	r7, r2
    bab2:	e58d      	b.n	b5d0 <__aeabi_dsub+0x10c>
    bab4:	000c      	movs	r4, r1
    bab6:	0017      	movs	r7, r2
    bab8:	4e0b      	ldr	r6, [pc, #44]	; (bae8 <__aeabi_dsub+0x624>)
    baba:	e589      	b.n	b5d0 <__aeabi_dsub+0x10c>
    babc:	001e      	movs	r6, r3
    babe:	0027      	movs	r7, r4
    bac0:	3e20      	subs	r6, #32
    bac2:	40f7      	lsrs	r7, r6
    bac4:	2b20      	cmp	r3, #32
    bac6:	d00c      	beq.n	bae2 <__aeabi_dsub+0x61e>
    bac8:	2640      	movs	r6, #64	; 0x40
    baca:	1af3      	subs	r3, r6, r3
    bacc:	409c      	lsls	r4, r3
    bace:	4650      	mov	r0, sl
    bad0:	4320      	orrs	r0, r4
    bad2:	1e44      	subs	r4, r0, #1
    bad4:	41a0      	sbcs	r0, r4
    bad6:	4307      	orrs	r7, r0
    bad8:	2400      	movs	r4, #0
    bada:	18bf      	adds	r7, r7, r2
    badc:	e748      	b.n	b970 <__aeabi_dsub+0x4ac>
    bade:	2400      	movs	r4, #0
    bae0:	e7d0      	b.n	ba84 <__aeabi_dsub+0x5c0>
    bae2:	2400      	movs	r4, #0
    bae4:	e7f3      	b.n	bace <__aeabi_dsub+0x60a>
    bae6:	46c0      	nop			; (mov r8, r8)
    bae8:	000007ff 	.word	0x000007ff
    baec:	ff7fffff 	.word	0xff7fffff

0000baf0 <__aeabi_d2iz>:
    baf0:	b530      	push	{r4, r5, lr}
    baf2:	4d13      	ldr	r5, [pc, #76]	; (bb40 <__aeabi_d2iz+0x50>)
    baf4:	030a      	lsls	r2, r1, #12
    baf6:	004b      	lsls	r3, r1, #1
    baf8:	0b12      	lsrs	r2, r2, #12
    bafa:	0d5b      	lsrs	r3, r3, #21
    bafc:	0fc9      	lsrs	r1, r1, #31
    bafe:	2400      	movs	r4, #0
    bb00:	42ab      	cmp	r3, r5
    bb02:	dd10      	ble.n	bb26 <__aeabi_d2iz+0x36>
    bb04:	4c0f      	ldr	r4, [pc, #60]	; (bb44 <__aeabi_d2iz+0x54>)
    bb06:	42a3      	cmp	r3, r4
    bb08:	dc0f      	bgt.n	bb2a <__aeabi_d2iz+0x3a>
    bb0a:	2480      	movs	r4, #128	; 0x80
    bb0c:	4d0e      	ldr	r5, [pc, #56]	; (bb48 <__aeabi_d2iz+0x58>)
    bb0e:	0364      	lsls	r4, r4, #13
    bb10:	4322      	orrs	r2, r4
    bb12:	1aed      	subs	r5, r5, r3
    bb14:	2d1f      	cmp	r5, #31
    bb16:	dd0b      	ble.n	bb30 <__aeabi_d2iz+0x40>
    bb18:	480c      	ldr	r0, [pc, #48]	; (bb4c <__aeabi_d2iz+0x5c>)
    bb1a:	1ac3      	subs	r3, r0, r3
    bb1c:	40da      	lsrs	r2, r3
    bb1e:	4254      	negs	r4, r2
    bb20:	2900      	cmp	r1, #0
    bb22:	d100      	bne.n	bb26 <__aeabi_d2iz+0x36>
    bb24:	0014      	movs	r4, r2
    bb26:	0020      	movs	r0, r4
    bb28:	bd30      	pop	{r4, r5, pc}
    bb2a:	4b09      	ldr	r3, [pc, #36]	; (bb50 <__aeabi_d2iz+0x60>)
    bb2c:	18cc      	adds	r4, r1, r3
    bb2e:	e7fa      	b.n	bb26 <__aeabi_d2iz+0x36>
    bb30:	4c08      	ldr	r4, [pc, #32]	; (bb54 <__aeabi_d2iz+0x64>)
    bb32:	40e8      	lsrs	r0, r5
    bb34:	46a4      	mov	ip, r4
    bb36:	4463      	add	r3, ip
    bb38:	409a      	lsls	r2, r3
    bb3a:	4302      	orrs	r2, r0
    bb3c:	e7ef      	b.n	bb1e <__aeabi_d2iz+0x2e>
    bb3e:	46c0      	nop			; (mov r8, r8)
    bb40:	000003fe 	.word	0x000003fe
    bb44:	0000041d 	.word	0x0000041d
    bb48:	00000433 	.word	0x00000433
    bb4c:	00000413 	.word	0x00000413
    bb50:	7fffffff 	.word	0x7fffffff
    bb54:	fffffbed 	.word	0xfffffbed

0000bb58 <__aeabi_ui2d>:
    bb58:	b510      	push	{r4, lr}
    bb5a:	1e04      	subs	r4, r0, #0
    bb5c:	d028      	beq.n	bbb0 <__aeabi_ui2d+0x58>
    bb5e:	f7fd fbad 	bl	92bc <__clzsi2>
    bb62:	4b15      	ldr	r3, [pc, #84]	; (bbb8 <__aeabi_ui2d+0x60>)
    bb64:	4a15      	ldr	r2, [pc, #84]	; (bbbc <__aeabi_ui2d+0x64>)
    bb66:	1a1b      	subs	r3, r3, r0
    bb68:	1ad2      	subs	r2, r2, r3
    bb6a:	2a1f      	cmp	r2, #31
    bb6c:	dd15      	ble.n	bb9a <__aeabi_ui2d+0x42>
    bb6e:	4a14      	ldr	r2, [pc, #80]	; (bbc0 <__aeabi_ui2d+0x68>)
    bb70:	1ad2      	subs	r2, r2, r3
    bb72:	4094      	lsls	r4, r2
    bb74:	2200      	movs	r2, #0
    bb76:	0324      	lsls	r4, r4, #12
    bb78:	055b      	lsls	r3, r3, #21
    bb7a:	0b24      	lsrs	r4, r4, #12
    bb7c:	0d5b      	lsrs	r3, r3, #21
    bb7e:	2100      	movs	r1, #0
    bb80:	0010      	movs	r0, r2
    bb82:	0324      	lsls	r4, r4, #12
    bb84:	0d0a      	lsrs	r2, r1, #20
    bb86:	0b24      	lsrs	r4, r4, #12
    bb88:	0512      	lsls	r2, r2, #20
    bb8a:	4322      	orrs	r2, r4
    bb8c:	4c0d      	ldr	r4, [pc, #52]	; (bbc4 <__aeabi_ui2d+0x6c>)
    bb8e:	051b      	lsls	r3, r3, #20
    bb90:	4022      	ands	r2, r4
    bb92:	4313      	orrs	r3, r2
    bb94:	005b      	lsls	r3, r3, #1
    bb96:	0859      	lsrs	r1, r3, #1
    bb98:	bd10      	pop	{r4, pc}
    bb9a:	0021      	movs	r1, r4
    bb9c:	4091      	lsls	r1, r2
    bb9e:	000a      	movs	r2, r1
    bba0:	210b      	movs	r1, #11
    bba2:	1a08      	subs	r0, r1, r0
    bba4:	40c4      	lsrs	r4, r0
    bba6:	055b      	lsls	r3, r3, #21
    bba8:	0324      	lsls	r4, r4, #12
    bbaa:	0b24      	lsrs	r4, r4, #12
    bbac:	0d5b      	lsrs	r3, r3, #21
    bbae:	e7e6      	b.n	bb7e <__aeabi_ui2d+0x26>
    bbb0:	2300      	movs	r3, #0
    bbb2:	2400      	movs	r4, #0
    bbb4:	2200      	movs	r2, #0
    bbb6:	e7e2      	b.n	bb7e <__aeabi_ui2d+0x26>
    bbb8:	0000041e 	.word	0x0000041e
    bbbc:	00000433 	.word	0x00000433
    bbc0:	00000413 	.word	0x00000413
    bbc4:	800fffff 	.word	0x800fffff

0000bbc8 <__aeabi_f2d>:
    bbc8:	0041      	lsls	r1, r0, #1
    bbca:	0e09      	lsrs	r1, r1, #24
    bbcc:	1c4b      	adds	r3, r1, #1
    bbce:	b570      	push	{r4, r5, r6, lr}
    bbd0:	b2db      	uxtb	r3, r3
    bbd2:	0246      	lsls	r6, r0, #9
    bbd4:	0a75      	lsrs	r5, r6, #9
    bbd6:	0fc4      	lsrs	r4, r0, #31
    bbd8:	2b01      	cmp	r3, #1
    bbda:	dd14      	ble.n	bc06 <__aeabi_f2d+0x3e>
    bbdc:	23e0      	movs	r3, #224	; 0xe0
    bbde:	009b      	lsls	r3, r3, #2
    bbe0:	076d      	lsls	r5, r5, #29
    bbe2:	0b36      	lsrs	r6, r6, #12
    bbe4:	18cb      	adds	r3, r1, r3
    bbe6:	2100      	movs	r1, #0
    bbe8:	0d0a      	lsrs	r2, r1, #20
    bbea:	0028      	movs	r0, r5
    bbec:	0512      	lsls	r2, r2, #20
    bbee:	4d1c      	ldr	r5, [pc, #112]	; (bc60 <__aeabi_f2d+0x98>)
    bbf0:	4332      	orrs	r2, r6
    bbf2:	055b      	lsls	r3, r3, #21
    bbf4:	402a      	ands	r2, r5
    bbf6:	085b      	lsrs	r3, r3, #1
    bbf8:	4313      	orrs	r3, r2
    bbfa:	005b      	lsls	r3, r3, #1
    bbfc:	07e4      	lsls	r4, r4, #31
    bbfe:	085b      	lsrs	r3, r3, #1
    bc00:	4323      	orrs	r3, r4
    bc02:	0019      	movs	r1, r3
    bc04:	bd70      	pop	{r4, r5, r6, pc}
    bc06:	2900      	cmp	r1, #0
    bc08:	d114      	bne.n	bc34 <__aeabi_f2d+0x6c>
    bc0a:	2d00      	cmp	r5, #0
    bc0c:	d01e      	beq.n	bc4c <__aeabi_f2d+0x84>
    bc0e:	0028      	movs	r0, r5
    bc10:	f7fd fb54 	bl	92bc <__clzsi2>
    bc14:	280a      	cmp	r0, #10
    bc16:	dc1c      	bgt.n	bc52 <__aeabi_f2d+0x8a>
    bc18:	230b      	movs	r3, #11
    bc1a:	002a      	movs	r2, r5
    bc1c:	1a1b      	subs	r3, r3, r0
    bc1e:	40da      	lsrs	r2, r3
    bc20:	0003      	movs	r3, r0
    bc22:	3315      	adds	r3, #21
    bc24:	409d      	lsls	r5, r3
    bc26:	4b0f      	ldr	r3, [pc, #60]	; (bc64 <__aeabi_f2d+0x9c>)
    bc28:	0312      	lsls	r2, r2, #12
    bc2a:	1a1b      	subs	r3, r3, r0
    bc2c:	055b      	lsls	r3, r3, #21
    bc2e:	0b16      	lsrs	r6, r2, #12
    bc30:	0d5b      	lsrs	r3, r3, #21
    bc32:	e7d8      	b.n	bbe6 <__aeabi_f2d+0x1e>
    bc34:	2d00      	cmp	r5, #0
    bc36:	d006      	beq.n	bc46 <__aeabi_f2d+0x7e>
    bc38:	0b32      	lsrs	r2, r6, #12
    bc3a:	2680      	movs	r6, #128	; 0x80
    bc3c:	0336      	lsls	r6, r6, #12
    bc3e:	076d      	lsls	r5, r5, #29
    bc40:	4316      	orrs	r6, r2
    bc42:	4b09      	ldr	r3, [pc, #36]	; (bc68 <__aeabi_f2d+0xa0>)
    bc44:	e7cf      	b.n	bbe6 <__aeabi_f2d+0x1e>
    bc46:	4b08      	ldr	r3, [pc, #32]	; (bc68 <__aeabi_f2d+0xa0>)
    bc48:	2600      	movs	r6, #0
    bc4a:	e7cc      	b.n	bbe6 <__aeabi_f2d+0x1e>
    bc4c:	2300      	movs	r3, #0
    bc4e:	2600      	movs	r6, #0
    bc50:	e7c9      	b.n	bbe6 <__aeabi_f2d+0x1e>
    bc52:	0003      	movs	r3, r0
    bc54:	002a      	movs	r2, r5
    bc56:	3b0b      	subs	r3, #11
    bc58:	409a      	lsls	r2, r3
    bc5a:	2500      	movs	r5, #0
    bc5c:	e7e3      	b.n	bc26 <__aeabi_f2d+0x5e>
    bc5e:	46c0      	nop			; (mov r8, r8)
    bc60:	800fffff 	.word	0x800fffff
    bc64:	00000389 	.word	0x00000389
    bc68:	000007ff 	.word	0x000007ff

0000bc6c <__aeabi_d2f>:
    bc6c:	b5f0      	push	{r4, r5, r6, r7, lr}
    bc6e:	004c      	lsls	r4, r1, #1
    bc70:	0d64      	lsrs	r4, r4, #21
    bc72:	030b      	lsls	r3, r1, #12
    bc74:	1c62      	adds	r2, r4, #1
    bc76:	0f45      	lsrs	r5, r0, #29
    bc78:	0a5b      	lsrs	r3, r3, #9
    bc7a:	0552      	lsls	r2, r2, #21
    bc7c:	432b      	orrs	r3, r5
    bc7e:	0fc9      	lsrs	r1, r1, #31
    bc80:	00c5      	lsls	r5, r0, #3
    bc82:	0d52      	lsrs	r2, r2, #21
    bc84:	2a01      	cmp	r2, #1
    bc86:	dd28      	ble.n	bcda <__aeabi_d2f+0x6e>
    bc88:	4a3a      	ldr	r2, [pc, #232]	; (bd74 <__aeabi_d2f+0x108>)
    bc8a:	18a6      	adds	r6, r4, r2
    bc8c:	2efe      	cmp	r6, #254	; 0xfe
    bc8e:	dc1b      	bgt.n	bcc8 <__aeabi_d2f+0x5c>
    bc90:	2e00      	cmp	r6, #0
    bc92:	dd3e      	ble.n	bd12 <__aeabi_d2f+0xa6>
    bc94:	0180      	lsls	r0, r0, #6
    bc96:	0002      	movs	r2, r0
    bc98:	1e50      	subs	r0, r2, #1
    bc9a:	4182      	sbcs	r2, r0
    bc9c:	0f6d      	lsrs	r5, r5, #29
    bc9e:	432a      	orrs	r2, r5
    bca0:	00db      	lsls	r3, r3, #3
    bca2:	4313      	orrs	r3, r2
    bca4:	075a      	lsls	r2, r3, #29
    bca6:	d004      	beq.n	bcb2 <__aeabi_d2f+0x46>
    bca8:	220f      	movs	r2, #15
    bcaa:	401a      	ands	r2, r3
    bcac:	2a04      	cmp	r2, #4
    bcae:	d000      	beq.n	bcb2 <__aeabi_d2f+0x46>
    bcb0:	3304      	adds	r3, #4
    bcb2:	2280      	movs	r2, #128	; 0x80
    bcb4:	04d2      	lsls	r2, r2, #19
    bcb6:	401a      	ands	r2, r3
    bcb8:	d05a      	beq.n	bd70 <__aeabi_d2f+0x104>
    bcba:	3601      	adds	r6, #1
    bcbc:	2eff      	cmp	r6, #255	; 0xff
    bcbe:	d003      	beq.n	bcc8 <__aeabi_d2f+0x5c>
    bcc0:	019b      	lsls	r3, r3, #6
    bcc2:	0a5b      	lsrs	r3, r3, #9
    bcc4:	b2f4      	uxtb	r4, r6
    bcc6:	e001      	b.n	bccc <__aeabi_d2f+0x60>
    bcc8:	24ff      	movs	r4, #255	; 0xff
    bcca:	2300      	movs	r3, #0
    bccc:	0258      	lsls	r0, r3, #9
    bcce:	05e4      	lsls	r4, r4, #23
    bcd0:	0a40      	lsrs	r0, r0, #9
    bcd2:	07c9      	lsls	r1, r1, #31
    bcd4:	4320      	orrs	r0, r4
    bcd6:	4308      	orrs	r0, r1
    bcd8:	bdf0      	pop	{r4, r5, r6, r7, pc}
    bcda:	2c00      	cmp	r4, #0
    bcdc:	d007      	beq.n	bcee <__aeabi_d2f+0x82>
    bcde:	431d      	orrs	r5, r3
    bce0:	d0f2      	beq.n	bcc8 <__aeabi_d2f+0x5c>
    bce2:	2080      	movs	r0, #128	; 0x80
    bce4:	00db      	lsls	r3, r3, #3
    bce6:	0480      	lsls	r0, r0, #18
    bce8:	4303      	orrs	r3, r0
    bcea:	26ff      	movs	r6, #255	; 0xff
    bcec:	e7da      	b.n	bca4 <__aeabi_d2f+0x38>
    bcee:	432b      	orrs	r3, r5
    bcf0:	d003      	beq.n	bcfa <__aeabi_d2f+0x8e>
    bcf2:	2305      	movs	r3, #5
    bcf4:	08db      	lsrs	r3, r3, #3
    bcf6:	2cff      	cmp	r4, #255	; 0xff
    bcf8:	d003      	beq.n	bd02 <__aeabi_d2f+0x96>
    bcfa:	025b      	lsls	r3, r3, #9
    bcfc:	0a5b      	lsrs	r3, r3, #9
    bcfe:	b2e4      	uxtb	r4, r4
    bd00:	e7e4      	b.n	bccc <__aeabi_d2f+0x60>
    bd02:	2b00      	cmp	r3, #0
    bd04:	d032      	beq.n	bd6c <__aeabi_d2f+0x100>
    bd06:	2080      	movs	r0, #128	; 0x80
    bd08:	03c0      	lsls	r0, r0, #15
    bd0a:	4303      	orrs	r3, r0
    bd0c:	025b      	lsls	r3, r3, #9
    bd0e:	0a5b      	lsrs	r3, r3, #9
    bd10:	e7dc      	b.n	bccc <__aeabi_d2f+0x60>
    bd12:	0032      	movs	r2, r6
    bd14:	3217      	adds	r2, #23
    bd16:	db14      	blt.n	bd42 <__aeabi_d2f+0xd6>
    bd18:	2280      	movs	r2, #128	; 0x80
    bd1a:	271e      	movs	r7, #30
    bd1c:	0412      	lsls	r2, r2, #16
    bd1e:	4313      	orrs	r3, r2
    bd20:	1bbf      	subs	r7, r7, r6
    bd22:	2f1f      	cmp	r7, #31
    bd24:	dc0f      	bgt.n	bd46 <__aeabi_d2f+0xda>
    bd26:	4a14      	ldr	r2, [pc, #80]	; (bd78 <__aeabi_d2f+0x10c>)
    bd28:	4694      	mov	ip, r2
    bd2a:	4464      	add	r4, ip
    bd2c:	002a      	movs	r2, r5
    bd2e:	40a5      	lsls	r5, r4
    bd30:	002e      	movs	r6, r5
    bd32:	40a3      	lsls	r3, r4
    bd34:	1e75      	subs	r5, r6, #1
    bd36:	41ae      	sbcs	r6, r5
    bd38:	40fa      	lsrs	r2, r7
    bd3a:	4333      	orrs	r3, r6
    bd3c:	4313      	orrs	r3, r2
    bd3e:	2600      	movs	r6, #0
    bd40:	e7b0      	b.n	bca4 <__aeabi_d2f+0x38>
    bd42:	2400      	movs	r4, #0
    bd44:	e7d5      	b.n	bcf2 <__aeabi_d2f+0x86>
    bd46:	2202      	movs	r2, #2
    bd48:	4252      	negs	r2, r2
    bd4a:	1b96      	subs	r6, r2, r6
    bd4c:	001a      	movs	r2, r3
    bd4e:	40f2      	lsrs	r2, r6
    bd50:	2f20      	cmp	r7, #32
    bd52:	d009      	beq.n	bd68 <__aeabi_d2f+0xfc>
    bd54:	4809      	ldr	r0, [pc, #36]	; (bd7c <__aeabi_d2f+0x110>)
    bd56:	4684      	mov	ip, r0
    bd58:	4464      	add	r4, ip
    bd5a:	40a3      	lsls	r3, r4
    bd5c:	432b      	orrs	r3, r5
    bd5e:	1e5d      	subs	r5, r3, #1
    bd60:	41ab      	sbcs	r3, r5
    bd62:	2600      	movs	r6, #0
    bd64:	4313      	orrs	r3, r2
    bd66:	e79d      	b.n	bca4 <__aeabi_d2f+0x38>
    bd68:	2300      	movs	r3, #0
    bd6a:	e7f7      	b.n	bd5c <__aeabi_d2f+0xf0>
    bd6c:	2300      	movs	r3, #0
    bd6e:	e7ad      	b.n	bccc <__aeabi_d2f+0x60>
    bd70:	0034      	movs	r4, r6
    bd72:	e7bf      	b.n	bcf4 <__aeabi_d2f+0x88>
    bd74:	fffffc80 	.word	0xfffffc80
    bd78:	fffffc82 	.word	0xfffffc82
    bd7c:	fffffca2 	.word	0xfffffca2

0000bd80 <__clzdi2>:
    bd80:	b510      	push	{r4, lr}
    bd82:	2900      	cmp	r1, #0
    bd84:	d103      	bne.n	bd8e <__clzdi2+0xe>
    bd86:	f7fd fa99 	bl	92bc <__clzsi2>
    bd8a:	3020      	adds	r0, #32
    bd8c:	e002      	b.n	bd94 <__clzdi2+0x14>
    bd8e:	1c08      	adds	r0, r1, #0
    bd90:	f7fd fa94 	bl	92bc <__clzsi2>
    bd94:	bd10      	pop	{r4, pc}
    bd96:	46c0      	nop			; (mov r8, r8)

0000bd98 <__errno>:
    bd98:	4b01      	ldr	r3, [pc, #4]	; (bda0 <__errno+0x8>)
    bd9a:	6818      	ldr	r0, [r3, #0]
    bd9c:	4770      	bx	lr
    bd9e:	46c0      	nop			; (mov r8, r8)
    bda0:	2000010c 	.word	0x2000010c

0000bda4 <__libc_init_array>:
    bda4:	b570      	push	{r4, r5, r6, lr}
    bda6:	2600      	movs	r6, #0
    bda8:	4d0c      	ldr	r5, [pc, #48]	; (bddc <__libc_init_array+0x38>)
    bdaa:	4c0d      	ldr	r4, [pc, #52]	; (bde0 <__libc_init_array+0x3c>)
    bdac:	1b64      	subs	r4, r4, r5
    bdae:	10a4      	asrs	r4, r4, #2
    bdb0:	42a6      	cmp	r6, r4
    bdb2:	d109      	bne.n	bdc8 <__libc_init_array+0x24>
    bdb4:	2600      	movs	r6, #0
    bdb6:	f000 fc61 	bl	c67c <_init>
    bdba:	4d0a      	ldr	r5, [pc, #40]	; (bde4 <__libc_init_array+0x40>)
    bdbc:	4c0a      	ldr	r4, [pc, #40]	; (bde8 <__libc_init_array+0x44>)
    bdbe:	1b64      	subs	r4, r4, r5
    bdc0:	10a4      	asrs	r4, r4, #2
    bdc2:	42a6      	cmp	r6, r4
    bdc4:	d105      	bne.n	bdd2 <__libc_init_array+0x2e>
    bdc6:	bd70      	pop	{r4, r5, r6, pc}
    bdc8:	00b3      	lsls	r3, r6, #2
    bdca:	58eb      	ldr	r3, [r5, r3]
    bdcc:	4798      	blx	r3
    bdce:	3601      	adds	r6, #1
    bdd0:	e7ee      	b.n	bdb0 <__libc_init_array+0xc>
    bdd2:	00b3      	lsls	r3, r6, #2
    bdd4:	58eb      	ldr	r3, [r5, r3]
    bdd6:	4798      	blx	r3
    bdd8:	3601      	adds	r6, #1
    bdda:	e7f2      	b.n	bdc2 <__libc_init_array+0x1e>
    bddc:	0000c688 	.word	0x0000c688
    bde0:	0000c688 	.word	0x0000c688
    bde4:	0000c688 	.word	0x0000c688
    bde8:	0000c68c 	.word	0x0000c68c

0000bdec <memcpy>:
    bdec:	2300      	movs	r3, #0
    bdee:	b510      	push	{r4, lr}
    bdf0:	429a      	cmp	r2, r3
    bdf2:	d100      	bne.n	bdf6 <memcpy+0xa>
    bdf4:	bd10      	pop	{r4, pc}
    bdf6:	5ccc      	ldrb	r4, [r1, r3]
    bdf8:	54c4      	strb	r4, [r0, r3]
    bdfa:	3301      	adds	r3, #1
    bdfc:	e7f8      	b.n	bdf0 <memcpy+0x4>

0000bdfe <memset>:
    bdfe:	0003      	movs	r3, r0
    be00:	1882      	adds	r2, r0, r2
    be02:	4293      	cmp	r3, r2
    be04:	d100      	bne.n	be08 <memset+0xa>
    be06:	4770      	bx	lr
    be08:	7019      	strb	r1, [r3, #0]
    be0a:	3301      	adds	r3, #1
    be0c:	e7f9      	b.n	be02 <memset+0x4>
    be0e:	0000      	movs	r0, r0
    be10:	00000c66 	.word	0x00000c66
    be14:	00000eb2 	.word	0x00000eb2
    be18:	00000eb2 	.word	0x00000eb2
    be1c:	00000eb2 	.word	0x00000eb2
    be20:	00000eb2 	.word	0x00000eb2
    be24:	00000eb2 	.word	0x00000eb2
    be28:	00000eb2 	.word	0x00000eb2
    be2c:	00000eb2 	.word	0x00000eb2
    be30:	00000eb2 	.word	0x00000eb2
    be34:	00000eb2 	.word	0x00000eb2
    be38:	00000eb2 	.word	0x00000eb2
    be3c:	00000eb2 	.word	0x00000eb2
    be40:	00000eb2 	.word	0x00000eb2
    be44:	00000eb2 	.word	0x00000eb2
    be48:	00000eb2 	.word	0x00000eb2
    be4c:	00000eb2 	.word	0x00000eb2
    be50:	00000c4e 	.word	0x00000c4e
    be54:	00000eb2 	.word	0x00000eb2
    be58:	00000eb2 	.word	0x00000eb2
    be5c:	00000eb2 	.word	0x00000eb2
    be60:	00000eb2 	.word	0x00000eb2
    be64:	00000eb2 	.word	0x00000eb2
    be68:	00000eb2 	.word	0x00000eb2
    be6c:	00000eb2 	.word	0x00000eb2
    be70:	00000eb2 	.word	0x00000eb2
    be74:	00000eb2 	.word	0x00000eb2
    be78:	00000eb2 	.word	0x00000eb2
    be7c:	00000eb2 	.word	0x00000eb2
    be80:	00000eb2 	.word	0x00000eb2
    be84:	00000eb2 	.word	0x00000eb2
    be88:	00000eb2 	.word	0x00000eb2
    be8c:	00000eb2 	.word	0x00000eb2
    be90:	00000c5e 	.word	0x00000c5e
    be94:	00000eb2 	.word	0x00000eb2
    be98:	00000eb2 	.word	0x00000eb2
    be9c:	00000eb2 	.word	0x00000eb2
    bea0:	00000eb2 	.word	0x00000eb2
    bea4:	00000eb2 	.word	0x00000eb2
    bea8:	00000eb2 	.word	0x00000eb2
    beac:	00000eb2 	.word	0x00000eb2
    beb0:	00000eb2 	.word	0x00000eb2
    beb4:	00000eb2 	.word	0x00000eb2
    beb8:	00000eb2 	.word	0x00000eb2
    bebc:	00000eb2 	.word	0x00000eb2
    bec0:	00000eb2 	.word	0x00000eb2
    bec4:	00000eb2 	.word	0x00000eb2
    bec8:	00000eb2 	.word	0x00000eb2
    becc:	00000eb2 	.word	0x00000eb2
    bed0:	00000c56 	.word	0x00000c56
    bed4:	00000c6e 	.word	0x00000c6e
    bed8:	00000c36 	.word	0x00000c36
    bedc:	00000c46 	.word	0x00000c46
    bee0:	00000c3e 	.word	0x00000c3e
    bee4:	00000002 	.word	0x00000002
    bee8:	00000003 	.word	0x00000003
    beec:	00000028 	.word	0x00000028
    bef0:	00000029 	.word	0x00000029
    bef4:	00000004 	.word	0x00000004
    bef8:	00000005 	.word	0x00000005
    befc:	00000006 	.word	0x00000006
    bf00:	00000007 	.word	0x00000007
    bf04:	0000ffff 	.word	0x0000ffff
    bf08:	0000ffff 	.word	0x0000ffff
    bf0c:	00000022 	.word	0x00000022
    bf10:	00000023 	.word	0x00000023
    bf14:	0000ffff 	.word	0x0000ffff
    bf18:	0000ffff 	.word	0x0000ffff
    bf1c:	0000ffff 	.word	0x0000ffff
    bf20:	0000ffff 	.word	0x0000ffff
    bf24:	00000008 	.word	0x00000008
    bf28:	00000009 	.word	0x00000009
    bf2c:	0000000a 	.word	0x0000000a
    bf30:	0000000b 	.word	0x0000000b

0000bf34 <_tcc_intflag>:
    bf34:	00000001 00000002 00000004 00000008     ................
    bf44:	00001000 00002000 00004000 00008000     ..... ...@......
    bf54:	00010000 00020000 00040000 00080000     ................
    bf64:	80050000 000a800f 001e801b 80110014     ................
    bf74:	00368033 8039003c 802d0028 00228027     3.6.<.9.(.-.'.".
    bf84:	00668063 8069006c 807d0078 00728077     c.f.l.i.x.}.w.r.
    bf94:	80550050 005a805f 004e804b 80410044     P.U._.Z.K.N.D.A.
    bfa4:	00c680c3 80c900cc 80dd00d8 00d280d7     ................
    bfb4:	80f500f0 00fa80ff 00ee80eb 80e100e4     ................
    bfc4:	80a500a0 00aa80af 00be80bb 80b100b4     ................
    bfd4:	00968093 8099009c 808d0088 00828087     ................
    bfe4:	01868183 8189018c 819d0198 01928197     ................
    bff4:	81b501b0 01ba81bf 01ae81ab 81a101a4     ................
    c004:	81e501e0 01ea81ef 01fe81fb 81f101f4     ................
    c014:	01d681d3 81d901dc 81cd01c8 01c281c7     ................
    c024:	81450140 014a814f 015e815b 81510154     @.E.O.J.[.^.T.Q.
    c034:	01768173 8179017c 816d0168 01628167     s.v.|.y.h.m.g.b.
    c044:	01268123 8129012c 813d0138 01328137     #.&.,.).8.=.7.2.
    c054:	81150110 011a811f 010e810b 81010104     ................
    c064:	03068303 8309030c 831d0318 03128317     ................
    c074:	83350330 033a833f 032e832b 83210324     0.5.?.:.+...$.!.
    c084:	83650360 036a836f 037e837b 83710374     `.e.o.j.{.~.t.q.
    c094:	03568353 8359035c 834d0348 03428347     S.V.\.Y.H.M.G.B.
    c0a4:	83c503c0 03ca83cf 03de83db 83d103d4     ................
    c0b4:	03f683f3 83f903fc 83ed03e8 03e283e7     ................
    c0c4:	03a683a3 83a903ac 83bd03b8 03b283b7     ................
    c0d4:	83950390 039a839f 038e838b 83810384     ................
    c0e4:	82850280 028a828f 029e829b 82910294     ................
    c0f4:	02b682b3 82b902bc 82ad02a8 02a282a7     ................
    c104:	02e682e3 82e902ec 82fd02f8 02f282f7     ................
    c114:	82d502d0 02da82df 02ce82cb 82c102c4     ................
    c124:	02468243 8249024c 825d0258 02528257     C.F.L.I.X.].W.R.
    c134:	82750270 027a827f 026e826b 82610264     p.u...z.k.n.d.a.
    c144:	82250220 022a822f 023e823b 82310234      .%./.*.;.>.4.1.
    c154:	02168213 8219021c 820d0208 02028207     ................
    c164:	00001e3e 0000244c 0000244c 0000244c     >...L$..L$..L$..
    c174:	00001e62 00001e96 00001eb6 00001ed8     b...............
    c184:	0000244c 0000244c 00001efc 00001f2a     L$..L$......*...
    c194:	00002074 00002074 000020c6 000020e2     t ..t ... ... ..
    c1a4:	0000211a 0000219c 00001f8e 00001fae     .!...!..........
    c1b4:	00002052 0000244c 000021be 000021be     R ..L$...!...!..
    c1c4:	0000222e 0000222e 0000222e 0000222e     ."..."..."..."..
    c1d4:	000022e8 000021be 000021be 000021be     ."...!...!...!..
    c1e4:	0000244c 0000244c 0000244c 0000244c     L$..L$..L$..L$..
    c1f4:	0000244c 0000244c 0000244c 0000244c     L$..L$..L$..L$..
    c204:	0000244c 0000244c 0000244c 0000244c     L$..L$..L$..L$..
    c214:	0000244c 0000244c 0000244c 00002280     L$..L$..L$..."..
    c224:	00002280 00002074 00002074 00001ffa     ."..t ..t ......
    c234:	0000244c 0000244c 0000244c 0000244c     L$..L$..L$..L$..
    c244:	0000244c 0000244c 0000244c 0000244c     L$..L$..L$..L$..
    c254:	0000244c 0000244c 0000244c 0000244c     L$..L$..L$..L$..
    c264:	0000244c 000023da 000023fa 0000244c     L$...#...#..L$..
    c274:	0000244c 0000233a 00002368 0000239a     L$..:#..h#...#..
    c284:	000023ba 0000244c 0000244c 0000244c     .#..L$..L$..L$..
    c294:	0000244c 0000244c 0000244c 0000244c     L$..L$..L$..L$..
    c2a4:	0000241a 000021de 000021fc 000021ea     .$...!...!...!..
    c2b4:	000021ea 000021ea 000021ea 000021ea     .!...!...!...!..
    c2c4:	000021f8 000021e2 000021e6 0000feff     .!...!...!......

0000c2d4 <pearsondata>:
    c2d4:	99ee7700 9ee97007 97e0790e 90e77e09     .w...p...y...~..
    c2e4:	84f36a1d 83f46d1a 8afd6413 8dfa6314     .j...m...d...c..
    c2f4:	a2d54c3b a5d24b3c acdb4235 abdc4532     ;L..<K..5B..2E..
    c304:	bfc85126 b8cf5621 b1c65f28 b6c1582f     &Q..!V..(_../X..
    c314:	ef980176 e89f0671 e1960f78 e691087f     v...q...x.......
    c324:	f2851c6b f5821b6c fc8b1265 fb8c1562     k...l...e...b...
    c334:	d4a33a4d d3a43d4a daad3443 ddaa3344     M:..J=..C4..D3..
    c344:	c9be2750 ceb92057 c7b0295e c0b72e59     P'..W ..^)..Y...
    c354:	74039aed 73049dea 7a0d94e3 7d0a93e4     ...t...s...z...}
    c364:	691e87f0 6e1980f7 671089fe 60178ef9     ...i...n...g...`
    c374:	4f38a1d6 483fa6d1 4136afd8 4631a8df     ..8O..?H..6A..1F
    c384:	5225bccb 5522bbcc 5c2bb2c5 5b2cb5c2     ..%R.."U..+\..,[
    c394:	0275ec9b 0572eb9c 0c7be295 0b7ce592     ..u...r...{...|.
    c3a4:	1f68f186 186ff681 1166ff88 1661f88f     ..h...o...f...a.
    c3b4:	394ed7a0 3e49d0a7 3740d9ae 3047dea9     ..N9..I>..@7..G0
    c3c4:	2453cabd 2354cdba 2a5dc4b3 2d5ac3b4     ..S$..T#..]*..Z-
    c3d4:	00003210 00003210 00003214 00003214     .2...2...2...2..
    c3e4:	00003214 00003214 00003210 00003210     .2...2...2...2..
    c3f4:	00003210 00003210 00003210 00003214     .2...2...2...2..
    c404:	00003214 00003214 00003214 00003210     .2...2...2...2..
    c414:	00003210 00003214 00003214 00003210     .2...2...2...2..
    c424:	00003210 00003210 00003210 00003210     .2...2...2...2..
    c434:	00003214 00003214 00003210 00003214     .2...2...2...2..
    c444:	00003214 00003214 00003210 00003210     .2...2...2...2..
    c454:	00003210 00003210 00003210 00003210     .2...2...2...2..
    c464:	00003210 00003210 00003210 00003210     .2...2...2...2..
    c474:	00003210 00003210 00003210 00003210     .2...2...2...2..
    c484:	00003210 00003214 00003214 00003214     .2...2...2...2..
    c494:	00003210 00003214 00003214 42002c00     .2...2...2...,.B
    c4a4:	42003000 42003400 00005acc 00005ada     .0.B.4.B.Z...Z..
    c4b4:	00005b74 00005c14 00005c78              t[...\..x\..

0000c4c0 <_usb_device_irq_bits>:
    c4c0:	00080004 00800070 01000001 00000200     ....p...........

0000c4d0 <_usb_endpoint_irq_bits>:
    c4d0:	60100c03 42000800 42000c00 42001000     ...`...B...B...B
    c4e0:	42001400 42001800 42001c00 0000833a     ...B...B...B:...
    c4f0:	00008336 00008336 00008398 00008398     6...6...........
    c500:	0000834e 00008340 00008354 00008386     N...@...T.......
    c510:	00008558 00008538 00008538 000085c4     X...8...8.......
    c520:	0000854a 00008566 0000853c 00008574     J...f...<...t...
    c530:	000085b4 74727173 00000066 00009a74     ....sqrtf...t...
    c540:	00009a44 00009a56 00009998 00009a56     D...V.......V...
    c550:	00009a3a 00009a56 00009998 00009a44     :...V.......D...
    c560:	00009a44 00009a3a 00009998 000099a0     D...:...........
    c570:	000099a0 000099a0 00009a5c 00009a44     ........\...D...
    c580:	00009a44 00009a18 00009afc 00009a18     D...............
    c590:	00009a3a 00009a18 00009afc 00009a44     :...........D...
    c5a0:	00009a44 00009a3a 00009afc 000099a0     D...:...........
    c5b0:	000099a0 000099a0 00009b06 00009df4     ................
    c5c0:	00009d44 00009d44 00009d42 00009de6     D...D...B.......
    c5d0:	00009de6 00009ddc 00009d42 00009de6     ........B.......
    c5e0:	00009ddc 00009de6 00009d42 00009dec     ........B.......
    c5f0:	00009dec 00009dec 00009e7c 0000ab54     ........|...T...
    c600:	0000ab36 0000aaf0 0000aa0e 0000aaf0     6...............
    c610:	0000ab28 0000aaf0 0000aa0e 0000ab36     (...........6...
    c620:	0000ab36 0000ab28 0000aa0e 0000aa06     6...(...........
    c630:	0000aa06 0000aa06 0000ad6c 0000b1b4     ........l.......
    c640:	0000b074 0000b074 0000b070 0000b18c     t...t...p.......
    c650:	0000b18c 0000b17e 0000b070 0000b18c     ....~...p.......
    c660:	0000b17e 0000b18c 0000b070 0000b194     ~.......p.......
    c670:	0000b194 0000b194 0000b398              ............

0000c67c <_init>:
    c67c:	b5f8      	push	{r3, r4, r5, r6, r7, lr}
    c67e:	46c0      	nop			; (mov r8, r8)
    c680:	bcf8      	pop	{r3, r4, r5, r6, r7}
    c682:	bc08      	pop	{r3}
    c684:	469e      	mov	lr, r3
    c686:	4770      	bx	lr

0000c688 <__init_array_start>:
    c688:	000000dd 	.word	0x000000dd

0000c68c <_fini>:
    c68c:	b5f8      	push	{r3, r4, r5, r6, r7, lr}
    c68e:	46c0      	nop			; (mov r8, r8)
    c690:	bcf8      	pop	{r3, r4, r5, r6, r7}
    c692:	bc08      	pop	{r3}
    c694:	469e      	mov	lr, r3
    c696:	4770      	bx	lr

0000c698 <__fini_array_start>:
    c698:	000000b5 	.word	0x000000b5
